
Combat.o:     file format elf32-v810


Disassembly of section .text:

07000000 <_start>:
 7000000:	60 bc 01 05 	movhi	1281, r0, sp
 7000004:	63 a0 c0 ff 	movea	-64, sp, sp
 7000008:	80 bc 01 05 	movhi	1281, r0, gp
 700000c:	84 a0 00 80 	movea	-32768, gp, gp
 7000010:	05 70       	ldsr	r0, psw
 7000012:	18 70       	ldsr	r0, chcw
 7000014:	c0 a0 00 20 	movea	8192, r0, r6

07000018 <DummyLoop>:
 7000018:	df 44       	add	-1, r6
 700001a:	fe 95       	bne	7000018 <DummyLoop>
 700001c:	c0 bc 00 07 	movhi	1792, r0, r6
 7000020:	c6 a0 9c 79 	movea	31132, r6, r6
 7000024:	e0 bc 00 05 	movhi	1280, r0, r7
 7000028:	e7 a0 3c 00 	movea	60, r7, r7
 700002c:	00 bd 00 05 	movhi	1280, r0, r8
 7000030:	08 a1 00 00 	movea	0, r8, r8
 7000034:	00 a8 10 00 	jr	7000044 <end_initdata>

07000038 <initdata>:
 7000038:	26 c1 00 00 	ld.b	0[r6],r9
 700003c:	28 d1 00 00 	st.b	r9, 0[r8]
 7000040:	c1 44       	add	1, r6
 7000042:	01 45       	add	1, r8

07000044 <end_initdata>:
 7000044:	07 0d       	cmp	r7, r8
 7000046:	f2 8d       	blt	7000038 <initdata>
 7000048:	c0 bc 01 05 	movhi	1281, r0, r6
 700004c:	00 a8 0a 00 	jr	7000056 <loop_start1>

07000050 <loop_top1>:
 7000050:	07 d4 00 00 	st.h	r0, 0[r7]
 7000054:	e2 44       	add	2, r7

07000056 <loop_start1>:
 7000056:	e6 0c       	cmp	r6, r7
 7000058:	f8 8d       	blt	7000050 <loop_top1>
 700005a:	e0 00       	mov	r0, r7
 700005c:	c0 bc 04 00 	movhi	4, r0, r6

07000060 <ClrLoop>:
 7000060:	07 dc 00 00 	st.w	r0, 0[r7]
 7000064:	e4 44       	add	4, r7
 7000066:	dc 44       	add	-4, r6
 7000068:	f8 95       	bne	7000060 <ClrLoop>
 700006a:	00 ac 3e 00 	jal	70000a8 <_setcoltable>
 700006e:	c0 bc 00 02 	movhi	512, r0, r6
 7000072:	e0 a0 14 00 	movea	20, r0, r7
 7000076:	e6 d0 00 00 	st.b	r7, 0[r6]
 700007a:	ff 40       	mov	-1, r7
 700007c:	e6 d0 04 00 	st.b	r7, 4[r6]
 7000080:	06 d0 20 00 	st.b	r0, 32[r6]
 7000084:	e0 a0 80 00 	movea	128, r0, r7
 7000088:	e6 d0 28 00 	st.b	r7, 40[r6]
 700008c:	e0 bf 00 07 	movhi	1792, r0, lp
 7000090:	ff a3 9e 00 	movea	158, lp, lp
 7000094:	20 bc 00 07 	movhi	1792, r0, r1
 7000098:	21 a0 0c 36 	movea	13836, r1, r1
 700009c:	01 18       	jmp	[r1]

0700009e <__end>:
 700009e:	e0 bf 00 00 	movhi	0, r0, lp
 70000a2:	ff a3 f0 ff 	movea	-16, lp, lp
 70000a6:	1f 18       	jmp	[lp]

070000a8 <_setcoltable>:
 70000a8:	c0 bc 04 00 	movhi	4, r0, r6
 70000ac:	c6 a0 00 dc 	movea	-9216, r6, r6
 70000b0:	e0 bc 00 07 	movhi	1792, r0, r7
 70000b4:	e7 a0 fe 00 	movea	254, r7, r7
 70000b8:	00 a1 00 01 	movea	256, r0, r8
 70000bc:	06 05       	add	r6, r8
 70000be:	00 a8 18 00 	jr	70000d6 <setcoltable_end>

070000c2 <setcoltable_loop>:
 70000c2:	27 c1 00 00 	ld.b	0[r7],r9
 70000c6:	29 b5 ff 00 	andi	255, r9, r9
 70000ca:	26 d5 00 00 	st.h	r9, 0[r6]
 70000ce:	26 d5 00 02 	st.h	r9, 512[r6]
 70000d2:	c2 44       	add	2, r6
 70000d4:	e1 44       	add	1, r7

070000d6 <setcoltable_end>:
 70000d6:	c8 0c       	cmp	r8, r6
 70000d8:	ea 8d       	blt	70000c2 <setcoltable_loop>
 70000da:	00 a1 00 01 	movea	256, r0, r8
 70000de:	06 05       	add	r6, r8
 70000e0:	00 a8 18 00 	jr	70000f8 <setcoltable_end2>

070000e4 <setcoltable_loop2>:
 70000e4:	ff 44       	add	-1, r7
 70000e6:	27 c1 00 00 	ld.b	0[r7],r9
 70000ea:	29 b5 ff 00 	andi	255, r9, r9
 70000ee:	26 d5 00 00 	st.h	r9, 0[r6]
 70000f2:	26 d5 00 02 	st.h	r9, 512[r6]
 70000f6:	c2 44       	add	2, r6

070000f8 <setcoltable_end2>:
 70000f8:	c8 0c       	cmp	r8, r6
 70000fa:	ea 8d       	blt	70000e4 <setcoltable_loop2>
 70000fc:	1f 18       	jmp	[lp]

070000fe <coltable>:
 70000fe:	fe fe fe fe 	out.w	r23, -258[r30]
 7000102:	fe fe fe fe 	out.w	r23, -258[r30]
 7000106:	fe fe fe fe 	out.w	r23, -258[r30]
 700010a:	fe fe fe fe 	out.w	r23, -258[r30]
 700010e:	fe fe fe fe 	out.w	r23, -258[r30]
 7000112:	fe fe fe fe 	out.w	r23, -258[r30]
 7000116:	fe fe fe fe 	out.w	r23, -258[r30]
 700011a:	fe fe fe fe 	out.w	r23, -258[r30]
 700011e:	fe fe fe fe 	out.w	r23, -258[r30]
 7000122:	fe fe fe fe 	out.w	r23, -258[r30]
 7000126:	fe fe fe fe 	out.w	r23, -258[r30]
 700012a:	fe fe fe fe 	out.w	r23, -258[r30]
 700012e:	fe fe fe fe 	out.w	r23, -258[r30]
 7000132:	fe fe fe fe 	out.w	r23, -258[r30]
 7000136:	fe fe fe fe 	out.w	r23, -258[r30]
 700013a:	fe fe e0 bc 	out.w	r23, -17184[r30]
 700013e:	a6 96       	bh	70001e4 <__inthnd+0x64>
 7000140:	8a 82       	bc	70001ca <__inthnd+0x4a>
 7000142:	7a 74       	stsr	sr26, sp
 7000144:	6e 6a       	halt	
 7000146:	66 62       	trap	6
 7000148:	60 5c       	sar	0, sp
 700014a:	5a 58       	cli	
 700014c:	56 54       	shr	22, r2
 700014e:	52 50       	shl	18, r2
 7000150:	50 4e       	cmp	-16, r18
 7000152:	4c 4c       	cmp	12, r2
 7000154:	4a 4a       	setf	nz, r18
 7000156:	48 48       	setf	nv, r2
 7000158:	46 46       	add	6, r18
 700015a:	46 44       	add	6, r2
 700015c:	44 44       	add	4, r2
 700015e:	42 42       	mov	2, r18
 7000160:	42 40       	mov	2, r2
 7000162:	40 40       	mov	0, r2
 7000164:	40 40       	mov	0, r2
 7000166:	3e 3e       	not	r30, r17
 7000168:	3e 3e       	not	r30, r17
 700016a:	3e 3e       	not	r30, r17
 700016c:	3e 3c       	not	r30, r1
 700016e:	3c 3c       	not	r28, r1
 7000170:	3c 3c       	not	r28, r1
 7000172:	3c 3c       	not	r28, r1
 7000174:	3c 3c       	not	r28, r1
 7000176:	3c 3c       	not	r28, r1
 7000178:	3c 3c       	not	r28, r1
 700017a:	3c 3c       	not	r28, r1
 700017c:	3c 3c       	not	r28, r1

0700017e <jmp_r1>:
 700017e:	01 18       	jmp	[r1]

07000180 <__inthnd>:
 7000180:	63 a4 90 ff 	addi	-112, sp, sp
 7000184:	e3 df 00 00 	st.w	lp, 0[sp]
 7000188:	c3 df 04 00 	st.w	r30, 4[sp]
 700018c:	a3 df 08 00 	st.w	r29, 8[sp]
 7000190:	83 df 0c 00 	st.w	r28, 12[sp]
 7000194:	63 df 10 00 	st.w	r27, 16[sp]
 7000198:	43 df 14 00 	st.w	r26, 20[sp]
 700019c:	23 df 18 00 	st.w	r25, 24[sp]
 70001a0:	03 df 1c 00 	st.w	r24, 28[sp]
 70001a4:	e3 de 20 00 	st.w	r23, 32[sp]
 70001a8:	c3 de 24 00 	st.w	r22, 36[sp]
 70001ac:	a3 de 28 00 	st.w	r21, 40[sp]
 70001b0:	83 de 2c 00 	st.w	r20, 44[sp]
 70001b4:	63 de 30 00 	st.w	r19, 48[sp]
 70001b8:	43 de 34 00 	st.w	r18, 52[sp]
 70001bc:	23 de 38 00 	st.w	r17, 56[sp]
 70001c0:	03 de 3c 00 	st.w	r16, 60[sp]
 70001c4:	e3 dd 40 00 	st.w	r15, 64[sp]
 70001c8:	c3 dd 44 00 	st.w	r14, 68[sp]
 70001cc:	a3 dd 48 00 	st.w	r13, 72[sp]
 70001d0:	83 dd 4c 00 	st.w	r12, 76[sp]
 70001d4:	63 dd 50 00 	st.w	r11, 80[sp]
 70001d8:	43 dd 54 00 	st.w	r10, 84[sp]
 70001dc:	23 dd 58 00 	st.w	r9, 88[sp]
 70001e0:	03 dd 5c 00 	st.w	r8, 92[sp]
 70001e4:	e3 dc 60 00 	st.w	r7, 96[sp]
 70001e8:	c3 dc 64 00 	st.w	r6, 100[sp]
 70001ec:	a3 dc 68 00 	st.w	r5, 104[sp]
 70001f0:	43 dc 6c 00 	st.w	r2, 108[sp]
 70001f4:	20 bc 01 05 	movhi	1281, r0, r1
 70001f8:	21 a0 c0 ff 	movea	-64, r1, r1
 70001fc:	c5 74       	stsr	psw, r6
 70001fe:	ce 54       	shr	14, r6
 7000200:	c6 b4 3c 00 	andi	60, r6, r6
 7000204:	26 04       	add	r6, r1
 7000206:	21 cc fc ff 	ld.w	-4[r1],r1
 700020a:	20 0c       	cmp	r0, r1
 700020c:	06 84       	be	7000212 <__inthnd_end>
 700020e:	ff af 70 ff 	jal	700017e <jmp_r1>

07000212 <__inthnd_end>:
 7000212:	e3 cf 00 00 	ld.w	0[sp],lp
 7000216:	c3 cf 04 00 	ld.w	4[sp],r30
 700021a:	a3 cf 08 00 	ld.w	8[sp],r29
 700021e:	83 cf 0c 00 	ld.w	12[sp],r28
 7000222:	63 cf 10 00 	ld.w	16[sp],r27
 7000226:	43 cf 14 00 	ld.w	20[sp],r26
 700022a:	23 cf 18 00 	ld.w	24[sp],r25
 700022e:	03 cf 1c 00 	ld.w	28[sp],r24
 7000232:	e3 ce 20 00 	ld.w	32[sp],r23
 7000236:	c3 ce 24 00 	ld.w	36[sp],r22
 700023a:	a3 ce 28 00 	ld.w	40[sp],r21
 700023e:	83 ce 2c 00 	ld.w	44[sp],r20
 7000242:	63 ce 30 00 	ld.w	48[sp],r19
 7000246:	43 ce 34 00 	ld.w	52[sp],r18
 700024a:	23 ce 38 00 	ld.w	56[sp],r17
 700024e:	03 ce 3c 00 	ld.w	60[sp],r16
 7000252:	e3 cd 40 00 	ld.w	64[sp],r15
 7000256:	c3 cd 44 00 	ld.w	68[sp],r14
 700025a:	a3 cd 48 00 	ld.w	72[sp],r13
 700025e:	83 cd 4c 00 	ld.w	76[sp],r12
 7000262:	63 cd 50 00 	ld.w	80[sp],r11
 7000266:	43 cd 54 00 	ld.w	84[sp],r10
 700026a:	23 cd 58 00 	ld.w	88[sp],r9
 700026e:	03 cd 5c 00 	ld.w	92[sp],r8
 7000272:	e3 cc 60 00 	ld.w	96[sp],r7
 7000276:	c3 cc 64 00 	ld.w	100[sp],r6
 700027a:	a3 cc 68 00 	ld.w	104[sp],r5
 700027e:	43 cc 6c 00 	ld.w	108[sp],r2
 7000282:	63 a4 70 00 	addi	112, sp, sp
 7000286:	23 cc 00 00 	ld.w	0[sp],r1
 700028a:	64 44       	add	4, sp
 700028c:	00 64       	reti	
 700028e:	ff ff 7c 44 	out.w	lp, 17532[lp]

07000290 <_vbWaitFrame>:
 7000290:	7c 44       	add	-4, sp
 7000292:	46 01       	mov	r6, r10
 7000294:	43 d5 04 00 	st.h	r10, 4[sp]
 7000298:	03 d4 02 00 	st.h	r0, 2[sp]
 700029c:	4c 8a       	br	70002e8 <_vbWaitFrame+0x58>
 700029e:	40 bd 00 05 	movhi	1280, r0, r10
 70002a2:	4a a1 00 00 	movea	0, r10, r10
 70002a6:	4a cd 00 00 	ld.w	0[r10],r10
 70002aa:	4a a5 40 00 	addi	64, r10, r10
 70002ae:	4a c5 00 00 	ld.h	0[r10],r10
 70002b2:	4a b5 ff ff 	andi	65535, r10, r10
 70002b6:	4a b5 0c 00 	andi	12, r10, r10
 70002ba:	40 0d       	cmp	r0, r10
 70002bc:	e2 85       	be	700029e <_vbWaitFrame+0xe>
 70002be:	40 bd 00 05 	movhi	1280, r0, r10
 70002c2:	4a a1 00 00 	movea	0, r10, r10
 70002c6:	4a cd 00 00 	ld.w	0[r10],r10
 70002ca:	4a a5 40 00 	addi	64, r10, r10
 70002ce:	4a c5 00 00 	ld.h	0[r10],r10
 70002d2:	4a b5 ff ff 	andi	65535, r10, r10
 70002d6:	4a b5 0c 00 	andi	12, r10, r10
 70002da:	40 0d       	cmp	r0, r10
 70002dc:	e2 95       	bne	70002be <_vbWaitFrame+0x2e>
 70002de:	43 c5 02 00 	ld.h	2[sp],r10
 70002e2:	41 45       	add	1, r10
 70002e4:	43 d5 02 00 	st.h	r10, 2[sp]
 70002e8:	43 c5 02 00 	ld.h	2[sp],r10
 70002ec:	6a b5 ff ff 	andi	65535, r10, r11
 70002f0:	43 c5 04 00 	ld.h	4[sp],r10
 70002f4:	4a b5 ff ff 	andi	65535, r10, r10
 70002f8:	6a 0d       	cmp	r10, r11
 70002fa:	a4 87       	bnh	700029e <_vbWaitFrame+0xe>
 70002fc:	64 44       	add	4, sp
 70002fe:	1f 18       	jmp	[lp]

07000300 <_vbDisplayOn>:
 7000300:	40 bd 00 05 	movhi	1280, r0, r10
 7000304:	4a a1 00 00 	movea	0, r10, r10
 7000308:	4a cd 00 00 	ld.w	0[r10],r10
 700030c:	4a a5 2a 00 	addi	42, r10, r10
 7000310:	0a d4 00 00 	st.h	r0, 0[r10]
 7000314:	40 bd 00 05 	movhi	1280, r0, r10
 7000318:	4a a1 00 00 	movea	0, r10, r10
 700031c:	4a cd 00 00 	ld.w	0[r10],r10
 7000320:	4a a5 42 00 	addi	66, r10, r10
 7000324:	60 bd 00 05 	movhi	1280, r0, r11
 7000328:	6b a1 00 00 	movea	0, r11, r11
 700032c:	6b cd 00 00 	ld.w	0[r11],r11
 7000330:	6b a5 40 00 	addi	64, r11, r11
 7000334:	6b c5 00 00 	ld.h	0[r11],r11
 7000338:	6b b5 ff ff 	andi	65535, r11, r11
 700033c:	6b b1 02 00 	ori	2, r11, r11
 7000340:	6b b5 ff ff 	andi	65535, r11, r11
 7000344:	6a d5 00 00 	st.h	r11, 0[r10]
 7000348:	40 bd 00 05 	movhi	1280, r0, r10
 700034c:	4a a1 00 00 	movea	0, r10, r10
 7000350:	4a cd 00 00 	ld.w	0[r10],r10
 7000354:	4a a5 22 00 	addi	34, r10, r10
 7000358:	60 bd 00 05 	movhi	1280, r0, r11
 700035c:	6b a1 00 00 	movea	0, r11, r11
 7000360:	6b cd 00 00 	ld.w	0[r11],r11
 7000364:	6b a5 20 00 	addi	32, r11, r11
 7000368:	6b c5 00 00 	ld.h	0[r11],r11
 700036c:	6b b5 ff ff 	andi	65535, r11, r11
 7000370:	6b b1 02 03 	ori	770, r11, r11
 7000374:	6b b5 ff ff 	andi	65535, r11, r11
 7000378:	6a d5 00 00 	st.h	r11, 0[r10]
 700037c:	40 bd 00 05 	movhi	1280, r0, r10
 7000380:	4a a1 00 00 	movea	0, r10, r10
 7000384:	4a cd 00 00 	ld.w	0[r10],r10
 7000388:	4a a5 2e 00 	addi	46, r10, r10
 700038c:	0a d4 00 00 	st.h	r0, 0[r10]
 7000390:	40 bd 00 05 	movhi	1280, r0, r10
 7000394:	4a a1 00 00 	movea	0, r10, r10
 7000398:	4a cd 00 00 	ld.w	0[r10],r10
 700039c:	44 45       	add	4, r10
 700039e:	60 bd 00 05 	movhi	1280, r0, r11
 70003a2:	6b a1 00 00 	movea	0, r11, r11
 70003a6:	6b cd 00 00 	ld.w	0[r11],r11
 70003aa:	6b c5 00 00 	ld.h	0[r11],r11
 70003ae:	6b b5 ff ff 	andi	65535, r11, r11
 70003b2:	6a d5 00 00 	st.h	r11, 0[r10]
 70003b6:	40 bd 00 05 	movhi	1280, r0, r10
 70003ba:	4a a1 00 00 	movea	0, r10, r10
 70003be:	4a cd 00 00 	ld.w	0[r10],r10
 70003c2:	4a a5 24 00 	addi	36, r10, r10
 70003c6:	0a d4 00 00 	st.h	r0, 0[r10]
 70003ca:	40 bd 00 05 	movhi	1280, r0, r10
 70003ce:	4a a1 00 00 	movea	0, r10, r10
 70003d2:	4a cd 00 00 	ld.w	0[r10],r10
 70003d6:	4a a5 26 00 	addi	38, r10, r10
 70003da:	0a d4 00 00 	st.h	r0, 0[r10]
 70003de:	40 bd 00 05 	movhi	1280, r0, r10
 70003e2:	4a a1 00 00 	movea	0, r10, r10
 70003e6:	4a cd 00 00 	ld.w	0[r10],r10
 70003ea:	4a a5 28 00 	addi	40, r10, r10
 70003ee:	0a d4 00 00 	st.h	r0, 0[r10]
 70003f2:	40 bd 00 05 	movhi	1280, r0, r10
 70003f6:	4a a1 00 00 	movea	0, r10, r10
 70003fa:	4a cd 00 00 	ld.w	0[r10],r10
 70003fe:	4a a5 60 00 	addi	96, r10, r10
 7000402:	60 a1 e4 00 	movea	228, r0, r11
 7000406:	6a d5 00 00 	st.h	r11, 0[r10]
 700040a:	40 bd 00 05 	movhi	1280, r0, r10
 700040e:	4a a1 00 00 	movea	0, r10, r10
 7000412:	4a cd 00 00 	ld.w	0[r10],r10
 7000416:	4a a5 62 00 	addi	98, r10, r10
 700041a:	60 a1 e4 00 	movea	228, r0, r11
 700041e:	6a d5 00 00 	st.h	r11, 0[r10]
 7000422:	40 bd 00 05 	movhi	1280, r0, r10
 7000426:	4a a1 00 00 	movea	0, r10, r10
 700042a:	4a cd 00 00 	ld.w	0[r10],r10
 700042e:	4a a5 64 00 	addi	100, r10, r10
 7000432:	60 a1 e4 00 	movea	228, r0, r11
 7000436:	6a d5 00 00 	st.h	r11, 0[r10]
 700043a:	40 bd 00 05 	movhi	1280, r0, r10
 700043e:	4a a1 00 00 	movea	0, r10, r10
 7000442:	4a cd 00 00 	ld.w	0[r10],r10
 7000446:	4a a5 66 00 	addi	102, r10, r10
 700044a:	60 a1 e4 00 	movea	228, r0, r11
 700044e:	6a d5 00 00 	st.h	r11, 0[r10]
 7000452:	40 bd 00 05 	movhi	1280, r0, r10
 7000456:	4a a1 00 00 	movea	0, r10, r10
 700045a:	4a cd 00 00 	ld.w	0[r10],r10
 700045e:	4a a5 68 00 	addi	104, r10, r10
 7000462:	60 a1 e4 00 	movea	228, r0, r11
 7000466:	6a d5 00 00 	st.h	r11, 0[r10]
 700046a:	40 bd 00 05 	movhi	1280, r0, r10
 700046e:	4a a1 00 00 	movea	0, r10, r10
 7000472:	4a cd 00 00 	ld.w	0[r10],r10
 7000476:	4a a5 6a 00 	addi	106, r10, r10
 700047a:	60 a1 e4 00 	movea	228, r0, r11
 700047e:	6a d5 00 00 	st.h	r11, 0[r10]
 7000482:	40 bd 00 05 	movhi	1280, r0, r10
 7000486:	4a a1 00 00 	movea	0, r10, r10
 700048a:	4a cd 00 00 	ld.w	0[r10],r10
 700048e:	4a a5 6c 00 	addi	108, r10, r10
 7000492:	60 a1 e4 00 	movea	228, r0, r11
 7000496:	6a d5 00 00 	st.h	r11, 0[r10]
 700049a:	40 bd 00 05 	movhi	1280, r0, r10
 700049e:	4a a1 00 00 	movea	0, r10, r10
 70004a2:	4a cd 00 00 	ld.w	0[r10],r10
 70004a6:	4a a5 6e 00 	addi	110, r10, r10
 70004aa:	60 a1 e4 00 	movea	228, r0, r11
 70004ae:	6a d5 00 00 	st.h	r11, 0[r10]
 70004b2:	40 bd 00 05 	movhi	1280, r0, r10
 70004b6:	4a a1 00 00 	movea	0, r10, r10
 70004ba:	4a cd 00 00 	ld.w	0[r10],r10
 70004be:	4a a5 70 00 	addi	112, r10, r10
 70004c2:	0a d4 00 00 	st.h	r0, 0[r10]
 70004c6:	1f 18       	jmp	[lp]

070004c8 <_vbDisplayOff>:
 70004c8:	40 bd 00 05 	movhi	1280, r0, r10
 70004cc:	4a a1 00 00 	movea	0, r10, r10
 70004d0:	4a cd 00 00 	ld.w	0[r10],r10
 70004d4:	4a a5 2a 00 	addi	42, r10, r10
 70004d8:	0a d4 00 00 	st.h	r0, 0[r10]
 70004dc:	40 bd 00 05 	movhi	1280, r0, r10
 70004e0:	4a a1 00 00 	movea	0, r10, r10
 70004e4:	4a cd 00 00 	ld.w	0[r10],r10
 70004e8:	4a a5 42 00 	addi	66, r10, r10
 70004ec:	0a d4 00 00 	st.h	r0, 0[r10]
 70004f0:	40 bd 00 05 	movhi	1280, r0, r10
 70004f4:	4a a1 00 00 	movea	0, r10, r10
 70004f8:	4a cd 00 00 	ld.w	0[r10],r10
 70004fc:	4a a5 22 00 	addi	34, r10, r10
 7000500:	0a d4 00 00 	st.h	r0, 0[r10]
 7000504:	40 bd 00 05 	movhi	1280, r0, r10
 7000508:	4a a1 00 00 	movea	0, r10, r10
 700050c:	4a cd 00 00 	ld.w	0[r10],r10
 7000510:	4a a5 2e 00 	addi	46, r10, r10
 7000514:	0a d4 00 00 	st.h	r0, 0[r10]
 7000518:	40 bd 00 05 	movhi	1280, r0, r10
 700051c:	4a a1 00 00 	movea	0, r10, r10
 7000520:	4a cd 00 00 	ld.w	0[r10],r10
 7000524:	44 45       	add	4, r10
 7000526:	60 bd 00 05 	movhi	1280, r0, r11
 700052a:	6b a1 00 00 	movea	0, r11, r11
 700052e:	6b cd 00 00 	ld.w	0[r11],r11
 7000532:	6b c5 00 00 	ld.h	0[r11],r11
 7000536:	6b b5 ff ff 	andi	65535, r11, r11
 700053a:	6a d5 00 00 	st.h	r11, 0[r10]
 700053e:	1f 18       	jmp	[lp]

07000540 <_vbDisplayShow>:
 7000540:	40 bd 00 05 	movhi	1280, r0, r10
 7000544:	4a a1 00 00 	movea	0, r10, r10
 7000548:	4a cd 00 00 	ld.w	0[r10],r10
 700054c:	4a a5 24 00 	addi	36, r10, r10
 7000550:	60 a1 20 00 	movea	32, r0, r11
 7000554:	6a d5 00 00 	st.h	r11, 0[r10]
 7000558:	40 bd 00 05 	movhi	1280, r0, r10
 700055c:	4a a1 00 00 	movea	0, r10, r10
 7000560:	4a cd 00 00 	ld.w	0[r10],r10
 7000564:	4a a5 26 00 	addi	38, r10, r10
 7000568:	60 a1 40 00 	movea	64, r0, r11
 700056c:	6a d5 00 00 	st.h	r11, 0[r10]
 7000570:	40 bd 00 05 	movhi	1280, r0, r10
 7000574:	4a a1 00 00 	movea	0, r10, r10
 7000578:	4a cd 00 00 	ld.w	0[r10],r10
 700057c:	4a a5 28 00 	addi	40, r10, r10
 7000580:	60 a1 20 00 	movea	32, r0, r11
 7000584:	6a d5 00 00 	st.h	r11, 0[r10]
 7000588:	1f 18       	jmp	[lp]
	...

0700058c <_vbDisplayHide>:
 700058c:	40 bd 00 05 	movhi	1280, r0, r10
 7000590:	4a a1 00 00 	movea	0, r10, r10
 7000594:	4a cd 00 00 	ld.w	0[r10],r10
 7000598:	4a a5 24 00 	addi	36, r10, r10
 700059c:	0a d4 00 00 	st.h	r0, 0[r10]
 70005a0:	40 bd 00 05 	movhi	1280, r0, r10
 70005a4:	4a a1 00 00 	movea	0, r10, r10
 70005a8:	4a cd 00 00 	ld.w	0[r10],r10
 70005ac:	4a a5 26 00 	addi	38, r10, r10
 70005b0:	0a d4 00 00 	st.h	r0, 0[r10]
 70005b4:	40 bd 00 05 	movhi	1280, r0, r10
 70005b8:	4a a1 00 00 	movea	0, r10, r10
 70005bc:	4a cd 00 00 	ld.w	0[r10],r10
 70005c0:	4a a5 28 00 	addi	40, r10, r10
 70005c4:	0a d4 00 00 	st.h	r0, 0[r10]
 70005c8:	1f 18       	jmp	[lp]
	...

070005cc <_vbFXFadeIn>:
 70005cc:	63 a4 e8 ff 	addi	-24, sp, sp
 70005d0:	e3 df 14 00 	st.w	lp, 20[sp]
 70005d4:	46 01       	mov	r6, r10
 70005d6:	43 d5 18 00 	st.h	r10, 24[sp]
 70005da:	03 d0 13 00 	st.b	r0, 19[sp]
 70005de:	80 8a       	br	700065e <_vbFXFadeIn+0x92>
 70005e0:	43 c5 18 00 	ld.h	24[sp],r10
 70005e4:	4a b5 ff ff 	andi	65535, r10, r10
 70005e8:	ca 00       	mov	r10, r6
 70005ea:	40 bd 00 07 	movhi	1792, r0, r10
 70005ee:	4a a1 90 02 	movea	656, r10, r10
 70005f2:	00 ac 04 00 	jal	70005f6 <_vbFXFadeIn+0x2a>
 70005f6:	e4 47       	add	4, lp
 70005f8:	0a 18       	jmp	[r10]
 70005fa:	40 bd 00 05 	movhi	1280, r0, r10
 70005fe:	4a a1 00 00 	movea	0, r10, r10
 7000602:	4a cd 00 00 	ld.w	0[r10],r10
 7000606:	4a a5 24 00 	addi	36, r10, r10
 700060a:	63 c1 13 00 	ld.b	19[sp],r11
 700060e:	6b b5 ff 00 	andi	255, r11, r11
 7000612:	6a d5 00 00 	st.h	r11, 0[r10]
 7000616:	40 bd 00 05 	movhi	1280, r0, r10
 700061a:	4a a1 00 00 	movea	0, r10, r10
 700061e:	4a cd 00 00 	ld.w	0[r10],r10
 7000622:	6a a5 26 00 	addi	38, r10, r11
 7000626:	43 c1 13 00 	ld.b	19[sp],r10
 700062a:	4a b5 ff 00 	andi	255, r10, r10
 700062e:	4a 05       	add	r10, r10
 7000630:	4a b5 ff ff 	andi	65535, r10, r10
 7000634:	4b d5 00 00 	st.h	r10, 0[r11]
 7000638:	40 bd 00 05 	movhi	1280, r0, r10
 700063c:	4a a1 00 00 	movea	0, r10, r10
 7000640:	4a cd 00 00 	ld.w	0[r10],r10
 7000644:	4a a5 28 00 	addi	40, r10, r10
 7000648:	63 c1 13 00 	ld.b	19[sp],r11
 700064c:	6b b5 ff 00 	andi	255, r11, r11
 7000650:	6a d5 00 00 	st.h	r11, 0[r10]
 7000654:	43 c1 13 00 	ld.b	19[sp],r10
 7000658:	41 45       	add	1, r10
 700065a:	43 d1 13 00 	st.b	r10, 19[sp]
 700065e:	43 c1 13 00 	ld.b	19[sp],r10
 7000662:	6a b5 ff 00 	andi	255, r10, r11
 7000666:	40 a1 20 00 	movea	32, r0, r10
 700066a:	6a 0d       	cmp	r10, r11
 700066c:	74 87       	bnh	70005e0 <_vbFXFadeIn+0x14>
 700066e:	e3 cf 14 00 	ld.w	20[sp],lp
 7000672:	63 a4 18 00 	addi	24, sp, sp
 7000676:	1f 18       	jmp	[lp]

07000678 <_vbFXFadeOut>:
 7000678:	63 a4 e8 ff 	addi	-24, sp, sp
 700067c:	e3 df 14 00 	st.w	lp, 20[sp]
 7000680:	46 01       	mov	r6, r10
 7000682:	43 d5 18 00 	st.h	r10, 24[sp]
 7000686:	40 a1 20 00 	movea	32, r0, r10
 700068a:	43 d1 13 00 	st.b	r10, 19[sp]
 700068e:	88 8a       	br	7000716 <_vbFXFadeOut+0x9e>
 7000690:	43 c5 18 00 	ld.h	24[sp],r10
 7000694:	4a b5 ff ff 	andi	65535, r10, r10
 7000698:	ca 00       	mov	r10, r6
 700069a:	40 bd 00 07 	movhi	1792, r0, r10
 700069e:	4a a1 90 02 	movea	656, r10, r10
 70006a2:	00 ac 04 00 	jal	70006a6 <_vbFXFadeOut+0x2e>
 70006a6:	e4 47       	add	4, lp
 70006a8:	0a 18       	jmp	[r10]
 70006aa:	40 bd 00 05 	movhi	1280, r0, r10
 70006ae:	4a a1 00 00 	movea	0, r10, r10
 70006b2:	4a cd 00 00 	ld.w	0[r10],r10
 70006b6:	4a a5 24 00 	addi	36, r10, r10
 70006ba:	63 c1 13 00 	ld.b	19[sp],r11
 70006be:	78 51       	shl	24, r11
 70006c0:	78 5d       	sar	24, r11
 70006c2:	6b b5 ff ff 	andi	65535, r11, r11
 70006c6:	6a d5 00 00 	st.h	r11, 0[r10]
 70006ca:	40 bd 00 05 	movhi	1280, r0, r10
 70006ce:	4a a1 00 00 	movea	0, r10, r10
 70006d2:	4a cd 00 00 	ld.w	0[r10],r10
 70006d6:	6a a5 26 00 	addi	38, r10, r11
 70006da:	43 c1 13 00 	ld.b	19[sp],r10
 70006de:	58 51       	shl	24, r10
 70006e0:	58 5d       	sar	24, r10
 70006e2:	4a 05       	add	r10, r10
 70006e4:	4a b5 ff ff 	andi	65535, r10, r10
 70006e8:	4b d5 00 00 	st.h	r10, 0[r11]
 70006ec:	40 bd 00 05 	movhi	1280, r0, r10
 70006f0:	4a a1 00 00 	movea	0, r10, r10
 70006f4:	4a cd 00 00 	ld.w	0[r10],r10
 70006f8:	4a a5 28 00 	addi	40, r10, r10
 70006fc:	63 c1 13 00 	ld.b	19[sp],r11
 7000700:	78 51       	shl	24, r11
 7000702:	78 5d       	sar	24, r11
 7000704:	6b b5 ff ff 	andi	65535, r11, r11
 7000708:	6a d5 00 00 	st.h	r11, 0[r10]
 700070c:	43 c1 13 00 	ld.b	19[sp],r10
 7000710:	5f 45       	add	-1, r10
 7000712:	43 d1 13 00 	st.b	r10, 19[sp]
 7000716:	43 c1 13 00 	ld.b	19[sp],r10
 700071a:	58 51       	shl	24, r10
 700071c:	58 5d       	sar	24, r10
 700071e:	40 0d       	cmp	r0, r10
 7000720:	70 9d       	bge	7000690 <_vbFXFadeOut+0x18>
 7000722:	e3 cf 14 00 	ld.w	20[sp],lp
 7000726:	63 a4 18 00 	addi	24, sp, sp
 700072a:	1f 18       	jmp	[lp]

0700072c <_vbSetColTable>:
 700072c:	7c 44       	add	-4, sp
 700072e:	03 d0 03 00 	st.b	r0, 3[sp]
 7000732:	00 a8 06 01 	jr	7000838 <_vbSetColTable+0x10c>
 7000736:	40 bd 00 07 	movhi	1792, r0, r10
 700073a:	4a a1 f0 46 	movea	18160, r10, r10
 700073e:	6a cd 00 00 	ld.w	0[r10],r11
 7000742:	43 c1 03 00 	ld.b	3[sp],r10
 7000746:	4a b5 ff 00 	andi	255, r10, r10
 700074a:	4a 05       	add	r10, r10
 700074c:	4b 05       	add	r11, r10
 700074e:	60 bd 00 07 	movhi	1792, r0, r11
 7000752:	8b a1 f8 46 	movea	18168, r11, r12
 7000756:	63 c1 03 00 	ld.b	3[sp],r11
 700075a:	6b b5 ff 00 	andi	255, r11, r11
 700075e:	6c 05       	add	r12, r11
 7000760:	6b c1 00 00 	ld.b	0[r11],r11
 7000764:	6b b5 ff 00 	andi	255, r11, r11
 7000768:	6a d5 00 00 	st.h	r11, 0[r10]
 700076c:	40 bd 00 07 	movhi	1792, r0, r10
 7000770:	4a a1 f0 46 	movea	18160, r10, r10
 7000774:	6a cd 00 00 	ld.w	0[r10],r11
 7000778:	43 c1 03 00 	ld.b	3[sp],r10
 700077c:	4a b5 ff 00 	andi	255, r10, r10
 7000780:	4a a5 00 01 	addi	256, r10, r10
 7000784:	4a 05       	add	r10, r10
 7000786:	4b 05       	add	r11, r10
 7000788:	60 bd 00 07 	movhi	1792, r0, r11
 700078c:	8b a1 f8 46 	movea	18168, r11, r12
 7000790:	63 c1 03 00 	ld.b	3[sp],r11
 7000794:	6b b5 ff 00 	andi	255, r11, r11
 7000798:	6c 05       	add	r12, r11
 700079a:	6b c1 00 00 	ld.b	0[r11],r11
 700079e:	6b b5 ff 00 	andi	255, r11, r11
 70007a2:	6a d5 00 00 	st.h	r11, 0[r10]
 70007a6:	40 bd 00 07 	movhi	1792, r0, r10
 70007aa:	4a a1 f0 46 	movea	18160, r10, r10
 70007ae:	6a cd 00 00 	ld.w	0[r10],r11
 70007b2:	43 c1 03 00 	ld.b	3[sp],r10
 70007b6:	4a b5 ff 00 	andi	255, r10, r10
 70007ba:	4a a5 80 00 	addi	128, r10, r10
 70007be:	4a 05       	add	r10, r10
 70007c0:	4b 05       	add	r11, r10
 70007c2:	63 c1 03 00 	ld.b	3[sp],r11
 70007c6:	6b b5 ff 00 	andi	255, r11, r11
 70007ca:	80 a1 7f 00 	movea	127, r0, r12
 70007ce:	ac 01       	mov	r12, r13
 70007d0:	ab 09       	sub	r11, r13
 70007d2:	6d 01       	mov	r13, r11
 70007d4:	80 bd 00 07 	movhi	1792, r0, r12
 70007d8:	8c a1 f8 46 	movea	18168, r12, r12
 70007dc:	6c 05       	add	r12, r11
 70007de:	6b c1 00 00 	ld.b	0[r11],r11
 70007e2:	6b b5 ff 00 	andi	255, r11, r11
 70007e6:	6a d5 00 00 	st.h	r11, 0[r10]
 70007ea:	40 bd 00 07 	movhi	1792, r0, r10
 70007ee:	4a a1 f0 46 	movea	18160, r10, r10
 70007f2:	6a cd 00 00 	ld.w	0[r10],r11
 70007f6:	43 c1 03 00 	ld.b	3[sp],r10
 70007fa:	4a b5 ff 00 	andi	255, r10, r10
 70007fe:	4a a5 80 01 	addi	384, r10, r10
 7000802:	4a 05       	add	r10, r10
 7000804:	4b 05       	add	r11, r10
 7000806:	63 c1 03 00 	ld.b	3[sp],r11
 700080a:	6b b5 ff 00 	andi	255, r11, r11
 700080e:	80 a1 7f 00 	movea	127, r0, r12
 7000812:	ac 01       	mov	r12, r13
 7000814:	ab 09       	sub	r11, r13
 7000816:	6d 01       	mov	r13, r11
 7000818:	80 bd 00 07 	movhi	1792, r0, r12
 700081c:	8c a1 f8 46 	movea	18168, r12, r12
 7000820:	6c 05       	add	r12, r11
 7000822:	6b c1 00 00 	ld.b	0[r11],r11
 7000826:	6b b5 ff 00 	andi	255, r11, r11
 700082a:	6a d5 00 00 	st.h	r11, 0[r10]
 700082e:	43 c1 03 00 	ld.b	3[sp],r10
 7000832:	41 45       	add	1, r10
 7000834:	43 d1 03 00 	st.b	r10, 3[sp]
 7000838:	43 c1 03 00 	ld.b	3[sp],r10
 700083c:	58 51       	shl	24, r10
 700083e:	58 5d       	sar	24, r10
 7000840:	40 0d       	cmp	r0, r10
 7000842:	06 8c       	blt	7000848 <_vbSetColTable+0x11c>
 7000844:	ff ab f2 fe 	jr	7000736 <_vbSetColTable+0xa>
 7000848:	64 44       	add	4, sp
 700084a:	1f 18       	jmp	[lp]

0700084c <_affine_clr_param>:
 700084c:	74 44       	add	-12, sp
 700084e:	46 01       	mov	r6, r10
 7000850:	43 d1 0c 00 	st.b	r10, 12[sp]
 7000854:	43 c1 0c 00 	ld.b	12[sp],r10
 7000858:	4a b5 ff 00 	andi	255, r10, r10
 700085c:	44 51       	shl	4, r10
 700085e:	43 dd 04 00 	st.w	r10, 4[sp]
 7000862:	40 bd 00 07 	movhi	1792, r0, r10
 7000866:	4a a1 ec 46 	movea	18156, r10, r10
 700086a:	6a cd 00 00 	ld.w	0[r10],r11
 700086e:	43 cd 04 00 	ld.w	4[sp],r10
 7000872:	49 45       	add	9, r10
 7000874:	4a 05       	add	r10, r10
 7000876:	4b 05       	add	r11, r10
 7000878:	4a c5 00 00 	ld.h	0[r10],r10
 700087c:	4a b5 ff ff 	andi	65535, r10, r10
 7000880:	4a 05       	add	r10, r10
 7000882:	60 bd 02 00 	movhi	2, r0, r11
 7000886:	4b 05       	add	r11, r10
 7000888:	43 dd 08 00 	st.w	r10, 8[sp]
 700088c:	03 dc 00 00 	st.w	r0, 0[sp]
 7000890:	1c 8a       	br	70008ac <_affine_clr_param+0x60>
 7000892:	43 cd 00 00 	ld.w	0[sp],r10
 7000896:	4a 05       	add	r10, r10
 7000898:	63 cd 08 00 	ld.w	8[sp],r11
 700089c:	4b 05       	add	r11, r10
 700089e:	0a d4 00 00 	st.h	r0, 0[r10]
 70008a2:	43 cd 00 00 	ld.w	0[sp],r10
 70008a6:	41 45       	add	1, r10
 70008a8:	43 dd 00 00 	st.w	r10, 0[sp]
 70008ac:	40 bd 00 07 	movhi	1792, r0, r10
 70008b0:	4a a1 ec 46 	movea	18156, r10, r10
 70008b4:	6a cd 00 00 	ld.w	0[r10],r11
 70008b8:	43 cd 04 00 	ld.w	4[sp],r10
 70008bc:	48 45       	add	8, r10
 70008be:	4a 05       	add	r10, r10
 70008c0:	4b 05       	add	r11, r10
 70008c2:	4a c5 00 00 	ld.h	0[r10],r10
 70008c6:	4a b5 ff ff 	andi	65535, r10, r10
 70008ca:	43 51       	shl	3, r10
 70008cc:	63 cd 00 00 	ld.w	0[sp],r11
 70008d0:	4b 0d       	cmp	r11, r10
 70008d2:	c0 9f       	bgt	7000892 <_affine_clr_param+0x46>
 70008d4:	6c 44       	add	12, sp
 70008d6:	1f 18       	jmp	[lp]

070008d8 <_affine_scale>:
 70008d8:	63 a4 e4 ff 	addi	-28, sp, sp
 70008dc:	c6 01       	mov	r6, r14
 70008de:	a7 01       	mov	r7, r13
 70008e0:	88 01       	mov	r8, r12
 70008e2:	69 01       	mov	r9, r11
 70008e4:	43 cd 2c 00 	ld.w	44[sp],r10
 70008e8:	c3 d1 1c 00 	st.b	r14, 28[sp]
 70008ec:	a3 d5 20 00 	st.h	r13, 32[sp]
 70008f0:	83 d5 24 00 	st.h	r12, 36[sp]
 70008f4:	63 d5 28 00 	st.h	r11, 40[sp]
 70008f8:	43 d5 00 00 	st.h	r10, 0[sp]
 70008fc:	43 c1 1c 00 	ld.b	28[sp],r10
 7000900:	4a b5 ff 00 	andi	255, r10, r10
 7000904:	44 51       	shl	4, r10
 7000906:	43 dd 08 00 	st.w	r10, 8[sp]
 700090a:	40 bd 00 07 	movhi	1792, r0, r10
 700090e:	4a a1 ec 46 	movea	18156, r10, r10
 7000912:	6a cd 00 00 	ld.w	0[r10],r11
 7000916:	43 cd 08 00 	ld.w	8[sp],r10
 700091a:	49 45       	add	9, r10
 700091c:	4a 05       	add	r10, r10
 700091e:	4b 05       	add	r11, r10
 7000920:	4a c5 00 00 	ld.h	0[r10],r10
 7000924:	4a b5 ff ff 	andi	65535, r10, r10
 7000928:	4a 05       	add	r10, r10
 700092a:	60 bd 02 00 	movhi	2, r0, r11
 700092e:	4b 05       	add	r11, r10
 7000930:	43 dd 0c 00 	st.w	r10, 12[sp]
 7000934:	63 cd 30 00 	ld.w	48[sp],r11
 7000938:	40 bd 00 44 	movhi	17408, r0, r10
 700093c:	4b f9 00 18 	mulf.s	r11, r10
 7000940:	4a f9 00 0c 	.long	0x0c00f94a
 7000944:	60 bd 04 00 	movhi	4, r0, r11
 7000948:	8b 01       	mov	r11, r12
 700094a:	8a 25       	div	r10, r12
 700094c:	4c 01       	mov	r12, r10
 700094e:	43 d5 14 00 	st.h	r10, 20[sp]
 7000952:	63 cd 34 00 	ld.w	52[sp],r11
 7000956:	40 bd 00 44 	movhi	17408, r0, r10
 700095a:	4b f9 00 18 	mulf.s	r11, r10
 700095e:	4a f9 00 0c 	.long	0x0c00f94a
 7000962:	60 bd 04 00 	movhi	4, r0, r11
 7000966:	ab 01       	mov	r11, r13
 7000968:	aa 25       	div	r10, r13
 700096a:	4d 01       	mov	r13, r10
 700096c:	43 d5 16 00 	st.h	r10, 22[sp]
 7000970:	43 c5 20 00 	ld.h	32[sp],r10
 7000974:	50 51       	shl	16, r10
 7000976:	50 5d       	sar	16, r10
 7000978:	4a f9 00 08 	.long	0x0800f94a
 700097c:	63 c5 28 00 	ld.h	40[sp],r11
 7000980:	6b b5 ff ff 	andi	65535, r11, r11
 7000984:	8b f9 00 08 	.long	0x0800f98b
 7000988:	63 cd 30 00 	ld.w	48[sp],r11
 700098c:	8b f9 00 18 	mulf.s	r11, r12
 7000990:	60 bd 00 c0 	movhi	-16384, r0, r11
 7000994:	ac 01       	mov	r12, r13
 7000996:	ab f9 00 1c 	divf.s	r11, r13
 700099a:	6d 01       	mov	r13, r11
 700099c:	4b f9 00 10 	addf.s	r11, r10
 70009a0:	63 cd 30 00 	ld.w	48[sp],r11
 70009a4:	4b f9 00 1c 	divf.s	r11, r10
 70009a8:	60 bd 00 41 	movhi	16640, r0, r11
 70009ac:	4b f9 00 18 	mulf.s	r11, r10
 70009b0:	4a f9 00 0c 	.long	0x0c00f94a
 70009b4:	4a 3d       	not	r10, r10
 70009b6:	41 45       	add	1, r10
 70009b8:	43 d5 12 00 	st.h	r10, 18[sp]
 70009bc:	43 c5 24 00 	ld.h	36[sp],r10
 70009c0:	50 51       	shl	16, r10
 70009c2:	50 5d       	sar	16, r10
 70009c4:	4a f9 00 08 	.long	0x0800f94a
 70009c8:	63 c5 00 00 	ld.h	0[sp],r11
 70009cc:	6b b5 ff ff 	andi	65535, r11, r11
 70009d0:	8b f9 00 08 	.long	0x0800f98b
 70009d4:	63 cd 34 00 	ld.w	52[sp],r11
 70009d8:	8b f9 00 18 	mulf.s	r11, r12
 70009dc:	60 bd 00 c0 	movhi	-16384, r0, r11
 70009e0:	ac 01       	mov	r12, r13
 70009e2:	ab f9 00 1c 	divf.s	r11, r13
 70009e6:	6d 01       	mov	r13, r11
 70009e8:	4b f9 00 10 	addf.s	r11, r10
 70009ec:	63 cd 34 00 	ld.w	52[sp],r11
 70009f0:	4b f9 00 1c 	divf.s	r11, r10
 70009f4:	60 bd 00 44 	movhi	17408, r0, r11
 70009f8:	4b f9 00 18 	mulf.s	r11, r10
 70009fc:	4a f9 00 0c 	.long	0x0c00f94a
 7000a00:	4a 3d       	not	r10, r10
 7000a02:	41 45       	add	1, r10
 7000a04:	43 dd 18 00 	st.w	r10, 24[sp]
 7000a08:	03 dc 04 00 	st.w	r0, 4[sp]
 7000a0c:	88 8a       	br	7000a94 <_affine_scale+0x1bc>
 7000a0e:	43 cd 04 00 	ld.w	4[sp],r10
 7000a12:	4a 05       	add	r10, r10
 7000a14:	63 cd 0c 00 	ld.w	12[sp],r11
 7000a18:	4b 05       	add	r11, r10
 7000a1a:	63 c5 12 00 	ld.h	18[sp],r11
 7000a1e:	6a d5 00 00 	st.h	r11, 0[r10]
 7000a22:	43 cd 04 00 	ld.w	4[sp],r10
 7000a26:	41 45       	add	1, r10
 7000a28:	43 dd 04 00 	st.w	r10, 4[sp]
 7000a2c:	43 cd 04 00 	ld.w	4[sp],r10
 7000a30:	41 45       	add	1, r10
 7000a32:	43 dd 04 00 	st.w	r10, 4[sp]
 7000a36:	43 cd 04 00 	ld.w	4[sp],r10
 7000a3a:	4a 05       	add	r10, r10
 7000a3c:	63 cd 0c 00 	ld.w	12[sp],r11
 7000a40:	4b 05       	add	r11, r10
 7000a42:	63 cd 18 00 	ld.w	24[sp],r11
 7000a46:	66 5d       	sar	6, r11
 7000a48:	70 51       	shl	16, r11
 7000a4a:	70 5d       	sar	16, r11
 7000a4c:	6a d5 00 00 	st.h	r11, 0[r10]
 7000a50:	43 cd 04 00 	ld.w	4[sp],r10
 7000a54:	41 45       	add	1, r10
 7000a56:	43 dd 04 00 	st.w	r10, 4[sp]
 7000a5a:	43 cd 04 00 	ld.w	4[sp],r10
 7000a5e:	4a 05       	add	r10, r10
 7000a60:	63 cd 0c 00 	ld.w	12[sp],r11
 7000a64:	4b 05       	add	r11, r10
 7000a66:	63 c5 14 00 	ld.h	20[sp],r11
 7000a6a:	6a d5 00 00 	st.h	r11, 0[r10]
 7000a6e:	43 cd 04 00 	ld.w	4[sp],r10
 7000a72:	41 45       	add	1, r10
 7000a74:	43 dd 04 00 	st.w	r10, 4[sp]
 7000a78:	43 cd 04 00 	ld.w	4[sp],r10
 7000a7c:	44 45       	add	4, r10
 7000a7e:	43 dd 04 00 	st.w	r10, 4[sp]
 7000a82:	43 c5 16 00 	ld.h	22[sp],r10
 7000a86:	50 51       	shl	16, r10
 7000a88:	50 5d       	sar	16, r10
 7000a8a:	63 cd 18 00 	ld.w	24[sp],r11
 7000a8e:	4b 05       	add	r11, r10
 7000a90:	43 dd 18 00 	st.w	r10, 24[sp]
 7000a94:	40 bd 00 07 	movhi	1792, r0, r10
 7000a98:	4a a1 ec 46 	movea	18156, r10, r10
 7000a9c:	6a cd 00 00 	ld.w	0[r10],r11
 7000aa0:	43 cd 08 00 	ld.w	8[sp],r10
 7000aa4:	48 45       	add	8, r10
 7000aa6:	4a 05       	add	r10, r10
 7000aa8:	4b 05       	add	r11, r10
 7000aaa:	4a c5 00 00 	ld.h	0[r10],r10
 7000aae:	4a b5 ff ff 	andi	65535, r10, r10
 7000ab2:	43 51       	shl	3, r10
 7000ab4:	63 cd 04 00 	ld.w	4[sp],r11
 7000ab8:	4b 0d       	cmp	r11, r10
 7000aba:	54 9f       	bgt	7000a0e <_affine_scale+0x136>
 7000abc:	63 a4 1c 00 	addi	28, sp, sp
 7000ac0:	1f 18       	jmp	[lp]
	...

07000ac4 <_affine_fast_scale>:
 7000ac4:	63 a4 ec ff 	addi	-20, sp, sp
 7000ac8:	46 01       	mov	r6, r10
 7000aca:	e3 dc 18 00 	st.w	r7, 24[sp]
 7000ace:	43 d1 14 00 	st.b	r10, 20[sp]
 7000ad2:	43 c1 14 00 	ld.b	20[sp],r10
 7000ad6:	4a b5 ff 00 	andi	255, r10, r10
 7000ada:	44 51       	shl	4, r10
 7000adc:	43 dd 04 00 	st.w	r10, 4[sp]
 7000ae0:	40 bd 00 07 	movhi	1792, r0, r10
 7000ae4:	4a a1 ec 46 	movea	18156, r10, r10
 7000ae8:	6a cd 00 00 	ld.w	0[r10],r11
 7000aec:	43 cd 04 00 	ld.w	4[sp],r10
 7000af0:	49 45       	add	9, r10
 7000af2:	4a 05       	add	r10, r10
 7000af4:	4b 05       	add	r11, r10
 7000af6:	4a c5 00 00 	ld.h	0[r10],r10
 7000afa:	4a b5 ff ff 	andi	65535, r10, r10
 7000afe:	4a 05       	add	r10, r10
 7000b00:	60 bd 02 00 	movhi	2, r0, r11
 7000b04:	4b 05       	add	r11, r10
 7000b06:	43 dd 08 00 	st.w	r10, 8[sp]
 7000b0a:	63 cd 18 00 	ld.w	24[sp],r11
 7000b0e:	40 bd 00 44 	movhi	17408, r0, r10
 7000b12:	4b f9 00 18 	mulf.s	r11, r10
 7000b16:	4a f9 00 0c 	.long	0x0c00f94a
 7000b1a:	60 bd 04 00 	movhi	4, r0, r11
 7000b1e:	8b 01       	mov	r11, r12
 7000b20:	8a 25       	div	r10, r12
 7000b22:	4c 01       	mov	r12, r10
 7000b24:	43 d5 0e 00 	st.h	r10, 14[sp]
 7000b28:	43 c5 0e 00 	ld.h	14[sp],r10
 7000b2c:	43 d5 0c 00 	st.h	r10, 12[sp]
 7000b30:	03 dc 10 00 	st.w	r0, 16[sp]
 7000b34:	03 dc 00 00 	st.w	r0, 0[sp]
 7000b38:	84 8a       	br	7000bbc <_affine_fast_scale+0xf8>
 7000b3a:	43 cd 00 00 	ld.w	0[sp],r10
 7000b3e:	4a 05       	add	r10, r10
 7000b40:	63 cd 08 00 	ld.w	8[sp],r11
 7000b44:	4b 05       	add	r11, r10
 7000b46:	0a d4 00 00 	st.h	r0, 0[r10]
 7000b4a:	43 cd 00 00 	ld.w	0[sp],r10
 7000b4e:	41 45       	add	1, r10
 7000b50:	43 dd 00 00 	st.w	r10, 0[sp]
 7000b54:	43 cd 00 00 	ld.w	0[sp],r10
 7000b58:	41 45       	add	1, r10
 7000b5a:	43 dd 00 00 	st.w	r10, 0[sp]
 7000b5e:	43 cd 00 00 	ld.w	0[sp],r10
 7000b62:	4a 05       	add	r10, r10
 7000b64:	63 cd 08 00 	ld.w	8[sp],r11
 7000b68:	4b 05       	add	r11, r10
 7000b6a:	63 cd 10 00 	ld.w	16[sp],r11
 7000b6e:	66 5d       	sar	6, r11
 7000b70:	70 51       	shl	16, r11
 7000b72:	70 5d       	sar	16, r11
 7000b74:	6a d5 00 00 	st.h	r11, 0[r10]
 7000b78:	43 cd 00 00 	ld.w	0[sp],r10
 7000b7c:	41 45       	add	1, r10
 7000b7e:	43 dd 00 00 	st.w	r10, 0[sp]
 7000b82:	43 cd 00 00 	ld.w	0[sp],r10
 7000b86:	4a 05       	add	r10, r10
 7000b88:	63 cd 08 00 	ld.w	8[sp],r11
 7000b8c:	4b 05       	add	r11, r10
 7000b8e:	63 c5 0c 00 	ld.h	12[sp],r11
 7000b92:	6a d5 00 00 	st.h	r11, 0[r10]
 7000b96:	43 cd 00 00 	ld.w	0[sp],r10
 7000b9a:	41 45       	add	1, r10
 7000b9c:	43 dd 00 00 	st.w	r10, 0[sp]
 7000ba0:	43 cd 00 00 	ld.w	0[sp],r10
 7000ba4:	44 45       	add	4, r10
 7000ba6:	43 dd 00 00 	st.w	r10, 0[sp]
 7000baa:	43 c5 0e 00 	ld.h	14[sp],r10
 7000bae:	50 51       	shl	16, r10
 7000bb0:	50 5d       	sar	16, r10
 7000bb2:	63 cd 10 00 	ld.w	16[sp],r11
 7000bb6:	4b 05       	add	r11, r10
 7000bb8:	43 dd 10 00 	st.w	r10, 16[sp]
 7000bbc:	40 bd 00 07 	movhi	1792, r0, r10
 7000bc0:	4a a1 ec 46 	movea	18156, r10, r10
 7000bc4:	6a cd 00 00 	ld.w	0[r10],r11
 7000bc8:	43 cd 04 00 	ld.w	4[sp],r10
 7000bcc:	48 45       	add	8, r10
 7000bce:	4a 05       	add	r10, r10
 7000bd0:	4b 05       	add	r11, r10
 7000bd2:	4a c5 00 00 	ld.h	0[r10],r10
 7000bd6:	4a b5 ff ff 	andi	65535, r10, r10
 7000bda:	43 51       	shl	3, r10
 7000bdc:	63 cd 00 00 	ld.w	0[sp],r11
 7000be0:	4b 0d       	cmp	r11, r10
 7000be2:	58 9f       	bgt	7000b3a <_affine_fast_scale+0x76>
 7000be4:	63 a4 14 00 	addi	20, sp, sp
 7000be8:	1f 18       	jmp	[lp]
	...

07000bec <_set_intlevel>:
 7000bec:	46 01       	mov	r6, r10
 7000bee:	43 d1 00 00 	st.b	r10, 0[sp]
 7000bf2:	43 c1 00 00 	ld.b	0[sp],r10
 7000bf6:	a5 74       	stsr	psw, r5
 7000bf8:	c0 bc f1 ff 	movhi	-15, r0, r6
 7000bfc:	c6 a0 ff ff 	movea	-1, r6, r6
 7000c00:	c5 34       	and	r5, r6
 7000c02:	aa 00       	mov	r10, r5
 7000c04:	a5 b4 0f 00 	andi	15, r5, r5
 7000c08:	b0 50       	shl	16, r5
 7000c0a:	a6 30       	or	r6, r5
 7000c0c:	a5 70       	ldsr	r5, psw
 7000c0e:	1f 18       	jmp	[lp]

07000c10 <_get_intlevel>:
 7000c10:	7c 44       	add	-4, sp
 7000c12:	a5 74       	stsr	psw, r5
 7000c14:	b0 54       	shr	16, r5
 7000c16:	a5 b4 0f 00 	andi	15, r5, r5
 7000c1a:	45 01       	mov	r5, r10
 7000c1c:	43 dd 00 00 	st.w	r10, 0[sp]
 7000c20:	43 cd 00 00 	ld.w	0[sp],r10
 7000c24:	64 44       	add	4, sp
 7000c26:	1f 18       	jmp	[lp]

07000c28 <_vbReadPad>:
 7000c28:	40 bd 00 07 	movhi	1792, r0, r10
 7000c2c:	4a a1 a8 47 	movea	18344, r10, r10
 7000c30:	4a cd 00 00 	ld.w	0[r10],r10
 7000c34:	4a a5 28 00 	addi	40, r10, r10
 7000c38:	60 a1 84 ff 	movea	-124, r0, r11
 7000c3c:	6a d1 00 00 	st.b	r11, 0[r10]
 7000c40:	40 bd 00 07 	movhi	1792, r0, r10
 7000c44:	4a a1 a8 47 	movea	18344, r10, r10
 7000c48:	4a cd 00 00 	ld.w	0[r10],r10
 7000c4c:	4a c1 28 00 	ld.b	40[r10],r10
 7000c50:	4a b5 ff 00 	andi	255, r10, r10
 7000c54:	4a b5 02 00 	andi	2, r10, r10
 7000c58:	40 0d       	cmp	r0, r10
 7000c5a:	e6 95       	bne	7000c40 <_vbReadPad+0x18>
 7000c5c:	40 bd 00 07 	movhi	1792, r0, r10
 7000c60:	4a a1 a8 47 	movea	18344, r10, r10
 7000c64:	4a cd 00 00 	ld.w	0[r10],r10
 7000c68:	4a c1 14 00 	ld.b	20[r10],r10
 7000c6c:	4a b5 ff 00 	andi	255, r10, r10
 7000c70:	48 51       	shl	8, r10
 7000c72:	60 bd 00 07 	movhi	1792, r0, r11
 7000c76:	6b a1 a8 47 	movea	18344, r11, r11
 7000c7a:	6b cd 00 00 	ld.w	0[r11],r11
 7000c7e:	6b c1 10 00 	ld.b	16[r11],r11
 7000c82:	8b b5 ff 00 	andi	255, r11, r12
 7000c86:	6a 01       	mov	r10, r11
 7000c88:	4c 01       	mov	r12, r10
 7000c8a:	4b 31       	or	r11, r10
 7000c8c:	4a b5 ff ff 	andi	65535, r10, r10
 7000c90:	1f 18       	jmp	[lp]
	...

07000c94 <_vbPadKeyDown>:
 7000c94:	63 a4 e8 ff 	addi	-24, sp, sp
 7000c98:	e3 df 14 00 	st.w	lp, 20[sp]
 7000c9c:	40 bd 00 07 	movhi	1792, r0, r10
 7000ca0:	4a a1 28 0c 	movea	3112, r10, r10
 7000ca4:	00 ac 04 00 	jal	7000ca8 <_vbPadKeyDown+0x14>
 7000ca8:	e4 47       	add	4, lp
 7000caa:	0a 18       	jmp	[r10]
 7000cac:	4a b5 ff ff 	andi	65535, r10, r10
 7000cb0:	7c 41       	mov	-4, r11
 7000cb2:	4b 35       	and	r11, r10
 7000cb4:	43 d5 10 00 	st.h	r10, 16[sp]
 7000cb8:	40 bd 00 05 	movhi	1280, r0, r10
 7000cbc:	4a a1 3c 00 	movea	60, r10, r10
 7000cc0:	4a c5 00 00 	ld.h	0[r10],r10
 7000cc4:	4a b5 ff ff 	andi	65535, r10, r10
 7000cc8:	4a 3d       	not	r10, r10
 7000cca:	6a 01       	mov	r10, r11
 7000ccc:	43 c5 10 00 	ld.h	16[sp],r10
 7000cd0:	4b 35       	and	r11, r10
 7000cd2:	43 d5 12 00 	st.h	r10, 18[sp]
 7000cd6:	40 bd 00 05 	movhi	1280, r0, r10
 7000cda:	4a a1 3c 00 	movea	60, r10, r10
 7000cde:	63 c5 10 00 	ld.h	16[sp],r11
 7000ce2:	6a d5 00 00 	st.h	r11, 0[r10]
 7000ce6:	43 c5 12 00 	ld.h	18[sp],r10
 7000cea:	4a b5 ff ff 	andi	65535, r10, r10
 7000cee:	e3 cf 14 00 	ld.w	20[sp],lp
 7000cf2:	63 a4 18 00 	addi	24, sp, sp
 7000cf6:	1f 18       	jmp	[lp]

07000cf8 <_vbPadKeyUp>:
 7000cf8:	63 a4 e8 ff 	addi	-24, sp, sp
 7000cfc:	e3 df 14 00 	st.w	lp, 20[sp]
 7000d00:	40 bd 00 07 	movhi	1792, r0, r10
 7000d04:	4a a1 28 0c 	movea	3112, r10, r10
 7000d08:	00 ac 04 00 	jal	7000d0c <_vbPadKeyUp+0x14>
 7000d0c:	e4 47       	add	4, lp
 7000d0e:	0a 18       	jmp	[r10]
 7000d10:	4a b5 ff ff 	andi	65535, r10, r10
 7000d14:	7c 41       	mov	-4, r11
 7000d16:	4b 35       	and	r11, r10
 7000d18:	43 d5 10 00 	st.h	r10, 16[sp]
 7000d1c:	40 bd 00 05 	movhi	1280, r0, r10
 7000d20:	4a a1 3e 00 	movea	62, r10, r10
 7000d24:	4a c5 00 00 	ld.h	0[r10],r10
 7000d28:	4a b5 ff ff 	andi	65535, r10, r10
 7000d2c:	63 c5 10 00 	ld.h	16[sp],r11
 7000d30:	6b 3d       	not	r11, r11
 7000d32:	4b 35       	and	r11, r10
 7000d34:	43 d5 12 00 	st.h	r10, 18[sp]
 7000d38:	40 bd 00 05 	movhi	1280, r0, r10
 7000d3c:	4a a1 3e 00 	movea	62, r10, r10
 7000d40:	63 c5 10 00 	ld.h	16[sp],r11
 7000d44:	6a d5 00 00 	st.h	r11, 0[r10]
 7000d48:	43 c5 12 00 	ld.h	18[sp],r10
 7000d4c:	4a b5 ff ff 	andi	65535, r10, r10
 7000d50:	e3 cf 14 00 	ld.w	20[sp],lp
 7000d54:	63 a4 18 00 	addi	24, sp, sp
 7000d58:	1f 18       	jmp	[lp]
	...

07000d5c <_copymem>:
 7000d5c:	7c 44       	add	-4, sp
 7000d5e:	c3 dc 04 00 	st.w	r6, 4[sp]
 7000d62:	e3 dc 08 00 	st.w	r7, 8[sp]
 7000d66:	48 01       	mov	r8, r10
 7000d68:	43 d5 0c 00 	st.h	r10, 12[sp]
 7000d6c:	03 d4 02 00 	st.h	r0, 2[sp]
 7000d70:	34 8a       	br	7000da4 <_copymem+0x48>
 7000d72:	43 cd 08 00 	ld.w	8[sp],r10
 7000d76:	4a c1 00 00 	ld.b	0[r10],r10
 7000d7a:	6a b5 ff 00 	andi	255, r10, r11
 7000d7e:	43 cd 04 00 	ld.w	4[sp],r10
 7000d82:	6a d1 00 00 	st.b	r11, 0[r10]
 7000d86:	43 cd 04 00 	ld.w	4[sp],r10
 7000d8a:	41 45       	add	1, r10
 7000d8c:	43 dd 04 00 	st.w	r10, 4[sp]
 7000d90:	43 cd 08 00 	ld.w	8[sp],r10
 7000d94:	41 45       	add	1, r10
 7000d96:	43 dd 08 00 	st.w	r10, 8[sp]
 7000d9a:	43 c5 02 00 	ld.h	2[sp],r10
 7000d9e:	41 45       	add	1, r10
 7000da0:	43 d5 02 00 	st.h	r10, 2[sp]
 7000da4:	43 c5 02 00 	ld.h	2[sp],r10
 7000da8:	6a b5 ff ff 	andi	65535, r10, r11
 7000dac:	43 c5 0c 00 	ld.h	12[sp],r10
 7000db0:	4a b5 ff ff 	andi	65535, r10, r10
 7000db4:	6a 0d       	cmp	r10, r11
 7000db6:	bc 83       	bc	7000d72 <_copymem+0x16>
 7000db8:	64 44       	add	4, sp
 7000dba:	1f 18       	jmp	[lp]

07000dbc <_setmem>:
 7000dbc:	7c 44       	add	-4, sp
 7000dbe:	c3 dc 04 00 	st.w	r6, 4[sp]
 7000dc2:	67 01       	mov	r7, r11
 7000dc4:	48 01       	mov	r8, r10
 7000dc6:	63 d1 08 00 	st.b	r11, 8[sp]
 7000dca:	43 d5 0c 00 	st.h	r10, 12[sp]
 7000dce:	03 d4 02 00 	st.h	r0, 2[sp]
 7000dd2:	22 8a       	br	7000df4 <_setmem+0x38>
 7000dd4:	43 cd 04 00 	ld.w	4[sp],r10
 7000dd8:	63 c1 08 00 	ld.b	8[sp],r11
 7000ddc:	6a d1 00 00 	st.b	r11, 0[r10]
 7000de0:	43 cd 04 00 	ld.w	4[sp],r10
 7000de4:	41 45       	add	1, r10
 7000de6:	43 dd 04 00 	st.w	r10, 4[sp]
 7000dea:	43 c5 02 00 	ld.h	2[sp],r10
 7000dee:	41 45       	add	1, r10
 7000df0:	43 d5 02 00 	st.h	r10, 2[sp]
 7000df4:	43 c5 02 00 	ld.h	2[sp],r10
 7000df8:	6a b5 ff ff 	andi	65535, r10, r11
 7000dfc:	43 c5 0c 00 	ld.h	12[sp],r10
 7000e00:	4a b5 ff ff 	andi	65535, r10, r10
 7000e04:	6a 0d       	cmp	r10, r11
 7000e06:	ce 83       	bc	7000dd4 <_setmem+0x18>
 7000e08:	64 44       	add	4, sp
 7000e0a:	1f 18       	jmp	[lp]

07000e0c <_addmem>:
 7000e0c:	7c 44       	add	-4, sp
 7000e0e:	c3 dc 04 00 	st.w	r6, 4[sp]
 7000e12:	e3 dc 08 00 	st.w	r7, 8[sp]
 7000e16:	68 01       	mov	r8, r11
 7000e18:	49 01       	mov	r9, r10
 7000e1a:	63 d5 0c 00 	st.h	r11, 12[sp]
 7000e1e:	43 d1 10 00 	st.b	r10, 16[sp]
 7000e22:	03 d4 02 00 	st.h	r0, 2[sp]
 7000e26:	3e 8a       	br	7000e64 <_addmem+0x58>
 7000e28:	43 cd 08 00 	ld.w	8[sp],r10
 7000e2c:	4a c1 00 00 	ld.b	0[r10],r10
 7000e30:	6a b5 ff 00 	andi	255, r10, r11
 7000e34:	43 c1 10 00 	ld.b	16[sp],r10
 7000e38:	4b 05       	add	r11, r10
 7000e3a:	6a b5 ff 00 	andi	255, r10, r11
 7000e3e:	43 cd 04 00 	ld.w	4[sp],r10
 7000e42:	6a d1 00 00 	st.b	r11, 0[r10]
 7000e46:	43 cd 04 00 	ld.w	4[sp],r10
 7000e4a:	41 45       	add	1, r10
 7000e4c:	43 dd 04 00 	st.w	r10, 4[sp]
 7000e50:	43 cd 08 00 	ld.w	8[sp],r10
 7000e54:	41 45       	add	1, r10
 7000e56:	43 dd 08 00 	st.w	r10, 8[sp]
 7000e5a:	43 c5 02 00 	ld.h	2[sp],r10
 7000e5e:	41 45       	add	1, r10
 7000e60:	43 d5 02 00 	st.h	r10, 2[sp]
 7000e64:	43 c5 02 00 	ld.h	2[sp],r10
 7000e68:	6a b5 ff ff 	andi	65535, r10, r11
 7000e6c:	43 c5 0c 00 	ld.h	12[sp],r10
 7000e70:	4a b5 ff ff 	andi	65535, r10, r10
 7000e74:	6a 0d       	cmp	r10, r11
 7000e76:	b2 83       	bc	7000e28 <_addmem+0x1c>
 7000e78:	64 44       	add	4, sp
 7000e7a:	1f 18       	jmp	[lp]

07000e7c <_itoa>:
 7000e7c:	7c 44       	add	-4, sp
 7000e7e:	c3 dc 04 00 	st.w	r6, 4[sp]
 7000e82:	67 01       	mov	r7, r11
 7000e84:	48 01       	mov	r8, r10
 7000e86:	63 d1 08 00 	st.b	r11, 8[sp]
 7000e8a:	43 d1 0c 00 	st.b	r10, 12[sp]
 7000e8e:	03 dc 00 00 	st.w	r0, 0[sp]
 7000e92:	5e 8a       	br	7000ef0 <_itoa+0x74>
 7000e94:	69 41       	mov	9, r11
 7000e96:	43 cd 00 00 	ld.w	0[sp],r10
 7000e9a:	8b 01       	mov	r11, r12
 7000e9c:	8a 09       	sub	r10, r12
 7000e9e:	4c 01       	mov	r12, r10
 7000ea0:	63 c1 08 00 	ld.b	8[sp],r11
 7000ea4:	6b b5 ff 00 	andi	255, r11, r11
 7000ea8:	83 cd 04 00 	ld.w	4[sp],r12
 7000eac:	8b 2d       	divu	r11, r12
 7000eae:	7e 01       	mov	r30, r11
 7000eb0:	80 bd 00 07 	movhi	1792, r0, r12
 7000eb4:	8c a1 b8 47 	movea	18360, r12, r12
 7000eb8:	6c 05       	add	r12, r11
 7000eba:	6b c1 00 00 	ld.b	0[r11],r11
 7000ebe:	78 51       	shl	24, r11
 7000ec0:	78 5d       	sar	24, r11
 7000ec2:	80 bd 00 05 	movhi	1280, r0, r12
 7000ec6:	8c a1 69 00 	movea	105, r12, r12
 7000eca:	4c 05       	add	r12, r10
 7000ecc:	6a d1 00 00 	st.b	r11, 0[r10]
 7000ed0:	43 c1 08 00 	ld.b	8[sp],r10
 7000ed4:	4a b5 ff 00 	andi	255, r10, r10
 7000ed8:	63 cd 04 00 	ld.w	4[sp],r11
 7000edc:	8b 01       	mov	r11, r12
 7000ede:	8a 2d       	divu	r10, r12
 7000ee0:	4c 01       	mov	r12, r10
 7000ee2:	43 dd 04 00 	st.w	r10, 4[sp]
 7000ee6:	43 cd 00 00 	ld.w	0[sp],r10
 7000eea:	41 45       	add	1, r10
 7000eec:	43 dd 00 00 	st.w	r10, 0[sp]
 7000ef0:	43 cd 00 00 	ld.w	0[sp],r10
 7000ef4:	49 4d       	cmp	9, r10
 7000ef6:	9e 8f       	ble	7000e94 <_itoa+0x18>
 7000ef8:	03 dc 00 00 	st.w	r0, 0[sp]
 7000efc:	0c 8a       	br	7000f08 <_itoa+0x8c>
 7000efe:	43 cd 00 00 	ld.w	0[sp],r10
 7000f02:	41 45       	add	1, r10
 7000f04:	43 dd 00 00 	st.w	r10, 0[sp]
 7000f08:	43 cd 00 00 	ld.w	0[sp],r10
 7000f0c:	60 bd 00 05 	movhi	1280, r0, r11
 7000f10:	6b a1 69 00 	movea	105, r11, r11
 7000f14:	4b 05       	add	r11, r10
 7000f16:	4a c1 00 00 	ld.b	0[r10],r10
 7000f1a:	58 51       	shl	24, r10
 7000f1c:	6a 01       	mov	r10, r11
 7000f1e:	78 5d       	sar	24, r11
 7000f20:	40 a1 30 00 	movea	48, r0, r10
 7000f24:	6a 0d       	cmp	r10, r11
 7000f26:	d8 85       	be	7000efe <_itoa+0x82>
 7000f28:	43 c1 0c 00 	ld.b	12[sp],r10
 7000f2c:	4a b5 ff 00 	andi	255, r10, r10
 7000f30:	6a 41       	mov	10, r11
 7000f32:	6a 09       	sub	r10, r11
 7000f34:	43 cd 00 00 	ld.w	0[sp],r10
 7000f38:	6a 0d       	cmp	r10, r11
 7000f3a:	16 9e       	bgt	7000f50 <_itoa+0xd4>
 7000f3c:	43 c1 0c 00 	ld.b	12[sp],r10
 7000f40:	4a b5 ff 00 	andi	255, r10, r10
 7000f44:	6a 41       	mov	10, r11
 7000f46:	8b 01       	mov	r11, r12
 7000f48:	8a 09       	sub	r10, r12
 7000f4a:	4c 01       	mov	r12, r10
 7000f4c:	43 dd 00 00 	st.w	r10, 0[sp]
 7000f50:	40 bd 00 05 	movhi	1280, r0, r10
 7000f54:	4a a1 69 00 	movea	105, r10, r10
 7000f58:	0a d0 0a 00 	st.b	r0, 10[r10]
 7000f5c:	43 cd 00 00 	ld.w	0[sp],r10
 7000f60:	60 bd 00 05 	movhi	1280, r0, r11
 7000f64:	6b a1 69 00 	movea	105, r11, r11
 7000f68:	4b 05       	add	r11, r10
 7000f6a:	64 44       	add	4, sp
 7000f6c:	1f 18       	jmp	[lp]
	...

07000f70 <_cls>:
 7000f70:	63 a4 ec ff 	addi	-20, sp, sp
 7000f74:	e3 df 10 00 	st.w	lp, 16[sp]
 7000f78:	c0 bc 02 00 	movhi	2, r0, r6
 7000f7c:	e0 40       	mov	0, r7
 7000f7e:	00 a1 00 20 	movea	8192, r0, r8
 7000f82:	40 bd 00 07 	movhi	1792, r0, r10
 7000f86:	4a a1 bc 0d 	movea	3516, r10, r10
 7000f8a:	00 ac 04 00 	jal	7000f8e <_cls+0x1e>
 7000f8e:	e4 47       	add	4, lp
 7000f90:	0a 18       	jmp	[r10]
 7000f92:	e3 cf 10 00 	ld.w	16[sp],lp
 7000f96:	63 a4 14 00 	addi	20, sp, sp
 7000f9a:	1f 18       	jmp	[lp]

07000f9c <_vbTextOut>:
 7000f9c:	7c 44       	add	-4, sp
 7000f9e:	86 01       	mov	r6, r12
 7000fa0:	67 01       	mov	r7, r11
 7000fa2:	48 01       	mov	r8, r10
 7000fa4:	23 dd 10 00 	st.w	r9, 16[sp]
 7000fa8:	83 d5 04 00 	st.h	r12, 4[sp]
 7000fac:	63 d5 08 00 	st.h	r11, 8[sp]
 7000fb0:	43 d5 0c 00 	st.h	r10, 12[sp]
 7000fb4:	03 d4 00 00 	st.h	r0, 0[sp]
 7000fb8:	43 c5 0c 00 	ld.h	12[sp],r10
 7000fbc:	46 51       	shl	6, r10
 7000fbe:	6a 01       	mov	r10, r11
 7000fc0:	43 c5 08 00 	ld.h	8[sp],r10
 7000fc4:	4b 05       	add	r11, r10
 7000fc6:	43 d5 02 00 	st.h	r10, 2[sp]
 7000fca:	5c 8a       	br	7001026 <_vbTextOut+0x8a>
 7000fcc:	40 bd 00 07 	movhi	1792, r0, r10
 7000fd0:	4a a1 e8 46 	movea	18152, r10, r10
 7000fd4:	6a cd 00 00 	ld.w	0[r10],r11
 7000fd8:	43 c5 04 00 	ld.h	4[sp],r10
 7000fdc:	4a b5 ff ff 	andi	65535, r10, r10
 7000fe0:	4c 51       	shl	12, r10
 7000fe2:	83 c5 02 00 	ld.h	2[sp],r12
 7000fe6:	8c b5 ff ff 	andi	65535, r12, r12
 7000fea:	8a 05       	add	r10, r12
 7000fec:	43 c5 00 00 	ld.h	0[sp],r10
 7000ff0:	4a b5 ff ff 	andi	65535, r10, r10
 7000ff4:	4c 05       	add	r12, r10
 7000ff6:	4a 05       	add	r10, r10
 7000ff8:	4b 05       	add	r11, r10
 7000ffa:	63 c5 00 00 	ld.h	0[sp],r11
 7000ffe:	6b b5 ff ff 	andi	65535, r11, r11
 7001002:	83 cd 10 00 	ld.w	16[sp],r12
 7001006:	6c 05       	add	r12, r11
 7001008:	6b c1 00 00 	ld.b	0[r11],r11
 700100c:	78 51       	shl	24, r11
 700100e:	78 5d       	sar	24, r11
 7001010:	6b a5 00 06 	addi	1536, r11, r11
 7001014:	6b b5 ff ff 	andi	65535, r11, r11
 7001018:	6a d5 00 00 	st.h	r11, 0[r10]
 700101c:	43 c5 00 00 	ld.h	0[sp],r10
 7001020:	41 45       	add	1, r10
 7001022:	43 d5 00 00 	st.h	r10, 0[sp]
 7001026:	43 c5 00 00 	ld.h	0[sp],r10
 700102a:	4a b5 ff ff 	andi	65535, r10, r10
 700102e:	63 cd 10 00 	ld.w	16[sp],r11
 7001032:	4b 05       	add	r11, r10
 7001034:	4a c1 00 00 	ld.b	0[r10],r10
 7001038:	58 51       	shl	24, r10
 700103a:	58 5d       	sar	24, r10
 700103c:	40 0d       	cmp	r0, r10
 700103e:	8e 95       	bne	7000fcc <_vbTextOut+0x30>
 7001040:	64 44       	add	4, sp
 7001042:	1f 18       	jmp	[lp]

07001044 <_vbPrint>:
 7001044:	74 44       	add	-12, sp
 7001046:	a6 01       	mov	r6, r13
 7001048:	87 01       	mov	r7, r12
 700104a:	68 01       	mov	r8, r11
 700104c:	23 dd 18 00 	st.w	r9, 24[sp]
 7001050:	43 cd 1c 00 	ld.w	28[sp],r10
 7001054:	a3 d1 0c 00 	st.b	r13, 12[sp]
 7001058:	83 d5 10 00 	st.h	r12, 16[sp]
 700105c:	63 d5 14 00 	st.h	r11, 20[sp]
 7001060:	43 d5 00 00 	st.h	r10, 0[sp]
 7001064:	03 d4 06 00 	st.h	r0, 6[sp]
 7001068:	03 d4 08 00 	st.h	r0, 8[sp]
 700106c:	43 c5 10 00 	ld.h	16[sp],r10
 7001070:	43 d5 0a 00 	st.h	r10, 10[sp]
 7001074:	00 a8 24 01 	jr	7001198 <_vbPrint+0x154>
 7001078:	43 c5 14 00 	ld.h	20[sp],r10
 700107c:	46 51       	shl	6, r10
 700107e:	6a 01       	mov	r10, r11
 7001080:	43 c5 10 00 	ld.h	16[sp],r10
 7001084:	4b 05       	add	r11, r10
 7001086:	43 d5 08 00 	st.h	r10, 8[sp]
 700108a:	43 c5 06 00 	ld.h	6[sp],r10
 700108e:	4a b5 ff ff 	andi	65535, r10, r10
 7001092:	63 cd 18 00 	ld.w	24[sp],r11
 7001096:	4b 05       	add	r11, r10
 7001098:	4a c1 00 00 	ld.b	0[r10],r10
 700109c:	58 51       	shl	24, r10
 700109e:	8a 01       	mov	r10, r12
 70010a0:	98 5d       	sar	24, r12
 70010a2:	47 41       	mov	7, r10
 70010a4:	66 41       	mov	6, r11
 70010a6:	ac 01       	mov	r12, r13
 70010a8:	aa 09       	sub	r10, r13
 70010aa:	4d 01       	mov	r13, r10
 70010ac:	4b 0d       	cmp	r11, r10
 70010ae:	54 96       	bh	7001102 <_vbPrint+0xbe>
 70010b0:	41 51       	shl	1, r10
 70010b2:	60 bd 00 07 	movhi	1792, r0, r11
 70010b6:	6b a1 c8 10 	movea	4296, r11, r11
 70010ba:	4b 05       	add	r11, r10
 70010bc:	4a c5 00 00 	ld.h	0[r10],r10
 70010c0:	50 51       	shl	16, r10
 70010c2:	50 5d       	sar	16, r10
 70010c4:	4b 05       	add	r11, r10
 70010c6:	0a 18       	jmp	[r10]
 70010c8:	c4 00       	mov	gp, r6
 70010ca:	3a 00       	mov	r26, r1
 70010cc:	0e 00       	mov	r14, r0
 70010ce:	26 00       	mov	r6, r1
 70010d0:	3a 00       	mov	r26, r1
 70010d2:	3a 00       	mov	r26, r1
 70010d4:	c4 00       	mov	gp, r6
 70010d6:	43 c5 10 00 	ld.h	16[sp],r10
 70010da:	4a b5 ff ff 	andi	65535, r10, r10
 70010de:	42 55       	shr	2, r10
 70010e0:	4a b5 ff ff 	andi	65535, r10, r10
 70010e4:	41 45       	add	1, r10
 70010e6:	42 51       	shl	2, r10
 70010e8:	43 d5 10 00 	st.h	r10, 16[sp]
 70010ec:	a2 8a       	br	700118e <_vbPrint+0x14a>
 70010ee:	43 c5 14 00 	ld.h	20[sp],r10
 70010f2:	41 45       	add	1, r10
 70010f4:	43 d5 14 00 	st.h	r10, 20[sp]
 70010f8:	43 c5 0a 00 	ld.h	10[sp],r10
 70010fc:	43 d5 10 00 	st.h	r10, 16[sp]
 7001100:	8e 8a       	br	700118e <_vbPrint+0x14a>
 7001102:	40 bd 00 07 	movhi	1792, r0, r10
 7001106:	4a a1 e8 46 	movea	18152, r10, r10
 700110a:	6a cd 00 00 	ld.w	0[r10],r11
 700110e:	43 c1 0c 00 	ld.b	12[sp],r10
 7001112:	4a b5 ff 00 	andi	255, r10, r10
 7001116:	4c 51       	shl	12, r10
 7001118:	83 c5 08 00 	ld.h	8[sp],r12
 700111c:	8c b5 ff ff 	andi	65535, r12, r12
 7001120:	4c 05       	add	r12, r10
 7001122:	4a 05       	add	r10, r10
 7001124:	6a 05       	add	r10, r11
 7001126:	43 c5 06 00 	ld.h	6[sp],r10
 700112a:	4a b5 ff ff 	andi	65535, r10, r10
 700112e:	83 cd 18 00 	ld.w	24[sp],r12
 7001132:	4c 05       	add	r12, r10
 7001134:	4a c1 00 00 	ld.b	0[r10],r10
 7001138:	58 51       	shl	24, r10
 700113a:	8a 01       	mov	r10, r12
 700113c:	98 5d       	sar	24, r12
 700113e:	43 c5 00 00 	ld.h	0[sp],r10
 7001142:	4a b5 ff ff 	andi	65535, r10, r10
 7001146:	4e 51       	shl	14, r10
 7001148:	8c a5 00 07 	addi	1792, r12, r12
 700114c:	4c 31       	or	r12, r10
 700114e:	4a b5 ff ff 	andi	65535, r10, r10
 7001152:	4b d5 00 00 	st.h	r10, 0[r11]
 7001156:	43 c5 10 00 	ld.h	16[sp],r10
 700115a:	6a b5 ff ff 	andi	65535, r10, r11
 700115e:	40 a1 3f 00 	movea	63, r0, r10
 7001162:	6a 0d       	cmp	r10, r11
 7001164:	4b 49       	setf	h, r10
 7001166:	4a b5 ff 00 	andi	255, r10, r10
 700116a:	63 c5 10 00 	ld.h	16[sp],r11
 700116e:	61 45       	add	1, r11
 7001170:	63 d5 10 00 	st.h	r11, 16[sp]
 7001174:	40 0d       	cmp	r0, r10
 7001176:	18 84       	be	700118e <_vbPrint+0x14a>
 7001178:	43 c5 0a 00 	ld.h	10[sp],r10
 700117c:	43 d5 10 00 	st.h	r10, 16[sp]
 7001180:	43 c5 14 00 	ld.h	20[sp],r10
 7001184:	41 45       	add	1, r10
 7001186:	43 d5 14 00 	st.h	r10, 20[sp]
 700118a:	04 8a       	br	700118e <_vbPrint+0x14a>
 700118c:	00 9a       	nop	
 700118e:	43 c5 06 00 	ld.h	6[sp],r10
 7001192:	41 45       	add	1, r10
 7001194:	43 d5 06 00 	st.h	r10, 6[sp]
 7001198:	43 c5 06 00 	ld.h	6[sp],r10
 700119c:	4a b5 ff ff 	andi	65535, r10, r10
 70011a0:	63 cd 18 00 	ld.w	24[sp],r11
 70011a4:	4b 05       	add	r11, r10
 70011a6:	4a c1 00 00 	ld.b	0[r10],r10
 70011aa:	58 51       	shl	24, r10
 70011ac:	58 5d       	sar	24, r10
 70011ae:	40 0d       	cmp	r0, r10
 70011b0:	06 84       	be	70011b6 <_vbPrint+0x172>
 70011b2:	ff ab c6 fe 	jr	7001078 <_vbPrint+0x34>
 70011b6:	6c 44       	add	12, sp
 70011b8:	1f 18       	jmp	[lp]
	...

070011bc <_vbSetObject>:
 70011bc:	78 44       	add	-8, sp
 70011be:	e6 01       	mov	r6, r15
 70011c0:	c7 01       	mov	r7, r14
 70011c2:	a8 01       	mov	r8, r13
 70011c4:	89 01       	mov	r9, r12
 70011c6:	63 cd 18 00 	ld.w	24[sp],r11
 70011ca:	43 cd 1c 00 	ld.w	28[sp],r10
 70011ce:	e3 d5 08 00 	st.h	r15, 8[sp]
 70011d2:	c3 d1 0c 00 	st.b	r14, 12[sp]
 70011d6:	a3 d5 10 00 	st.h	r13, 16[sp]
 70011da:	83 d5 14 00 	st.h	r12, 20[sp]
 70011de:	63 d5 04 00 	st.h	r11, 4[sp]
 70011e2:	43 d5 00 00 	st.h	r10, 0[sp]
 70011e6:	43 c5 08 00 	ld.h	8[sp],r10
 70011ea:	42 51       	shl	2, r10
 70011ec:	43 d5 08 00 	st.h	r10, 8[sp]
 70011f0:	40 bd 00 07 	movhi	1792, r0, r10
 70011f4:	4a a1 f4 46 	movea	18164, r10, r10
 70011f8:	6a cd 00 00 	ld.w	0[r10],r11
 70011fc:	43 c5 08 00 	ld.h	8[sp],r10
 7001200:	4a b5 ff ff 	andi	65535, r10, r10
 7001204:	4a 05       	add	r10, r10
 7001206:	4b 05       	add	r11, r10
 7001208:	63 c5 10 00 	ld.h	16[sp],r11
 700120c:	6b b5 ff ff 	andi	65535, r11, r11
 7001210:	6a d5 00 00 	st.h	r11, 0[r10]
 7001214:	40 bd 00 07 	movhi	1792, r0, r10
 7001218:	4a a1 f4 46 	movea	18164, r10, r10
 700121c:	6a cd 00 00 	ld.w	0[r10],r11
 7001220:	43 c5 08 00 	ld.h	8[sp],r10
 7001224:	4a b5 ff ff 	andi	65535, r10, r10
 7001228:	41 45       	add	1, r10
 700122a:	4a 05       	add	r10, r10
 700122c:	6a 05       	add	r10, r11
 700122e:	43 c1 0c 00 	ld.b	12[sp],r10
 7001232:	4a b5 ff 00 	andi	255, r10, r10
 7001236:	48 51       	shl	8, r10
 7001238:	8a 01       	mov	r10, r12
 700123a:	43 c5 14 00 	ld.h	20[sp],r10
 700123e:	4c 31       	or	r12, r10
 7001240:	4a b5 ff ff 	andi	65535, r10, r10
 7001244:	4b d5 00 00 	st.h	r10, 0[r11]
 7001248:	40 bd 00 07 	movhi	1792, r0, r10
 700124c:	4a a1 f4 46 	movea	18164, r10, r10
 7001250:	6a cd 00 00 	ld.w	0[r10],r11
 7001254:	43 c5 08 00 	ld.h	8[sp],r10
 7001258:	4a b5 ff ff 	andi	65535, r10, r10
 700125c:	42 45       	add	2, r10
 700125e:	4a 05       	add	r10, r10
 7001260:	4b 05       	add	r11, r10
 7001262:	63 c5 04 00 	ld.h	4[sp],r11
 7001266:	6b b5 ff ff 	andi	65535, r11, r11
 700126a:	6a d5 00 00 	st.h	r11, 0[r10]
 700126e:	40 bd 00 07 	movhi	1792, r0, r10
 7001272:	4a a1 f4 46 	movea	18164, r10, r10
 7001276:	6a cd 00 00 	ld.w	0[r10],r11
 700127a:	43 c5 08 00 	ld.h	8[sp],r10
 700127e:	4a b5 ff ff 	andi	65535, r10, r10
 7001282:	43 45       	add	3, r10
 7001284:	4a 05       	add	r10, r10
 7001286:	6a 05       	add	r10, r11
 7001288:	43 c1 0c 00 	ld.b	12[sp],r10
 700128c:	4a b5 ff 00 	andi	255, r10, r10
 7001290:	4a b5 3c 00 	andi	60, r10, r10
 7001294:	8a 01       	mov	r10, r12
 7001296:	8a 51       	shl	10, r12
 7001298:	43 c5 00 00 	ld.h	0[sp],r10
 700129c:	4a b5 ff 07 	andi	2047, r10, r10
 70012a0:	4c 31       	or	r12, r10
 70012a2:	4a b5 ff ff 	andi	65535, r10, r10
 70012a6:	4b d5 00 00 	st.h	r10, 0[r11]
 70012aa:	68 44       	add	8, sp
 70012ac:	1f 18       	jmp	[lp]
	...

070012b0 <_randseed>:
 70012b0:	70 44       	add	-16, sp
 70012b2:	41 41       	mov	1, r10
 70012b4:	43 dd 00 00 	st.w	r10, 0[sp]
 70012b8:	03 dc 08 00 	st.w	r0, 8[sp]
 70012bc:	41 41       	mov	1, r10
 70012be:	43 dd 0c 00 	st.w	r10, 12[sp]
 70012c2:	72 8a       	br	7001334 <_randseed+0x84>
 70012c4:	40 bd 00 05 	movhi	1280, r0, r10
 70012c8:	4a a1 00 00 	movea	0, r10, r10
 70012cc:	4a cd 00 00 	ld.w	0[r10],r10
 70012d0:	4a a5 30 00 	addi	48, r10, r10
 70012d4:	4a c5 00 00 	ld.h	0[r10],r10
 70012d8:	4a b5 ff ff 	andi	65535, r10, r10
 70012dc:	43 dd 04 00 	st.w	r10, 4[sp]
 70012e0:	43 cd 00 00 	ld.w	0[sp],r10
 70012e4:	40 0d       	cmp	r0, r10
 70012e6:	08 94       	bne	70012ee <_randseed+0x3e>
 70012e8:	41 41       	mov	1, r10
 70012ea:	43 dd 00 00 	st.w	r10, 0[sp]
 70012ee:	63 cd 04 00 	ld.w	4[sp],r11
 70012f2:	43 cd 0c 00 	ld.w	12[sp],r10
 70012f6:	6a 21       	mul	r10, r11
 70012f8:	83 cd 0c 00 	ld.w	12[sp],r12
 70012fc:	43 cd 00 00 	ld.w	0[sp],r10
 7001300:	8a 25       	div	r10, r12
 7001302:	5e 01       	mov	r30, r10
 7001304:	4b 05       	add	r11, r10
 7001306:	63 cd 00 00 	ld.w	0[sp],r11
 700130a:	4b 05       	add	r11, r10
 700130c:	43 dd 00 00 	st.w	r10, 0[sp]
 7001310:	63 cd 04 00 	ld.w	4[sp],r11
 7001314:	43 cd 08 00 	ld.w	8[sp],r10
 7001318:	6a 0d       	cmp	r10, r11
 700131a:	0e 94       	bne	7001328 <_randseed+0x78>
 700131c:	43 cd 0c 00 	ld.w	12[sp],r10
 7001320:	41 45       	add	1, r10
 7001322:	43 dd 0c 00 	st.w	r10, 12[sp]
 7001326:	06 8a       	br	700132c <_randseed+0x7c>
 7001328:	03 dc 0c 00 	st.w	r0, 12[sp]
 700132c:	43 cd 04 00 	ld.w	4[sp],r10
 7001330:	43 dd 08 00 	st.w	r10, 8[sp]
 7001334:	63 cd 0c 00 	ld.w	12[sp],r11
 7001338:	40 a1 2f 75 	movea	29999, r0, r10
 700133c:	6a 0d       	cmp	r10, r11
 700133e:	86 8f       	ble	70012c4 <_randseed+0x14>
 7001340:	43 cd 00 00 	ld.w	0[sp],r10
 7001344:	63 a4 10 00 	addi	16, sp, sp
 7001348:	1f 18       	jmp	[lp]
	...

0700134c <_randnum>:
 700134c:	c3 dc 00 00 	st.w	r6, 0[sp]
 7001350:	e3 dc 04 00 	st.w	r7, 4[sp]
 7001354:	63 cd 00 00 	ld.w	0[sp],r11
 7001358:	43 cd 04 00 	ld.w	4[sp],r10
 700135c:	6a 25       	div	r10, r11
 700135e:	5e 01       	mov	r30, r10
 7001360:	1f 18       	jmp	[lp]
	...

07001364 <_vbSetWorld>:
 7001364:	63 a4 e4 ff 	addi	-28, sp, sp
 7001368:	66 02       	mov	r6, r19
 700136a:	47 02       	mov	r7, r18
 700136c:	28 02       	mov	r8, r17
 700136e:	09 02       	mov	r9, r16
 7001370:	e3 cd 2c 00 	ld.w	44[sp],r15
 7001374:	c3 cd 30 00 	ld.w	48[sp],r14
 7001378:	a3 cd 34 00 	ld.w	52[sp],r13
 700137c:	83 cd 38 00 	ld.w	56[sp],r12
 7001380:	63 cd 3c 00 	ld.w	60[sp],r11
 7001384:	43 cd 40 00 	ld.w	64[sp],r10
 7001388:	63 d6 1c 00 	st.h	r19, 28[sp]
 700138c:	43 d6 20 00 	st.h	r18, 32[sp]
 7001390:	23 d6 24 00 	st.h	r17, 36[sp]
 7001394:	03 d6 28 00 	st.h	r16, 40[sp]
 7001398:	e3 d5 14 00 	st.h	r15, 20[sp]
 700139c:	c3 d5 10 00 	st.h	r14, 16[sp]
 70013a0:	a3 d5 0c 00 	st.h	r13, 12[sp]
 70013a4:	83 d5 08 00 	st.h	r12, 8[sp]
 70013a8:	63 d5 04 00 	st.h	r11, 4[sp]
 70013ac:	43 d5 00 00 	st.h	r10, 0[sp]
 70013b0:	43 c5 1c 00 	ld.h	28[sp],r10
 70013b4:	44 51       	shl	4, r10
 70013b6:	43 d5 1a 00 	st.h	r10, 26[sp]
 70013ba:	40 bd 00 07 	movhi	1792, r0, r10
 70013be:	4a a1 ec 46 	movea	18156, r10, r10
 70013c2:	6a cd 00 00 	ld.w	0[r10],r11
 70013c6:	43 c5 1a 00 	ld.h	26[sp],r10
 70013ca:	4a b5 ff ff 	andi	65535, r10, r10
 70013ce:	4a 05       	add	r10, r10
 70013d0:	4b 05       	add	r11, r10
 70013d2:	63 c5 20 00 	ld.h	32[sp],r11
 70013d6:	6a d5 00 00 	st.h	r11, 0[r10]
 70013da:	43 c5 1a 00 	ld.h	26[sp],r10
 70013de:	41 45       	add	1, r10
 70013e0:	43 d5 1a 00 	st.h	r10, 26[sp]
 70013e4:	40 bd 00 07 	movhi	1792, r0, r10
 70013e8:	4a a1 ec 46 	movea	18156, r10, r10
 70013ec:	6a cd 00 00 	ld.w	0[r10],r11
 70013f0:	43 c5 1a 00 	ld.h	26[sp],r10
 70013f4:	4a b5 ff ff 	andi	65535, r10, r10
 70013f8:	4a 05       	add	r10, r10
 70013fa:	4b 05       	add	r11, r10
 70013fc:	63 c5 24 00 	ld.h	36[sp],r11
 7001400:	6a d5 00 00 	st.h	r11, 0[r10]
 7001404:	43 c5 1a 00 	ld.h	26[sp],r10
 7001408:	41 45       	add	1, r10
 700140a:	43 d5 1a 00 	st.h	r10, 26[sp]
 700140e:	40 bd 00 07 	movhi	1792, r0, r10
 7001412:	4a a1 ec 46 	movea	18156, r10, r10
 7001416:	6a cd 00 00 	ld.w	0[r10],r11
 700141a:	43 c5 1a 00 	ld.h	26[sp],r10
 700141e:	4a b5 ff ff 	andi	65535, r10, r10
 7001422:	4a 05       	add	r10, r10
 7001424:	4b 05       	add	r11, r10
 7001426:	63 c5 28 00 	ld.h	40[sp],r11
 700142a:	6b b5 ff ff 	andi	65535, r11, r11
 700142e:	6a d5 00 00 	st.h	r11, 0[r10]
 7001432:	43 c5 1a 00 	ld.h	26[sp],r10
 7001436:	41 45       	add	1, r10
 7001438:	43 d5 1a 00 	st.h	r10, 26[sp]
 700143c:	40 bd 00 07 	movhi	1792, r0, r10
 7001440:	4a a1 ec 46 	movea	18156, r10, r10
 7001444:	6a cd 00 00 	ld.w	0[r10],r11
 7001448:	43 c5 1a 00 	ld.h	26[sp],r10
 700144c:	4a b5 ff ff 	andi	65535, r10, r10
 7001450:	4a 05       	add	r10, r10
 7001452:	4b 05       	add	r11, r10
 7001454:	63 c5 14 00 	ld.h	20[sp],r11
 7001458:	6a d5 00 00 	st.h	r11, 0[r10]
 700145c:	43 c5 1a 00 	ld.h	26[sp],r10
 7001460:	41 45       	add	1, r10
 7001462:	43 d5 1a 00 	st.h	r10, 26[sp]
 7001466:	40 bd 00 07 	movhi	1792, r0, r10
 700146a:	4a a1 ec 46 	movea	18156, r10, r10
 700146e:	6a cd 00 00 	ld.w	0[r10],r11
 7001472:	43 c5 1a 00 	ld.h	26[sp],r10
 7001476:	4a b5 ff ff 	andi	65535, r10, r10
 700147a:	4a 05       	add	r10, r10
 700147c:	4b 05       	add	r11, r10
 700147e:	63 c5 10 00 	ld.h	16[sp],r11
 7001482:	6a d5 00 00 	st.h	r11, 0[r10]
 7001486:	43 c5 1a 00 	ld.h	26[sp],r10
 700148a:	41 45       	add	1, r10
 700148c:	43 d5 1a 00 	st.h	r10, 26[sp]
 7001490:	40 bd 00 07 	movhi	1792, r0, r10
 7001494:	4a a1 ec 46 	movea	18156, r10, r10
 7001498:	6a cd 00 00 	ld.w	0[r10],r11
 700149c:	43 c5 1a 00 	ld.h	26[sp],r10
 70014a0:	4a b5 ff ff 	andi	65535, r10, r10
 70014a4:	4a 05       	add	r10, r10
 70014a6:	4b 05       	add	r11, r10
 70014a8:	63 c5 0c 00 	ld.h	12[sp],r11
 70014ac:	6b b5 ff ff 	andi	65535, r11, r11
 70014b0:	6a d5 00 00 	st.h	r11, 0[r10]
 70014b4:	43 c5 1a 00 	ld.h	26[sp],r10
 70014b8:	41 45       	add	1, r10
 70014ba:	43 d5 1a 00 	st.h	r10, 26[sp]
 70014be:	40 bd 00 07 	movhi	1792, r0, r10
 70014c2:	4a a1 ec 46 	movea	18156, r10, r10
 70014c6:	6a cd 00 00 	ld.w	0[r10],r11
 70014ca:	43 c5 1a 00 	ld.h	26[sp],r10
 70014ce:	4a b5 ff ff 	andi	65535, r10, r10
 70014d2:	4a 05       	add	r10, r10
 70014d4:	4b 05       	add	r11, r10
 70014d6:	63 c5 08 00 	ld.h	8[sp],r11
 70014da:	6a d5 00 00 	st.h	r11, 0[r10]
 70014de:	43 c5 1a 00 	ld.h	26[sp],r10
 70014e2:	41 45       	add	1, r10
 70014e4:	43 d5 1a 00 	st.h	r10, 26[sp]
 70014e8:	40 bd 00 07 	movhi	1792, r0, r10
 70014ec:	4a a1 ec 46 	movea	18156, r10, r10
 70014f0:	6a cd 00 00 	ld.w	0[r10],r11
 70014f4:	43 c5 1a 00 	ld.h	26[sp],r10
 70014f8:	4a b5 ff ff 	andi	65535, r10, r10
 70014fc:	4a 05       	add	r10, r10
 70014fe:	4b 05       	add	r11, r10
 7001500:	63 c5 04 00 	ld.h	4[sp],r11
 7001504:	6a d5 00 00 	st.h	r11, 0[r10]
 7001508:	43 c5 1a 00 	ld.h	26[sp],r10
 700150c:	41 45       	add	1, r10
 700150e:	43 d5 1a 00 	st.h	r10, 26[sp]
 7001512:	40 bd 00 07 	movhi	1792, r0, r10
 7001516:	4a a1 ec 46 	movea	18156, r10, r10
 700151a:	6a cd 00 00 	ld.w	0[r10],r11
 700151e:	43 c5 1a 00 	ld.h	26[sp],r10
 7001522:	4a b5 ff ff 	andi	65535, r10, r10
 7001526:	4a 05       	add	r10, r10
 7001528:	4b 05       	add	r11, r10
 700152a:	63 c5 00 00 	ld.h	0[sp],r11
 700152e:	6a d5 00 00 	st.h	r11, 0[r10]
 7001532:	63 a4 1c 00 	addi	28, sp, sp
 7001536:	1f 18       	jmp	[lp]

07001538 <_timer_enable>:
 7001538:	c3 dc 00 00 	st.w	r6, 0[sp]
 700153c:	43 cd 00 00 	ld.w	0[sp],r10
 7001540:	40 0d       	cmp	r0, r10
 7001542:	28 84       	be	700156a <_timer_enable+0x32>
 7001544:	40 bd 00 05 	movhi	1280, r0, r10
 7001548:	4a a1 40 00 	movea	64, r10, r10
 700154c:	4a c1 00 00 	ld.b	0[r10],r10
 7001550:	4a b5 ff 00 	andi	255, r10, r10
 7001554:	4a b1 01 00 	ori	1, r10, r10
 7001558:	6a b5 ff 00 	andi	255, r10, r11
 700155c:	40 bd 00 05 	movhi	1280, r0, r10
 7001560:	4a a1 40 00 	movea	64, r10, r10
 7001564:	6a d1 00 00 	st.b	r11, 0[r10]
 7001568:	22 8a       	br	700158a <_timer_enable+0x52>
 700156a:	40 bd 00 05 	movhi	1280, r0, r10
 700156e:	4a a1 40 00 	movea	64, r10, r10
 7001572:	4a c1 00 00 	ld.b	0[r10],r10
 7001576:	4a b5 ff 00 	andi	255, r10, r10
 700157a:	4a b5 fe 00 	andi	254, r10, r10
 700157e:	60 bd 00 05 	movhi	1280, r0, r11
 7001582:	6b a1 40 00 	movea	64, r11, r11
 7001586:	4b d1 00 00 	st.b	r10, 0[r11]
 700158a:	40 bd 00 07 	movhi	1792, r0, r10
 700158e:	4a a1 a8 47 	movea	18344, r10, r10
 7001592:	4a cd 00 00 	ld.w	0[r10],r10
 7001596:	4a a5 20 00 	addi	32, r10, r10
 700159a:	60 bd 00 05 	movhi	1280, r0, r11
 700159e:	6b a1 40 00 	movea	64, r11, r11
 70015a2:	6b c1 00 00 	ld.b	0[r11],r11
 70015a6:	6b b5 ff 00 	andi	255, r11, r11
 70015aa:	6a d1 00 00 	st.b	r11, 0[r10]
 70015ae:	1f 18       	jmp	[lp]

070015b0 <_timer_get>:
 70015b0:	40 bd 00 07 	movhi	1792, r0, r10
 70015b4:	4a a1 a8 47 	movea	18344, r10, r10
 70015b8:	4a cd 00 00 	ld.w	0[r10],r10
 70015bc:	4a c1 18 00 	ld.b	24[r10],r10
 70015c0:	6a b5 ff 00 	andi	255, r10, r11
 70015c4:	40 bd 00 07 	movhi	1792, r0, r10
 70015c8:	4a a1 a8 47 	movea	18344, r10, r10
 70015cc:	4a cd 00 00 	ld.w	0[r10],r10
 70015d0:	4a c1 1c 00 	ld.b	28[r10],r10
 70015d4:	4a b5 ff 00 	andi	255, r10, r10
 70015d8:	48 51       	shl	8, r10
 70015da:	4b 31       	or	r11, r10
 70015dc:	4a b5 ff ff 	andi	65535, r10, r10
 70015e0:	1f 18       	jmp	[lp]
	...

070015e4 <_timer_set>:
 70015e4:	46 01       	mov	r6, r10
 70015e6:	43 d5 00 00 	st.h	r10, 0[sp]
 70015ea:	40 bd 00 07 	movhi	1792, r0, r10
 70015ee:	4a a1 a8 47 	movea	18344, r10, r10
 70015f2:	4a cd 00 00 	ld.w	0[r10],r10
 70015f6:	4a a5 18 00 	addi	24, r10, r10
 70015fa:	63 c5 00 00 	ld.h	0[sp],r11
 70015fe:	6b b5 ff 00 	andi	255, r11, r11
 7001602:	6a d1 00 00 	st.b	r11, 0[r10]
 7001606:	40 bd 00 07 	movhi	1792, r0, r10
 700160a:	4a a1 a8 47 	movea	18344, r10, r10
 700160e:	4a cd 00 00 	ld.w	0[r10],r10
 7001612:	4a a5 1c 00 	addi	28, r10, r10
 7001616:	63 c5 00 00 	ld.h	0[sp],r11
 700161a:	6b b5 ff ff 	andi	65535, r11, r11
 700161e:	68 55       	shr	8, r11
 7001620:	6b b5 ff 00 	andi	255, r11, r11
 7001624:	6a d1 00 00 	st.b	r11, 0[r10]
 7001628:	1f 18       	jmp	[lp]
	...

0700162c <_timer_freq>:
 700162c:	c3 dc 00 00 	st.w	r6, 0[sp]
 7001630:	43 cd 00 00 	ld.w	0[sp],r10
 7001634:	40 0d       	cmp	r0, r10
 7001636:	28 84       	be	700165e <_timer_freq+0x32>
 7001638:	40 bd 00 05 	movhi	1280, r0, r10
 700163c:	4a a1 40 00 	movea	64, r10, r10
 7001640:	4a c1 00 00 	ld.b	0[r10],r10
 7001644:	4a b5 ff 00 	andi	255, r10, r10
 7001648:	4a b1 10 00 	ori	16, r10, r10
 700164c:	6a b5 ff 00 	andi	255, r10, r11
 7001650:	40 bd 00 05 	movhi	1280, r0, r10
 7001654:	4a a1 40 00 	movea	64, r10, r10
 7001658:	6a d1 00 00 	st.b	r11, 0[r10]
 700165c:	22 8a       	br	700167e <_timer_freq+0x52>
 700165e:	40 bd 00 05 	movhi	1280, r0, r10
 7001662:	4a a1 40 00 	movea	64, r10, r10
 7001666:	4a c1 00 00 	ld.b	0[r10],r10
 700166a:	4a b5 ff 00 	andi	255, r10, r10
 700166e:	4a b5 ef 00 	andi	239, r10, r10
 7001672:	60 bd 00 05 	movhi	1280, r0, r11
 7001676:	6b a1 40 00 	movea	64, r11, r11
 700167a:	4b d1 00 00 	st.b	r10, 0[r11]
 700167e:	40 bd 00 07 	movhi	1792, r0, r10
 7001682:	4a a1 a8 47 	movea	18344, r10, r10
 7001686:	4a cd 00 00 	ld.w	0[r10],r10
 700168a:	4a a5 20 00 	addi	32, r10, r10
 700168e:	60 bd 00 05 	movhi	1280, r0, r11
 7001692:	6b a1 40 00 	movea	64, r11, r11
 7001696:	6b c1 00 00 	ld.b	0[r11],r11
 700169a:	6b b5 ff 00 	andi	255, r11, r11
 700169e:	6a d1 00 00 	st.b	r11, 0[r10]
 70016a2:	1f 18       	jmp	[lp]

070016a4 <_timer_int>:
 70016a4:	c3 dc 00 00 	st.w	r6, 0[sp]
 70016a8:	43 cd 00 00 	ld.w	0[sp],r10
 70016ac:	40 0d       	cmp	r0, r10
 70016ae:	28 84       	be	70016d6 <_timer_int+0x32>
 70016b0:	40 bd 00 05 	movhi	1280, r0, r10
 70016b4:	4a a1 40 00 	movea	64, r10, r10
 70016b8:	4a c1 00 00 	ld.b	0[r10],r10
 70016bc:	4a b5 ff 00 	andi	255, r10, r10
 70016c0:	4a b1 08 00 	ori	8, r10, r10
 70016c4:	6a b5 ff 00 	andi	255, r10, r11
 70016c8:	40 bd 00 05 	movhi	1280, r0, r10
 70016cc:	4a a1 40 00 	movea	64, r10, r10
 70016d0:	6a d1 00 00 	st.b	r11, 0[r10]
 70016d4:	22 8a       	br	70016f6 <_timer_int+0x52>
 70016d6:	40 bd 00 05 	movhi	1280, r0, r10
 70016da:	4a a1 40 00 	movea	64, r10, r10
 70016de:	4a c1 00 00 	ld.b	0[r10],r10
 70016e2:	4a b5 ff 00 	andi	255, r10, r10
 70016e6:	4a b5 f7 00 	andi	247, r10, r10
 70016ea:	60 bd 00 05 	movhi	1280, r0, r11
 70016ee:	6b a1 40 00 	movea	64, r11, r11
 70016f2:	4b d1 00 00 	st.b	r10, 0[r11]
 70016f6:	40 bd 00 07 	movhi	1792, r0, r10
 70016fa:	4a a1 a8 47 	movea	18344, r10, r10
 70016fe:	4a cd 00 00 	ld.w	0[r10],r10
 7001702:	4a a5 20 00 	addi	32, r10, r10
 7001706:	60 bd 00 05 	movhi	1280, r0, r11
 700170a:	6b a1 40 00 	movea	64, r11, r11
 700170e:	6b c1 00 00 	ld.b	0[r11],r11
 7001712:	6b b5 ff 00 	andi	255, r11, r11
 7001716:	6a d1 00 00 	st.b	r11, 0[r10]
 700171a:	1f 18       	jmp	[lp]

0700171c <_timer_getstat>:
 700171c:	40 bd 00 07 	movhi	1792, r0, r10
 7001720:	4a a1 a8 47 	movea	18344, r10, r10
 7001724:	4a cd 00 00 	ld.w	0[r10],r10
 7001728:	4a c1 20 00 	ld.b	32[r10],r10
 700172c:	4a b5 ff 00 	andi	255, r10, r10
 7001730:	4a b5 02 00 	andi	2, r10, r10
 7001734:	40 0d       	cmp	r0, r10
 7001736:	4a 49       	setf	nz, r10
 7001738:	1f 18       	jmp	[lp]
	...

0700173c <_timer_clearstat>:
 700173c:	40 bd 00 07 	movhi	1792, r0, r10
 7001740:	4a a1 a8 47 	movea	18344, r10, r10
 7001744:	4a cd 00 00 	ld.w	0[r10],r10
 7001748:	4a a5 20 00 	addi	32, r10, r10
 700174c:	60 bd 00 05 	movhi	1280, r0, r11
 7001750:	6b a1 40 00 	movea	64, r11, r11
 7001754:	6b c1 00 00 	ld.b	0[r11],r11
 7001758:	6b b5 ff 00 	andi	255, r11, r11
 700175c:	6b b1 04 00 	ori	4, r11, r11
 7001760:	6b b5 ff 00 	andi	255, r11, r11
 7001764:	6a d1 00 00 	st.b	r11, 0[r10]
 7001768:	1f 18       	jmp	[lp]
	...

0700176c <_g3d_copyVector3d>:
 700176c:	c3 dc 00 00 	st.w	r6, 0[sp]
 7001770:	e3 dc 04 00 	st.w	r7, 4[sp]
 7001774:	43 cd 00 00 	ld.w	0[sp],r10
 7001778:	6a cd 00 00 	ld.w	0[r10],r11
 700177c:	43 cd 04 00 	ld.w	4[sp],r10
 7001780:	6a dd 00 00 	st.w	r11, 0[r10]
 7001784:	43 cd 00 00 	ld.w	0[sp],r10
 7001788:	6a cd 04 00 	ld.w	4[r10],r11
 700178c:	43 cd 04 00 	ld.w	4[sp],r10
 7001790:	6a dd 04 00 	st.w	r11, 4[r10]
 7001794:	43 cd 00 00 	ld.w	0[sp],r10
 7001798:	6a cd 08 00 	ld.w	8[r10],r11
 700179c:	43 cd 04 00 	ld.w	4[sp],r10
 70017a0:	6a dd 08 00 	st.w	r11, 8[r10]
 70017a4:	43 cd 00 00 	ld.w	0[sp],r10
 70017a8:	6a cd 0c 00 	ld.w	12[r10],r11
 70017ac:	43 cd 04 00 	ld.w	4[sp],r10
 70017b0:	6a dd 0c 00 	st.w	r11, 12[r10]
 70017b4:	43 cd 00 00 	ld.w	0[sp],r10
 70017b8:	6a cd 10 00 	ld.w	16[r10],r11
 70017bc:	43 cd 04 00 	ld.w	4[sp],r10
 70017c0:	6a dd 10 00 	st.w	r11, 16[r10]
 70017c4:	1f 18       	jmp	[lp]
	...

070017c8 <_g3d_scale>:
 70017c8:	63 a4 ec ff 	addi	-20, sp, sp
 70017cc:	e3 df 10 00 	st.w	lp, 16[sp]
 70017d0:	c3 dc 14 00 	st.w	r6, 20[sp]
 70017d4:	e3 dc 18 00 	st.w	r7, 24[sp]
 70017d8:	03 dd 1c 00 	st.w	r8, 28[sp]
 70017dc:	43 cd 14 00 	ld.w	20[sp],r10
 70017e0:	4a cd 00 00 	ld.w	0[r10],r10
 70017e4:	41 4d       	cmp	1, r10
 70017e6:	34 94       	bne	700181a <_g3d_scale+0x52>
 70017e8:	43 cd 14 00 	ld.w	20[sp],r10
 70017ec:	4a cd 04 00 	ld.w	4[r10],r10
 70017f0:	41 4d       	cmp	1, r10
 70017f2:	28 94       	bne	700181a <_g3d_scale+0x52>
 70017f4:	43 cd 14 00 	ld.w	20[sp],r10
 70017f8:	4a cd 08 00 	ld.w	8[r10],r10
 70017fc:	41 4d       	cmp	1, r10
 70017fe:	1c 94       	bne	700181a <_g3d_scale+0x52>
 7001800:	c3 cc 18 00 	ld.w	24[sp],r6
 7001804:	e3 cc 1c 00 	ld.w	28[sp],r7
 7001808:	40 bd 00 07 	movhi	1792, r0, r10
 700180c:	4a a1 6c 17 	movea	5996, r10, r10
 7001810:	00 ac 04 00 	jal	7001814 <_g3d_scale+0x4c>
 7001814:	e4 47       	add	4, lp
 7001816:	0a 18       	jmp	[r10]
 7001818:	a4 8a       	br	70018bc <_g3d_scale+0xf4>
 700181a:	43 cd 18 00 	ld.w	24[sp],r10
 700181e:	aa cd 00 00 	ld.w	0[r10],r13
 7001822:	43 cd 14 00 	ld.w	20[sp],r10
 7001826:	4a cd 00 00 	ld.w	0[r10],r10
 700182a:	63 cd 18 00 	ld.w	24[sp],r11
 700182e:	8b cd 00 00 	ld.w	0[r11],r12
 7001832:	63 cd 14 00 	ld.w	20[sp],r11
 7001836:	6b cd 00 00 	ld.w	0[r11],r11
 700183a:	4d 21       	mul	r13, r10
 700183c:	43 5d       	sar	3, r10
 700183e:	6c 21       	mul	r12, r11
 7001840:	62 5d       	sar	2, r11
 7001842:	6b b5 01 00 	andi	1, r11, r11
 7001846:	4b 05       	add	r11, r10
 7001848:	63 cd 1c 00 	ld.w	28[sp],r11
 700184c:	4b dd 00 00 	st.w	r10, 0[r11]
 7001850:	43 cd 18 00 	ld.w	24[sp],r10
 7001854:	aa cd 04 00 	ld.w	4[r10],r13
 7001858:	43 cd 14 00 	ld.w	20[sp],r10
 700185c:	4a cd 04 00 	ld.w	4[r10],r10
 7001860:	63 cd 18 00 	ld.w	24[sp],r11
 7001864:	8b cd 04 00 	ld.w	4[r11],r12
 7001868:	63 cd 14 00 	ld.w	20[sp],r11
 700186c:	6b cd 04 00 	ld.w	4[r11],r11
 7001870:	4d 21       	mul	r13, r10
 7001872:	43 5d       	sar	3, r10
 7001874:	6c 21       	mul	r12, r11
 7001876:	62 5d       	sar	2, r11
 7001878:	6b b5 01 00 	andi	1, r11, r11
 700187c:	4b 05       	add	r11, r10
 700187e:	63 cd 1c 00 	ld.w	28[sp],r11
 7001882:	4b dd 04 00 	st.w	r10, 4[r11]
 7001886:	43 cd 18 00 	ld.w	24[sp],r10
 700188a:	aa cd 08 00 	ld.w	8[r10],r13
 700188e:	43 cd 14 00 	ld.w	20[sp],r10
 7001892:	4a cd 08 00 	ld.w	8[r10],r10
 7001896:	63 cd 18 00 	ld.w	24[sp],r11
 700189a:	8b cd 08 00 	ld.w	8[r11],r12
 700189e:	63 cd 14 00 	ld.w	20[sp],r11
 70018a2:	6b cd 08 00 	ld.w	8[r11],r11
 70018a6:	4d 21       	mul	r13, r10
 70018a8:	43 5d       	sar	3, r10
 70018aa:	6c 21       	mul	r12, r11
 70018ac:	62 5d       	sar	2, r11
 70018ae:	6b b5 01 00 	andi	1, r11, r11
 70018b2:	4b 05       	add	r11, r10
 70018b4:	63 cd 1c 00 	ld.w	28[sp],r11
 70018b8:	4b dd 08 00 	st.w	r10, 8[r11]
 70018bc:	e3 cf 10 00 	ld.w	16[sp],lp
 70018c0:	63 a4 14 00 	addi	20, sp, sp
 70018c4:	1f 18       	jmp	[lp]
	...

070018c8 <_g3d_rotateXAxis>:
 70018c8:	c3 dc 00 00 	st.w	r6, 0[sp]
 70018cc:	e3 dc 04 00 	st.w	r7, 4[sp]
 70018d0:	03 dd 08 00 	st.w	r8, 8[sp]
 70018d4:	43 cd 04 00 	ld.w	4[sp],r10
 70018d8:	6a cd 00 00 	ld.w	0[r10],r11
 70018dc:	43 cd 08 00 	ld.w	8[sp],r10
 70018e0:	6a dd 00 00 	st.w	r11, 0[r10]
 70018e4:	63 cd 00 00 	ld.w	0[sp],r11
 70018e8:	43 cd 00 00 	ld.w	0[sp],r10
 70018ec:	c3 cd 04 00 	ld.w	4[sp],r14
 70018f0:	e3 cd 04 00 	ld.w	4[sp],r15
 70018f4:	03 ce 08 00 	ld.w	8[sp],r16
 70018f8:	80 bd 00 07 	movhi	1792, r0, r12
 70018fc:	8c a1 cc 47 	movea	18380, r12, r12
 7001900:	62 51       	shl	2, r11
 7001902:	2c 02       	mov	r12, r17
 7001904:	2b 06       	add	r11, r17
 7001906:	60 bd 00 07 	movhi	1792, r0, r11
 700190a:	6b a1 6c 4d 	movea	19820, r11, r11
 700190e:	42 51       	shl	2, r10
 7001910:	4b 02       	mov	r11, r18
 7001912:	4a 06       	add	r10, r18
 7001914:	ee cc 04 00 	ld.w	4[r14],r7
 7001918:	0f cd 08 00 	ld.w	8[r15],r8
 700191c:	51 cd 00 00 	ld.w	0[r17],r10
 7001920:	72 cd 00 00 	ld.w	0[r18],r11
 7001924:	88 01       	mov	r8, r12
 7001926:	8a 21       	mul	r10, r12
 7001928:	83 5d       	sar	3, r12
 700192a:	a7 01       	mov	r7, r13
 700192c:	ab 21       	mul	r11, r13
 700192e:	a3 5d       	sar	3, r13
 7001930:	ac 05       	add	r12, r13
 7001932:	b0 dd 08 00 	st.w	r13, 8[r16]
 7001936:	6b 3d       	not	r11, r11
 7001938:	6b a5 01 00 	addi	1, r11, r11
 700193c:	88 01       	mov	r8, r12
 700193e:	8b 21       	mul	r11, r12
 7001940:	83 5d       	sar	3, r12
 7001942:	aa 01       	mov	r10, r13
 7001944:	a7 21       	mul	r7, r13
 7001946:	a3 5d       	sar	3, r13
 7001948:	ac 05       	add	r12, r13
 700194a:	b0 dd 04 00 	st.w	r13, 4[r16]
 700194e:	1f 18       	jmp	[lp]

07001950 <_g3d_rotateYAxis>:
 7001950:	c3 dc 00 00 	st.w	r6, 0[sp]
 7001954:	e3 dc 04 00 	st.w	r7, 4[sp]
 7001958:	03 dd 08 00 	st.w	r8, 8[sp]
 700195c:	43 cd 04 00 	ld.w	4[sp],r10
 7001960:	6a cd 04 00 	ld.w	4[r10],r11
 7001964:	43 cd 08 00 	ld.w	8[sp],r10
 7001968:	6a dd 04 00 	st.w	r11, 4[r10]
 700196c:	63 cd 00 00 	ld.w	0[sp],r11
 7001970:	43 cd 00 00 	ld.w	0[sp],r10
 7001974:	c3 cd 04 00 	ld.w	4[sp],r14
 7001978:	e3 cd 04 00 	ld.w	4[sp],r15
 700197c:	03 ce 08 00 	ld.w	8[sp],r16
 7001980:	80 bd 00 07 	movhi	1792, r0, r12
 7001984:	8c a1 cc 47 	movea	18380, r12, r12
 7001988:	62 51       	shl	2, r11
 700198a:	2c 02       	mov	r12, r17
 700198c:	2b 06       	add	r11, r17
 700198e:	60 bd 00 07 	movhi	1792, r0, r11
 7001992:	6b a1 6c 4d 	movea	19820, r11, r11
 7001996:	42 51       	shl	2, r10
 7001998:	4b 02       	mov	r11, r18
 700199a:	4a 06       	add	r10, r18
 700199c:	ee cc 08 00 	ld.w	8[r14],r7
 70019a0:	0f cd 00 00 	ld.w	0[r15],r8
 70019a4:	51 cd 00 00 	ld.w	0[r17],r10
 70019a8:	72 cd 00 00 	ld.w	0[r18],r11
 70019ac:	88 01       	mov	r8, r12
 70019ae:	8a 21       	mul	r10, r12
 70019b0:	83 5d       	sar	3, r12
 70019b2:	a7 01       	mov	r7, r13
 70019b4:	ab 21       	mul	r11, r13
 70019b6:	a3 5d       	sar	3, r13
 70019b8:	ac 05       	add	r12, r13
 70019ba:	b0 dd 00 00 	st.w	r13, 0[r16]
 70019be:	6b 3d       	not	r11, r11
 70019c0:	6b a5 01 00 	addi	1, r11, r11
 70019c4:	88 01       	mov	r8, r12
 70019c6:	8b 21       	mul	r11, r12
 70019c8:	83 5d       	sar	3, r12
 70019ca:	aa 01       	mov	r10, r13
 70019cc:	a7 21       	mul	r7, r13
 70019ce:	a3 5d       	sar	3, r13
 70019d0:	ac 05       	add	r12, r13
 70019d2:	b0 dd 08 00 	st.w	r13, 8[r16]
 70019d6:	1f 18       	jmp	[lp]

070019d8 <_g3d_rotateZAxis>:
 70019d8:	c3 dc 00 00 	st.w	r6, 0[sp]
 70019dc:	e3 dc 04 00 	st.w	r7, 4[sp]
 70019e0:	03 dd 08 00 	st.w	r8, 8[sp]
 70019e4:	43 cd 04 00 	ld.w	4[sp],r10
 70019e8:	6a cd 08 00 	ld.w	8[r10],r11
 70019ec:	43 cd 08 00 	ld.w	8[sp],r10
 70019f0:	6a dd 08 00 	st.w	r11, 8[r10]
 70019f4:	63 cd 00 00 	ld.w	0[sp],r11
 70019f8:	43 cd 00 00 	ld.w	0[sp],r10
 70019fc:	c3 cd 04 00 	ld.w	4[sp],r14
 7001a00:	e3 cd 04 00 	ld.w	4[sp],r15
 7001a04:	03 ce 08 00 	ld.w	8[sp],r16
 7001a08:	80 bd 00 07 	movhi	1792, r0, r12
 7001a0c:	8c a1 cc 47 	movea	18380, r12, r12
 7001a10:	62 51       	shl	2, r11
 7001a12:	2c 02       	mov	r12, r17
 7001a14:	2b 06       	add	r11, r17
 7001a16:	60 bd 00 07 	movhi	1792, r0, r11
 7001a1a:	6b a1 6c 4d 	movea	19820, r11, r11
 7001a1e:	42 51       	shl	2, r10
 7001a20:	4b 02       	mov	r11, r18
 7001a22:	4a 06       	add	r10, r18
 7001a24:	ee cc 04 00 	ld.w	4[r14],r7
 7001a28:	0f cd 00 00 	ld.w	0[r15],r8
 7001a2c:	51 cd 00 00 	ld.w	0[r17],r10
 7001a30:	72 cd 00 00 	ld.w	0[r18],r11
 7001a34:	88 01       	mov	r8, r12
 7001a36:	8a 21       	mul	r10, r12
 7001a38:	83 5d       	sar	3, r12
 7001a3a:	a7 01       	mov	r7, r13
 7001a3c:	ab 21       	mul	r11, r13
 7001a3e:	a3 5d       	sar	3, r13
 7001a40:	ac 05       	add	r12, r13
 7001a42:	b0 dd 00 00 	st.w	r13, 0[r16]
 7001a46:	6b 3d       	not	r11, r11
 7001a48:	6b a5 01 00 	addi	1, r11, r11
 7001a4c:	88 01       	mov	r8, r12
 7001a4e:	8b 21       	mul	r11, r12
 7001a50:	83 5d       	sar	3, r12
 7001a52:	aa 01       	mov	r10, r13
 7001a54:	a7 21       	mul	r7, r13
 7001a56:	a3 5d       	sar	3, r13
 7001a58:	ac 05       	add	r12, r13
 7001a5a:	b0 dd 04 00 	st.w	r13, 4[r16]
 7001a5e:	1f 18       	jmp	[lp]

07001a60 <_g3d_rotateAllAxis>:
 7001a60:	63 a4 d8 ff 	addi	-40, sp, sp
 7001a64:	e3 df 24 00 	st.w	lp, 36[sp]
 7001a68:	c3 dc 28 00 	st.w	r6, 40[sp]
 7001a6c:	e3 dc 2c 00 	st.w	r7, 44[sp]
 7001a70:	03 dd 30 00 	st.w	r8, 48[sp]
 7001a74:	23 dd 34 00 	st.w	r9, 52[sp]
 7001a78:	43 cd 28 00 	ld.w	40[sp],r10
 7001a7c:	40 0d       	cmp	r0, r10
 7001a7e:	2e 94       	bne	7001aac <_g3d_rotateAllAxis+0x4c>
 7001a80:	43 cd 2c 00 	ld.w	44[sp],r10
 7001a84:	40 0d       	cmp	r0, r10
 7001a86:	26 94       	bne	7001aac <_g3d_rotateAllAxis+0x4c>
 7001a88:	43 cd 30 00 	ld.w	48[sp],r10
 7001a8c:	40 0d       	cmp	r0, r10
 7001a8e:	1e 94       	bne	7001aac <_g3d_rotateAllAxis+0x4c>
 7001a90:	c3 cc 34 00 	ld.w	52[sp],r6
 7001a94:	e3 cc 38 00 	ld.w	56[sp],r7
 7001a98:	40 bd 00 07 	movhi	1792, r0, r10
 7001a9c:	4a a1 6c 17 	movea	5996, r10, r10
 7001aa0:	00 ac 04 00 	jal	7001aa4 <_g3d_rotateAllAxis+0x44>
 7001aa4:	e4 47       	add	4, lp
 7001aa6:	0a 18       	jmp	[r10]
 7001aa8:	00 a8 34 01 	jr	7001bdc <_g3d_rotateAllAxis+0x17c>
 7001aac:	43 cd 28 00 	ld.w	40[sp],r10
 7001ab0:	40 0d       	cmp	r0, r10
 7001ab2:	0e 9c       	bge	7001ac0 <_g3d_rotateAllAxis+0x60>
 7001ab4:	43 cd 28 00 	ld.w	40[sp],r10
 7001ab8:	4a a5 67 01 	addi	359, r10, r10
 7001abc:	43 dd 28 00 	st.w	r10, 40[sp]
 7001ac0:	43 cd 2c 00 	ld.w	44[sp],r10
 7001ac4:	40 0d       	cmp	r0, r10
 7001ac6:	0e 9c       	bge	7001ad4 <_g3d_rotateAllAxis+0x74>
 7001ac8:	43 cd 2c 00 	ld.w	44[sp],r10
 7001acc:	4a a5 67 01 	addi	359, r10, r10
 7001ad0:	43 dd 2c 00 	st.w	r10, 44[sp]
 7001ad4:	43 cd 30 00 	ld.w	48[sp],r10
 7001ad8:	40 0d       	cmp	r0, r10
 7001ada:	0e 9c       	bge	7001ae8 <_g3d_rotateAllAxis+0x88>
 7001adc:	43 cd 30 00 	ld.w	48[sp],r10
 7001ae0:	4a a5 67 01 	addi	359, r10, r10
 7001ae4:	43 dd 30 00 	st.w	r10, 48[sp]
 7001ae8:	43 a5 10 00 	addi	16, sp, r10
 7001aec:	c3 cc 34 00 	ld.w	52[sp],r6
 7001af0:	ea 00       	mov	r10, r7
 7001af2:	40 bd 00 07 	movhi	1792, r0, r10
 7001af6:	4a a1 6c 17 	movea	5996, r10, r10
 7001afa:	00 ac 04 00 	jal	7001afe <_g3d_rotateAllAxis+0x9e>
 7001afe:	e4 47       	add	4, lp
 7001b00:	0a 18       	jmp	[r10]
 7001b02:	43 cd 28 00 	ld.w	40[sp],r10
 7001b06:	40 0d       	cmp	r0, r10
 7001b08:	3a 84       	be	7001b42 <_g3d_rotateAllAxis+0xe2>
 7001b0a:	43 a5 10 00 	addi	16, sp, r10
 7001b0e:	c3 cc 28 00 	ld.w	40[sp],r6
 7001b12:	ea 00       	mov	r10, r7
 7001b14:	03 cd 38 00 	ld.w	56[sp],r8
 7001b18:	40 bd 00 07 	movhi	1792, r0, r10
 7001b1c:	4a a1 c8 18 	movea	6344, r10, r10
 7001b20:	00 ac 04 00 	jal	7001b24 <_g3d_rotateAllAxis+0xc4>
 7001b24:	e4 47       	add	4, lp
 7001b26:	0a 18       	jmp	[r10]
 7001b28:	43 a5 10 00 	addi	16, sp, r10
 7001b2c:	c3 cc 38 00 	ld.w	56[sp],r6
 7001b30:	ea 00       	mov	r10, r7
 7001b32:	40 bd 00 07 	movhi	1792, r0, r10
 7001b36:	4a a1 6c 17 	movea	5996, r10, r10
 7001b3a:	00 ac 04 00 	jal	7001b3e <_g3d_rotateAllAxis+0xde>
 7001b3e:	e4 47       	add	4, lp
 7001b40:	0a 18       	jmp	[r10]
 7001b42:	43 cd 2c 00 	ld.w	44[sp],r10
 7001b46:	40 0d       	cmp	r0, r10
 7001b48:	3a 84       	be	7001b82 <_g3d_rotateAllAxis+0x122>
 7001b4a:	43 a5 10 00 	addi	16, sp, r10
 7001b4e:	c3 cc 2c 00 	ld.w	44[sp],r6
 7001b52:	ea 00       	mov	r10, r7
 7001b54:	03 cd 38 00 	ld.w	56[sp],r8
 7001b58:	40 bd 00 07 	movhi	1792, r0, r10
 7001b5c:	4a a1 50 19 	movea	6480, r10, r10
 7001b60:	00 ac 04 00 	jal	7001b64 <_g3d_rotateAllAxis+0x104>
 7001b64:	e4 47       	add	4, lp
 7001b66:	0a 18       	jmp	[r10]
 7001b68:	43 a5 10 00 	addi	16, sp, r10
 7001b6c:	c3 cc 38 00 	ld.w	56[sp],r6
 7001b70:	ea 00       	mov	r10, r7
 7001b72:	40 bd 00 07 	movhi	1792, r0, r10
 7001b76:	4a a1 6c 17 	movea	5996, r10, r10
 7001b7a:	00 ac 04 00 	jal	7001b7e <_g3d_rotateAllAxis+0x11e>
 7001b7e:	e4 47       	add	4, lp
 7001b80:	0a 18       	jmp	[r10]
 7001b82:	43 cd 30 00 	ld.w	48[sp],r10
 7001b86:	40 0d       	cmp	r0, r10
 7001b88:	3a 84       	be	7001bc2 <_g3d_rotateAllAxis+0x162>
 7001b8a:	43 a5 10 00 	addi	16, sp, r10
 7001b8e:	c3 cc 30 00 	ld.w	48[sp],r6
 7001b92:	ea 00       	mov	r10, r7
 7001b94:	03 cd 38 00 	ld.w	56[sp],r8
 7001b98:	40 bd 00 07 	movhi	1792, r0, r10
 7001b9c:	4a a1 d8 19 	movea	6616, r10, r10
 7001ba0:	00 ac 04 00 	jal	7001ba4 <_g3d_rotateAllAxis+0x144>
 7001ba4:	e4 47       	add	4, lp
 7001ba6:	0a 18       	jmp	[r10]
 7001ba8:	43 a5 10 00 	addi	16, sp, r10
 7001bac:	c3 cc 38 00 	ld.w	56[sp],r6
 7001bb0:	ea 00       	mov	r10, r7
 7001bb2:	40 bd 00 07 	movhi	1792, r0, r10
 7001bb6:	4a a1 6c 17 	movea	5996, r10, r10
 7001bba:	00 ac 04 00 	jal	7001bbe <_g3d_rotateAllAxis+0x15e>
 7001bbe:	e4 47       	add	4, lp
 7001bc0:	0a 18       	jmp	[r10]
 7001bc2:	43 a5 10 00 	addi	16, sp, r10
 7001bc6:	ca 00       	mov	r10, r6
 7001bc8:	e3 cc 38 00 	ld.w	56[sp],r7
 7001bcc:	40 bd 00 07 	movhi	1792, r0, r10
 7001bd0:	4a a1 6c 17 	movea	5996, r10, r10
 7001bd4:	00 ac 04 00 	jal	7001bd8 <_g3d_rotateAllAxis+0x178>
 7001bd8:	e4 47       	add	4, lp
 7001bda:	0a 18       	jmp	[r10]
 7001bdc:	e3 cf 24 00 	ld.w	36[sp],lp
 7001be0:	63 a4 28 00 	addi	40, sp, sp
 7001be4:	1f 18       	jmp	[lp]
	...

07001be8 <_g3d_translate>:
 7001be8:	c3 dc 00 00 	st.w	r6, 0[sp]
 7001bec:	e3 dc 04 00 	st.w	r7, 4[sp]
 7001bf0:	03 dd 08 00 	st.w	r8, 8[sp]
 7001bf4:	23 dd 0c 00 	st.w	r9, 12[sp]
 7001bf8:	43 cd 0c 00 	ld.w	12[sp],r10
 7001bfc:	6a cd 00 00 	ld.w	0[r10],r11
 7001c00:	43 cd 00 00 	ld.w	0[sp],r10
 7001c04:	6a 05       	add	r10, r11
 7001c06:	43 cd 10 00 	ld.w	16[sp],r10
 7001c0a:	6a dd 00 00 	st.w	r11, 0[r10]
 7001c0e:	43 cd 0c 00 	ld.w	12[sp],r10
 7001c12:	6a cd 04 00 	ld.w	4[r10],r11
 7001c16:	43 cd 04 00 	ld.w	4[sp],r10
 7001c1a:	6a 05       	add	r10, r11
 7001c1c:	43 cd 10 00 	ld.w	16[sp],r10
 7001c20:	6a dd 04 00 	st.w	r11, 4[r10]
 7001c24:	43 cd 0c 00 	ld.w	12[sp],r10
 7001c28:	6a cd 08 00 	ld.w	8[r10],r11
 7001c2c:	43 cd 08 00 	ld.w	8[sp],r10
 7001c30:	6a 05       	add	r10, r11
 7001c32:	43 cd 10 00 	ld.w	16[sp],r10
 7001c36:	6a dd 08 00 	st.w	r11, 8[r10]
 7001c3a:	1f 18       	jmp	[lp]

07001c3c <_g3d_cameraRotateAllAxis>:
 7001c3c:	63 a4 e8 ff 	addi	-24, sp, sp
 7001c40:	e3 df 14 00 	st.w	lp, 20[sp]
 7001c44:	c3 dc 18 00 	st.w	r6, 24[sp]
 7001c48:	e3 dc 1c 00 	st.w	r7, 28[sp]
 7001c4c:	03 dd 20 00 	st.w	r8, 32[sp]
 7001c50:	23 dd 24 00 	st.w	r9, 36[sp]
 7001c54:	43 cd 18 00 	ld.w	24[sp],r10
 7001c58:	4a 3d       	not	r10, r10
 7001c5a:	41 45       	add	1, r10
 7001c5c:	43 dd 18 00 	st.w	r10, 24[sp]
 7001c60:	43 cd 1c 00 	ld.w	28[sp],r10
 7001c64:	4a 3d       	not	r10, r10
 7001c66:	41 45       	add	1, r10
 7001c68:	43 dd 1c 00 	st.w	r10, 28[sp]
 7001c6c:	43 cd 20 00 	ld.w	32[sp],r10
 7001c70:	4a 3d       	not	r10, r10
 7001c72:	41 45       	add	1, r10
 7001c74:	43 dd 20 00 	st.w	r10, 32[sp]
 7001c78:	43 cd 28 00 	ld.w	40[sp],r10
 7001c7c:	43 dd 10 00 	st.w	r10, 16[sp]
 7001c80:	c3 cc 18 00 	ld.w	24[sp],r6
 7001c84:	e3 cc 1c 00 	ld.w	28[sp],r7
 7001c88:	03 cd 20 00 	ld.w	32[sp],r8
 7001c8c:	23 cd 24 00 	ld.w	36[sp],r9
 7001c90:	40 bd 00 07 	movhi	1792, r0, r10
 7001c94:	4a a1 60 1a 	movea	6752, r10, r10
 7001c98:	00 ac 04 00 	jal	7001c9c <_g3d_cameraRotateAllAxis+0x60>
 7001c9c:	e4 47       	add	4, lp
 7001c9e:	0a 18       	jmp	[r10]
 7001ca0:	e3 cf 14 00 	ld.w	20[sp],lp
 7001ca4:	63 a4 18 00 	addi	24, sp, sp
 7001ca8:	1f 18       	jmp	[lp]
	...

07001cac <_g3d_cameraTranslate>:
 7001cac:	c3 dc 00 00 	st.w	r6, 0[sp]
 7001cb0:	e3 dc 04 00 	st.w	r7, 4[sp]
 7001cb4:	03 dd 08 00 	st.w	r8, 8[sp]
 7001cb8:	23 dd 0c 00 	st.w	r9, 12[sp]
 7001cbc:	43 cd 0c 00 	ld.w	12[sp],r10
 7001cc0:	6a cd 00 00 	ld.w	0[r10],r11
 7001cc4:	43 cd 00 00 	ld.w	0[sp],r10
 7001cc8:	6a 09       	sub	r10, r11
 7001cca:	43 cd 10 00 	ld.w	16[sp],r10
 7001cce:	6a dd 00 00 	st.w	r11, 0[r10]
 7001cd2:	43 cd 0c 00 	ld.w	12[sp],r10
 7001cd6:	6a cd 04 00 	ld.w	4[r10],r11
 7001cda:	43 cd 04 00 	ld.w	4[sp],r10
 7001cde:	6a 09       	sub	r10, r11
 7001ce0:	43 cd 10 00 	ld.w	16[sp],r10
 7001ce4:	6a dd 04 00 	st.w	r11, 4[r10]
 7001ce8:	43 cd 0c 00 	ld.w	12[sp],r10
 7001cec:	6a cd 08 00 	ld.w	8[r10],r11
 7001cf0:	43 cd 08 00 	ld.w	8[sp],r10
 7001cf4:	6a 09       	sub	r10, r11
 7001cf6:	43 cd 10 00 	ld.w	16[sp],r10
 7001cfa:	6a dd 08 00 	st.w	r11, 8[r10]
 7001cfe:	1f 18       	jmp	[lp]

07001d00 <_g3d_renderVector3d>:
 7001d00:	63 a4 d4 ff 	addi	-44, sp, sp
 7001d04:	e3 df 28 00 	st.w	lp, 40[sp]
 7001d08:	c3 dc 2c 00 	st.w	r6, 44[sp]
 7001d0c:	e3 dc 30 00 	st.w	r7, 48[sp]
 7001d10:	03 dd 34 00 	st.w	r8, 52[sp]
 7001d14:	49 01       	mov	r9, r10
 7001d16:	43 d1 38 00 	st.b	r10, 56[sp]
 7001d1a:	43 cd 2c 00 	ld.w	44[sp],r10
 7001d1e:	6a a5 9c 00 	addi	156, r10, r11
 7001d22:	43 a5 14 00 	addi	20, sp, r10
 7001d26:	cb 00       	mov	r11, r6
 7001d28:	e3 cc 30 00 	ld.w	48[sp],r7
 7001d2c:	0a 01       	mov	r10, r8
 7001d2e:	40 bd 00 07 	movhi	1792, r0, r10
 7001d32:	4a a1 c8 17 	movea	6088, r10, r10
 7001d36:	00 ac 04 00 	jal	7001d3a <_g3d_renderVector3d+0x3a>
 7001d3a:	e4 47       	add	4, lp
 7001d3c:	0a 18       	jmp	[r10]
 7001d3e:	43 a5 14 00 	addi	20, sp, r10
 7001d42:	ca 00       	mov	r10, r6
 7001d44:	e3 cc 34 00 	ld.w	52[sp],r7
 7001d48:	40 bd 00 07 	movhi	1792, r0, r10
 7001d4c:	4a a1 6c 17 	movea	5996, r10, r10
 7001d50:	00 ac 04 00 	jal	7001d54 <_g3d_renderVector3d+0x54>
 7001d54:	e4 47       	add	4, lp
 7001d56:	0a 18       	jmp	[r10]
 7001d58:	43 cd 2c 00 	ld.w	44[sp],r10
 7001d5c:	8a cd 4c 00 	ld.w	76[r10],r12
 7001d60:	43 cd 2c 00 	ld.w	44[sp],r10
 7001d64:	6a cd 50 00 	ld.w	80[r10],r11
 7001d68:	43 cd 2c 00 	ld.w	44[sp],r10
 7001d6c:	4a cd 54 00 	ld.w	84[r10],r10
 7001d70:	a3 a5 14 00 	addi	20, sp, r13
 7001d74:	a3 dd 10 00 	st.w	r13, 16[sp]
 7001d78:	cc 00       	mov	r12, r6
 7001d7a:	eb 00       	mov	r11, r7
 7001d7c:	0a 01       	mov	r10, r8
 7001d7e:	23 cd 34 00 	ld.w	52[sp],r9
 7001d82:	40 bd 00 07 	movhi	1792, r0, r10
 7001d86:	4a a1 60 1a 	movea	6752, r10, r10
 7001d8a:	00 ac 04 00 	jal	7001d8e <_g3d_renderVector3d+0x8e>
 7001d8e:	e4 47       	add	4, lp
 7001d90:	0a 18       	jmp	[r10]
 7001d92:	43 a5 14 00 	addi	20, sp, r10
 7001d96:	ca 00       	mov	r10, r6
 7001d98:	e3 cc 34 00 	ld.w	52[sp],r7
 7001d9c:	40 bd 00 07 	movhi	1792, r0, r10
 7001da0:	4a a1 6c 17 	movea	5996, r10, r10
 7001da4:	00 ac 04 00 	jal	7001da8 <_g3d_renderVector3d+0xa8>
 7001da8:	e4 47       	add	4, lp
 7001daa:	0a 18       	jmp	[r10]
 7001dac:	43 cd 2c 00 	ld.w	44[sp],r10
 7001db0:	8a cd 24 00 	ld.w	36[r10],r12
 7001db4:	43 cd 2c 00 	ld.w	44[sp],r10
 7001db8:	6a cd 28 00 	ld.w	40[r10],r11
 7001dbc:	43 cd 2c 00 	ld.w	44[sp],r10
 7001dc0:	4a cd 2c 00 	ld.w	44[r10],r10
 7001dc4:	a3 a5 14 00 	addi	20, sp, r13
 7001dc8:	a3 dd 10 00 	st.w	r13, 16[sp]
 7001dcc:	cc 00       	mov	r12, r6
 7001dce:	eb 00       	mov	r11, r7
 7001dd0:	0a 01       	mov	r10, r8
 7001dd2:	23 cd 34 00 	ld.w	52[sp],r9
 7001dd6:	40 bd 00 07 	movhi	1792, r0, r10
 7001dda:	4a a1 e8 1b 	movea	7144, r10, r10
 7001dde:	00 ac 04 00 	jal	7001de2 <_g3d_renderVector3d+0xe2>
 7001de2:	e4 47       	add	4, lp
 7001de4:	0a 18       	jmp	[r10]
 7001de6:	43 a5 14 00 	addi	20, sp, r10
 7001dea:	ca 00       	mov	r10, r6
 7001dec:	e3 cc 34 00 	ld.w	52[sp],r7
 7001df0:	40 bd 00 07 	movhi	1792, r0, r10
 7001df4:	4a a1 6c 17 	movea	5996, r10, r10
 7001df8:	00 ac 04 00 	jal	7001dfc <_g3d_renderVector3d+0xfc>
 7001dfc:	e4 47       	add	4, lp
 7001dfe:	0a 18       	jmp	[r10]
 7001e00:	40 bd 00 05 	movhi	1280, r0, r10
 7001e04:	4a a1 f0 50 	movea	20720, r10, r10
 7001e08:	8a cd 00 00 	ld.w	0[r10],r12
 7001e0c:	40 bd 00 05 	movhi	1280, r0, r10
 7001e10:	4a a1 f0 50 	movea	20720, r10, r10
 7001e14:	6a cd 04 00 	ld.w	4[r10],r11
 7001e18:	40 bd 00 05 	movhi	1280, r0, r10
 7001e1c:	4a a1 f0 50 	movea	20720, r10, r10
 7001e20:	4a cd 08 00 	ld.w	8[r10],r10
 7001e24:	a3 a5 14 00 	addi	20, sp, r13
 7001e28:	a3 dd 10 00 	st.w	r13, 16[sp]
 7001e2c:	cc 00       	mov	r12, r6
 7001e2e:	eb 00       	mov	r11, r7
 7001e30:	0a 01       	mov	r10, r8
 7001e32:	23 cd 34 00 	ld.w	52[sp],r9
 7001e36:	40 bd 00 07 	movhi	1792, r0, r10
 7001e3a:	4a a1 ac 1c 	movea	7340, r10, r10
 7001e3e:	00 ac 04 00 	jal	7001e42 <_g3d_renderVector3d+0x142>
 7001e42:	e4 47       	add	4, lp
 7001e44:	0a 18       	jmp	[r10]
 7001e46:	43 a5 14 00 	addi	20, sp, r10
 7001e4a:	ca 00       	mov	r10, r6
 7001e4c:	e3 cc 34 00 	ld.w	52[sp],r7
 7001e50:	40 bd 00 07 	movhi	1792, r0, r10
 7001e54:	4a a1 6c 17 	movea	5996, r10, r10
 7001e58:	00 ac 04 00 	jal	7001e5c <_g3d_renderVector3d+0x15c>
 7001e5c:	e4 47       	add	4, lp
 7001e5e:	0a 18       	jmp	[r10]
 7001e60:	40 bd 00 05 	movhi	1280, r0, r10
 7001e64:	4a a1 f0 50 	movea	20720, r10, r10
 7001e68:	4a cd 64 00 	ld.w	100[r10],r10
 7001e6c:	40 0d       	cmp	r0, r10
 7001e6e:	22 94       	bne	7001e90 <_g3d_renderVector3d+0x190>
 7001e70:	40 bd 00 05 	movhi	1280, r0, r10
 7001e74:	4a a1 f0 50 	movea	20720, r10, r10
 7001e78:	4a cd 68 00 	ld.w	104[r10],r10
 7001e7c:	40 0d       	cmp	r0, r10
 7001e7e:	12 94       	bne	7001e90 <_g3d_renderVector3d+0x190>
 7001e80:	40 bd 00 05 	movhi	1280, r0, r10
 7001e84:	4a a1 f0 50 	movea	20720, r10, r10
 7001e88:	4a cd 6c 00 	ld.w	108[r10],r10
 7001e8c:	40 0d       	cmp	r0, r10
 7001e8e:	62 84       	be	7001ef0 <_g3d_renderVector3d+0x1f0>
 7001e90:	40 bd 00 05 	movhi	1280, r0, r10
 7001e94:	4a a1 f0 50 	movea	20720, r10, r10
 7001e98:	8a cd 64 00 	ld.w	100[r10],r12
 7001e9c:	40 bd 00 05 	movhi	1280, r0, r10
 7001ea0:	4a a1 f0 50 	movea	20720, r10, r10
 7001ea4:	6a cd 68 00 	ld.w	104[r10],r11
 7001ea8:	40 bd 00 05 	movhi	1280, r0, r10
 7001eac:	4a a1 f0 50 	movea	20720, r10, r10
 7001eb0:	4a cd 6c 00 	ld.w	108[r10],r10
 7001eb4:	a3 a5 14 00 	addi	20, sp, r13
 7001eb8:	a3 dd 10 00 	st.w	r13, 16[sp]
 7001ebc:	cc 00       	mov	r12, r6
 7001ebe:	eb 00       	mov	r11, r7
 7001ec0:	0a 01       	mov	r10, r8
 7001ec2:	23 cd 34 00 	ld.w	52[sp],r9
 7001ec6:	40 bd 00 07 	movhi	1792, r0, r10
 7001eca:	4a a1 3c 1c 	movea	7228, r10, r10
 7001ece:	00 ac 04 00 	jal	7001ed2 <_g3d_renderVector3d+0x1d2>
 7001ed2:	e4 47       	add	4, lp
 7001ed4:	0a 18       	jmp	[r10]
 7001ed6:	43 a5 14 00 	addi	20, sp, r10
 7001eda:	ca 00       	mov	r10, r6
 7001edc:	e3 cc 34 00 	ld.w	52[sp],r7
 7001ee0:	40 bd 00 07 	movhi	1792, r0, r10
 7001ee4:	4a a1 6c 17 	movea	5996, r10, r10
 7001ee8:	00 ac 04 00 	jal	7001eec <_g3d_renderVector3d+0x1ec>
 7001eec:	e4 47       	add	4, lp
 7001eee:	0a 18       	jmp	[r10]
 7001ef0:	43 c1 38 00 	ld.b	56[sp],r10
 7001ef4:	4a b5 ff 00 	andi	255, r10, r10
 7001ef8:	40 0d       	cmp	r0, r10
 7001efa:	dc 94       	bne	7001fd6 <_g3d_renderVector3d+0x2d6>
 7001efc:	43 cd 34 00 	ld.w	52[sp],r10
 7001f00:	6a cd 00 00 	ld.w	0[r10],r11
 7001f04:	43 cd 2c 00 	ld.w	44[sp],r10
 7001f08:	4a cd 08 00 	ld.w	8[r10],r10
 7001f0c:	6a 0d       	cmp	r10, r11
 7001f0e:	12 9c       	bge	7001f20 <_g3d_renderVector3d+0x220>
 7001f10:	43 cd 34 00 	ld.w	52[sp],r10
 7001f14:	6a cd 00 00 	ld.w	0[r10],r11
 7001f18:	43 cd 2c 00 	ld.w	44[sp],r10
 7001f1c:	6a dd 08 00 	st.w	r11, 8[r10]
 7001f20:	43 cd 34 00 	ld.w	52[sp],r10
 7001f24:	6a cd 00 00 	ld.w	0[r10],r11
 7001f28:	43 cd 2c 00 	ld.w	44[sp],r10
 7001f2c:	4a cd 14 00 	ld.w	20[r10],r10
 7001f30:	6a 0d       	cmp	r10, r11
 7001f32:	12 8e       	ble	7001f44 <_g3d_renderVector3d+0x244>
 7001f34:	43 cd 34 00 	ld.w	52[sp],r10
 7001f38:	6a cd 00 00 	ld.w	0[r10],r11
 7001f3c:	43 cd 2c 00 	ld.w	44[sp],r10
 7001f40:	6a dd 14 00 	st.w	r11, 20[r10]
 7001f44:	43 cd 34 00 	ld.w	52[sp],r10
 7001f48:	6a cd 04 00 	ld.w	4[r10],r11
 7001f4c:	43 cd 2c 00 	ld.w	44[sp],r10
 7001f50:	4a cd 0c 00 	ld.w	12[r10],r10
 7001f54:	6a 0d       	cmp	r10, r11
 7001f56:	12 9c       	bge	7001f68 <_g3d_renderVector3d+0x268>
 7001f58:	43 cd 34 00 	ld.w	52[sp],r10
 7001f5c:	6a cd 04 00 	ld.w	4[r10],r11
 7001f60:	43 cd 2c 00 	ld.w	44[sp],r10
 7001f64:	6a dd 0c 00 	st.w	r11, 12[r10]
 7001f68:	43 cd 34 00 	ld.w	52[sp],r10
 7001f6c:	6a cd 04 00 	ld.w	4[r10],r11
 7001f70:	43 cd 2c 00 	ld.w	44[sp],r10
 7001f74:	4a cd 18 00 	ld.w	24[r10],r10
 7001f78:	6a 0d       	cmp	r10, r11
 7001f7a:	12 8e       	ble	7001f8c <_g3d_renderVector3d+0x28c>
 7001f7c:	43 cd 34 00 	ld.w	52[sp],r10
 7001f80:	6a cd 04 00 	ld.w	4[r10],r11
 7001f84:	43 cd 2c 00 	ld.w	44[sp],r10
 7001f88:	6a dd 18 00 	st.w	r11, 24[r10]
 7001f8c:	43 cd 34 00 	ld.w	52[sp],r10
 7001f90:	6a cd 08 00 	ld.w	8[r10],r11
 7001f94:	43 cd 2c 00 	ld.w	44[sp],r10
 7001f98:	4a cd 10 00 	ld.w	16[r10],r10
 7001f9c:	6a 0d       	cmp	r10, r11
 7001f9e:	12 9c       	bge	7001fb0 <_g3d_renderVector3d+0x2b0>
 7001fa0:	43 cd 34 00 	ld.w	52[sp],r10
 7001fa4:	6a cd 08 00 	ld.w	8[r10],r11
 7001fa8:	43 cd 2c 00 	ld.w	44[sp],r10
 7001fac:	6a dd 10 00 	st.w	r11, 16[r10]
 7001fb0:	43 cd 34 00 	ld.w	52[sp],r10
 7001fb4:	6a cd 08 00 	ld.w	8[r10],r11
 7001fb8:	43 cd 2c 00 	ld.w	44[sp],r10
 7001fbc:	4a cd 1c 00 	ld.w	28[r10],r10
 7001fc0:	6a 0d       	cmp	r10, r11
 7001fc2:	76 8e       	ble	7002038 <_g3d_renderVector3d+0x338>
 7001fc4:	43 cd 34 00 	ld.w	52[sp],r10
 7001fc8:	6a cd 08 00 	ld.w	8[r10],r11
 7001fcc:	43 cd 2c 00 	ld.w	44[sp],r10
 7001fd0:	6a dd 1c 00 	st.w	r11, 28[r10]
 7001fd4:	66 8a       	br	700203a <_g3d_renderVector3d+0x33a>
 7001fd6:	43 cd 34 00 	ld.w	52[sp],r10
 7001fda:	6a cd 00 00 	ld.w	0[r10],r11
 7001fde:	43 cd 2c 00 	ld.w	44[sp],r10
 7001fe2:	6a dd 14 00 	st.w	r11, 20[r10]
 7001fe6:	43 cd 2c 00 	ld.w	44[sp],r10
 7001fea:	6a cd 14 00 	ld.w	20[r10],r11
 7001fee:	43 cd 2c 00 	ld.w	44[sp],r10
 7001ff2:	6a dd 08 00 	st.w	r11, 8[r10]
 7001ff6:	43 cd 34 00 	ld.w	52[sp],r10
 7001ffa:	6a cd 04 00 	ld.w	4[r10],r11
 7001ffe:	43 cd 2c 00 	ld.w	44[sp],r10
 7002002:	6a dd 18 00 	st.w	r11, 24[r10]
 7002006:	43 cd 2c 00 	ld.w	44[sp],r10
 700200a:	6a cd 18 00 	ld.w	24[r10],r11
 700200e:	43 cd 2c 00 	ld.w	44[sp],r10
 7002012:	6a dd 0c 00 	st.w	r11, 12[r10]
 7002016:	43 cd 34 00 	ld.w	52[sp],r10
 700201a:	6a cd 08 00 	ld.w	8[r10],r11
 700201e:	43 cd 2c 00 	ld.w	44[sp],r10
 7002022:	6a dd 1c 00 	st.w	r11, 28[r10]
 7002026:	43 cd 2c 00 	ld.w	44[sp],r10
 700202a:	6a cd 1c 00 	ld.w	28[r10],r11
 700202e:	43 cd 2c 00 	ld.w	44[sp],r10
 7002032:	6a dd 10 00 	st.w	r11, 16[r10]
 7002036:	04 8a       	br	700203a <_g3d_renderVector3d+0x33a>
 7002038:	00 9a       	nop	
 700203a:	e3 cf 28 00 	ld.w	40[sp],lp
 700203e:	63 a4 2c 00 	addi	44, sp, sp
 7002042:	1f 18       	jmp	[lp]

07002044 <_g3d_calculateProjection>:
 7002044:	c3 dc 00 00 	st.w	r6, 0[sp]
 7002048:	43 cd 00 00 	ld.w	0[sp],r10
 700204c:	4a a6 0c 00 	addi	12, r10, r18
 7002050:	43 cd 00 00 	ld.w	0[sp],r10
 7002054:	6a a6 10 00 	addi	16, r10, r19
 7002058:	c3 cd 00 00 	ld.w	0[sp],r14
 700205c:	e3 cd 00 00 	ld.w	0[sp],r15
 7002060:	03 ce 00 00 	ld.w	0[sp],r16
 7002064:	40 bd 00 05 	movhi	1280, r0, r10
 7002068:	2a a2 f0 50 	movea	20720, r10, r17
 700206c:	ce cc 00 00 	ld.w	0[r14],r6
 7002070:	ef cc 04 00 	ld.w	4[r15],r7
 7002074:	10 cd 08 00 	ld.w	8[r16],r8
 7002078:	31 cd 8c 00 	ld.w	140[r17],r9
 700207c:	40 a1 c0 00 	movea	192, r0, r10
 7002080:	60 a1 70 00 	movea	112, r0, r11
 7002084:	80 a1 e0 00 	movea	224, r0, r12
 7002088:	43 51       	shl	3, r10
 700208a:	63 51       	shl	3, r11
 700208c:	c9 20       	mul	r9, r6
 700208e:	c2 5c       	sar	2, r6
 7002090:	a6 b5 01 00 	andi	1, r6, r13
 7002094:	c1 5c       	sar	1, r6
 7002096:	cd 04       	add	r13, r6
 7002098:	e9 20       	mul	r9, r7
 700209a:	e2 5c       	sar	2, r7
 700209c:	a7 b5 01 00 	andi	1, r7, r13
 70020a0:	e1 5c       	sar	1, r7
 70020a2:	ed 04       	add	r13, r7
 70020a4:	09 05       	add	r9, r8
 70020a6:	c3 50       	shl	3, r6
 70020a8:	c8 24       	div	r8, r6
 70020aa:	e3 50       	shl	3, r7
 70020ac:	e8 24       	div	r8, r7
 70020ae:	ca 04       	add	r10, r6
 70020b0:	eb 04       	add	r11, r7
 70020b2:	c2 5c       	sar	2, r6
 70020b4:	a6 b5 01 00 	andi	1, r6, r13
 70020b8:	c1 5c       	sar	1, r6
 70020ba:	cd 04       	add	r13, r6
 70020bc:	d2 dc 00 00 	st.w	r6, 0[r18]
 70020c0:	e2 5c       	sar	2, r7
 70020c2:	a7 b5 01 00 	andi	1, r7, r13
 70020c6:	e1 5c       	sar	1, r7
 70020c8:	ed 04       	add	r13, r7
 70020ca:	87 09       	sub	r7, r12
 70020cc:	93 dd 00 00 	st.w	r12, 0[r19]
 70020d0:	1f 18       	jmp	[lp]
	...

070020d4 <_g3d_drawObject>:
 70020d4:	63 a4 a4 ff 	addi	-92, sp, sp
 70020d8:	e3 df 58 00 	st.w	lp, 88[sp]
 70020dc:	c3 dc 5c 00 	st.w	r6, 92[sp]
 70020e0:	43 a5 24 00 	addi	36, sp, r10
 70020e4:	43 dd 4c 00 	st.w	r10, 76[sp]
 70020e8:	43 a5 10 00 	addi	16, sp, r10
 70020ec:	43 dd 50 00 	st.w	r10, 80[sp]
 70020f0:	c3 cc 5c 00 	ld.w	92[sp],r6
 70020f4:	40 bd 00 07 	movhi	1792, r0, r10
 70020f8:	4a a1 c8 24 	movea	9416, r10, r10
 70020fc:	00 ac 04 00 	jal	7002100 <_g3d_drawObject+0x2c>
 7002100:	e4 47       	add	4, lp
 7002102:	0a 18       	jmp	[r10]
 7002104:	43 cd 5c 00 	ld.w	92[sp],r10
 7002108:	4a c1 00 00 	ld.b	0[r10],r10
 700210c:	4a b5 ff 00 	andi	255, r10, r10
 7002110:	40 0d       	cmp	r0, r10
 7002112:	06 94       	bne	7002118 <_g3d_drawObject+0x44>
 7002114:	00 a8 a8 03 	jr	70024bc <_g3d_drawObject+0x3e8>
 7002118:	43 cd 5c 00 	ld.w	92[sp],r10
 700211c:	4a cd c4 00 	ld.w	196[r10],r10
 7002120:	4a cd 00 00 	ld.w	0[r10],r10
 7002124:	43 dd 38 00 	st.w	r10, 56[sp]
 7002128:	43 cd 5c 00 	ld.w	92[sp],r10
 700212c:	4a cd c4 00 	ld.w	196[r10],r10
 7002130:	4a cd 04 00 	ld.w	4[r10],r10
 7002134:	43 dd 3c 00 	st.w	r10, 60[sp]
 7002138:	43 cd 5c 00 	ld.w	92[sp],r10
 700213c:	4a cd c4 00 	ld.w	196[r10],r10
 7002140:	4a cd 08 00 	ld.w	8[r10],r10
 7002144:	43 dd 44 00 	st.w	r10, 68[sp]
 7002148:	03 dc 40 00 	st.w	r0, 64[sp]
 700214c:	03 dc 48 00 	st.w	r0, 72[sp]
 7002150:	22 40       	mov	2, r1
 7002152:	38 70       	ldsr	r1, chcw
 7002154:	40 bd 00 05 	movhi	1280, r0, r10
 7002158:	4a a1 50 00 	movea	80, r10, r10
 700215c:	6a cd 00 00 	ld.w	0[r10],r11
 7002160:	40 bd 00 05 	movhi	1280, r0, r10
 7002164:	4a a1 54 00 	movea	84, r10, r10
 7002168:	6a dd 00 00 	st.w	r11, 0[r10]
 700216c:	d0 8a       	br	700223c <_g3d_drawObject+0x168>
 700216e:	43 cd 5c 00 	ld.w	92[sp],r10
 7002172:	6a cd c4 00 	ld.w	196[r10],r11
 7002176:	43 cd 40 00 	ld.w	64[sp],r10
 700217a:	43 45       	add	3, r10
 700217c:	42 51       	shl	2, r10
 700217e:	4b 05       	add	r11, r10
 7002180:	4a cd 00 00 	ld.w	0[r10],r10
 7002184:	43 dd 24 00 	st.w	r10, 36[sp]
 7002188:	43 cd 5c 00 	ld.w	92[sp],r10
 700218c:	6a cd c4 00 	ld.w	196[r10],r11
 7002190:	43 cd 40 00 	ld.w	64[sp],r10
 7002194:	41 45       	add	1, r10
 7002196:	43 45       	add	3, r10
 7002198:	42 51       	shl	2, r10
 700219a:	4b 05       	add	r11, r10
 700219c:	4a cd 00 00 	ld.w	0[r10],r10
 70021a0:	43 dd 28 00 	st.w	r10, 40[sp]
 70021a4:	43 cd 5c 00 	ld.w	92[sp],r10
 70021a8:	6a cd c4 00 	ld.w	196[r10],r11
 70021ac:	43 cd 40 00 	ld.w	64[sp],r10
 70021b0:	42 45       	add	2, r10
 70021b2:	43 45       	add	3, r10
 70021b4:	42 51       	shl	2, r10
 70021b6:	4b 05       	add	r11, r10
 70021b8:	4a cd 00 00 	ld.w	0[r10],r10
 70021bc:	43 dd 2c 00 	st.w	r10, 44[sp]
 70021c0:	83 a5 24 00 	addi	36, sp, r12
 70021c4:	63 a5 10 00 	addi	16, sp, r11
 70021c8:	43 cd 40 00 	ld.w	64[sp],r10
 70021cc:	40 0d       	cmp	r0, r10
 70021ce:	42 49       	setf	z, r10
 70021d0:	c3 cc 5c 00 	ld.w	92[sp],r6
 70021d4:	ec 00       	mov	r12, r7
 70021d6:	0b 01       	mov	r11, r8
 70021d8:	2a 01       	mov	r10, r9
 70021da:	40 bd 00 07 	movhi	1792, r0, r10
 70021de:	4a a1 00 1d 	movea	7424, r10, r10
 70021e2:	00 ac 04 00 	jal	70021e6 <_g3d_drawObject+0x112>
 70021e6:	e4 47       	add	4, lp
 70021e8:	0a 18       	jmp	[r10]
 70021ea:	43 cd 48 00 	ld.w	72[sp],r10
 70021ee:	60 bd 00 05 	movhi	1280, r0, r11
 70021f2:	6b a1 d0 02 	movea	720, r11, r11
 70021f6:	42 51       	shl	2, r10
 70021f8:	8a 01       	mov	r10, r12
 70021fa:	82 51       	shl	2, r12
 70021fc:	4c 05       	add	r12, r10
 70021fe:	4b 05       	add	r11, r10
 7002200:	63 cd 10 00 	ld.w	16[sp],r11
 7002204:	6a dd 00 00 	st.w	r11, 0[r10]
 7002208:	63 cd 14 00 	ld.w	20[sp],r11
 700220c:	6a dd 04 00 	st.w	r11, 4[r10]
 7002210:	63 cd 18 00 	ld.w	24[sp],r11
 7002214:	6a dd 08 00 	st.w	r11, 8[r10]
 7002218:	63 cd 1c 00 	ld.w	28[sp],r11
 700221c:	6a dd 0c 00 	st.w	r11, 12[r10]
 7002220:	63 cd 20 00 	ld.w	32[sp],r11
 7002224:	6a dd 10 00 	st.w	r11, 16[r10]
 7002228:	43 cd 48 00 	ld.w	72[sp],r10
 700222c:	41 45       	add	1, r10
 700222e:	43 dd 48 00 	st.w	r10, 72[sp]
 7002232:	43 cd 40 00 	ld.w	64[sp],r10
 7002236:	43 45       	add	3, r10
 7002238:	43 dd 40 00 	st.w	r10, 64[sp]
 700223c:	63 cd 40 00 	ld.w	64[sp],r11
 7002240:	43 cd 38 00 	ld.w	56[sp],r10
 7002244:	6a 0d       	cmp	r10, r11
 7002246:	28 8d       	blt	700216e <_g3d_drawObject+0x9a>
 7002248:	40 bd 00 05 	movhi	1280, r0, r10
 700224c:	4a a1 50 00 	movea	80, r10, r10
 7002250:	6a cd 00 00 	ld.w	0[r10],r11
 7002254:	40 bd 00 05 	movhi	1280, r0, r10
 7002258:	4a a1 58 00 	movea	88, r10, r10
 700225c:	6a dd 00 00 	st.w	r11, 0[r10]
 7002260:	40 bd 00 05 	movhi	1280, r0, r10
 7002264:	4a a1 58 00 	movea	88, r10, r10
 7002268:	6a cd 00 00 	ld.w	0[r10],r11
 700226c:	40 bd 00 05 	movhi	1280, r0, r10
 7002270:	4a a1 54 00 	movea	84, r10, r10
 7002274:	4a cd 00 00 	ld.w	0[r10],r10
 7002278:	6a 09       	sub	r10, r11
 700227a:	40 bd 00 05 	movhi	1280, r0, r10
 700227e:	4a a1 60 00 	movea	96, r10, r10
 7002282:	4a cd 00 00 	ld.w	0[r10],r10
 7002286:	6a 05       	add	r10, r11
 7002288:	40 bd 00 05 	movhi	1280, r0, r10
 700228c:	4a a1 60 00 	movea	96, r10, r10
 7002290:	6a dd 00 00 	st.w	r11, 0[r10]
 7002294:	18 70       	ldsr	r0, chcw
 7002296:	00 a8 0e 02 	jr	70024a4 <_g3d_drawObject+0x3d0>
 700229a:	43 cd 5c 00 	ld.w	92[sp],r10
 700229e:	6a cd c4 00 	ld.w	196[r10],r11
 70022a2:	43 cd 40 00 	ld.w	64[sp],r10
 70022a6:	43 45       	add	3, r10
 70022a8:	42 51       	shl	2, r10
 70022aa:	4b 05       	add	r11, r10
 70022ac:	4a cd 00 00 	ld.w	0[r10],r10
 70022b0:	42 51       	shl	2, r10
 70022b2:	6a 01       	mov	r10, r11
 70022b4:	62 51       	shl	2, r11
 70022b6:	4b 05       	add	r11, r10
 70022b8:	60 bd 00 05 	movhi	1280, r0, r11
 70022bc:	6b a1 d0 02 	movea	720, r11, r11
 70022c0:	4b 05       	add	r11, r10
 70022c2:	43 dd 4c 00 	st.w	r10, 76[sp]
 70022c6:	41 41       	mov	1, r10
 70022c8:	43 dd 48 00 	st.w	r10, 72[sp]
 70022cc:	00 a8 be 01 	jr	700248a <_g3d_drawObject+0x3b6>
 70022d0:	43 cd 40 00 	ld.w	64[sp],r10
 70022d4:	41 45       	add	1, r10
 70022d6:	43 dd 40 00 	st.w	r10, 64[sp]
 70022da:	43 cd 5c 00 	ld.w	92[sp],r10
 70022de:	6a cd c4 00 	ld.w	196[r10],r11
 70022e2:	43 cd 40 00 	ld.w	64[sp],r10
 70022e6:	43 45       	add	3, r10
 70022e8:	42 51       	shl	2, r10
 70022ea:	4b 05       	add	r11, r10
 70022ec:	4a cd 00 00 	ld.w	0[r10],r10
 70022f0:	42 51       	shl	2, r10
 70022f2:	6a 01       	mov	r10, r11
 70022f4:	62 51       	shl	2, r11
 70022f6:	4b 05       	add	r11, r10
 70022f8:	60 bd 00 05 	movhi	1280, r0, r11
 70022fc:	6b a1 d0 02 	movea	720, r11, r11
 7002300:	4b 05       	add	r11, r10
 7002302:	43 dd 50 00 	st.w	r10, 80[sp]
 7002306:	43 cd 4c 00 	ld.w	76[sp],r10
 700230a:	6a cd 08 00 	ld.w	8[r10],r11
 700230e:	40 bd 00 05 	movhi	1280, r0, r10
 7002312:	4a a1 f0 50 	movea	20720, r10, r10
 7002316:	4a cd 8c 00 	ld.w	140[r10],r10
 700231a:	6a 0d       	cmp	r10, r11
 700231c:	1e 9e       	bgt	700233a <_g3d_drawObject+0x266>
 700231e:	43 cd 50 00 	ld.w	80[sp],r10
 7002322:	6a cd 08 00 	ld.w	8[r10],r11
 7002326:	40 bd 00 05 	movhi	1280, r0, r10
 700232a:	4a a1 f0 50 	movea	20720, r10, r10
 700232e:	4a cd 8c 00 	ld.w	140[r10],r10
 7002332:	6a 0d       	cmp	r10, r11
 7002334:	06 9e       	bgt	700233a <_g3d_drawObject+0x266>
 7002336:	00 a8 32 01 	jr	7002468 <_g3d_drawObject+0x394>
 700233a:	40 bd 00 05 	movhi	1280, r0, r10
 700233e:	4a a1 50 00 	movea	80, r10, r10
 7002342:	6a cd 00 00 	ld.w	0[r10],r11
 7002346:	40 bd 00 05 	movhi	1280, r0, r10
 700234a:	4a a1 54 00 	movea	84, r10, r10
 700234e:	6a dd 00 00 	st.w	r11, 0[r10]
 7002352:	c3 cc 4c 00 	ld.w	76[sp],r6
 7002356:	e3 cc 50 00 	ld.w	80[sp],r7
 700235a:	40 bd 00 07 	movhi	1792, r0, r10
 700235e:	4a a1 80 26 	movea	9856, r10, r10
 7002362:	00 ac 04 00 	jal	7002366 <_g3d_drawObject+0x292>
 7002366:	e4 47       	add	4, lp
 7002368:	0a 18       	jmp	[r10]
 700236a:	c3 cc 4c 00 	ld.w	76[sp],r6
 700236e:	40 bd 00 07 	movhi	1792, r0, r10
 7002372:	4a a1 44 20 	movea	8260, r10, r10
 7002376:	00 ac 04 00 	jal	700237a <_g3d_drawObject+0x2a6>
 700237a:	e4 47       	add	4, lp
 700237c:	0a 18       	jmp	[r10]
 700237e:	c3 cc 50 00 	ld.w	80[sp],r6
 7002382:	40 bd 00 07 	movhi	1792, r0, r10
 7002386:	4a a1 44 20 	movea	8260, r10, r10
 700238a:	00 ac 04 00 	jal	700238e <_g3d_drawObject+0x2ba>
 700238e:	e4 47       	add	4, lp
 7002390:	0a 18       	jmp	[r10]
 7002392:	40 bd 00 05 	movhi	1280, r0, r10
 7002396:	4a a1 50 00 	movea	80, r10, r10
 700239a:	6a cd 00 00 	ld.w	0[r10],r11
 700239e:	40 bd 00 05 	movhi	1280, r0, r10
 70023a2:	4a a1 58 00 	movea	88, r10, r10
 70023a6:	6a dd 00 00 	st.w	r11, 0[r10]
 70023aa:	40 bd 00 05 	movhi	1280, r0, r10
 70023ae:	4a a1 58 00 	movea	88, r10, r10
 70023b2:	6a cd 00 00 	ld.w	0[r10],r11
 70023b6:	40 bd 00 05 	movhi	1280, r0, r10
 70023ba:	4a a1 54 00 	movea	84, r10, r10
 70023be:	4a cd 00 00 	ld.w	0[r10],r10
 70023c2:	6a 09       	sub	r10, r11
 70023c4:	40 bd 00 05 	movhi	1280, r0, r10
 70023c8:	4a a1 64 00 	movea	100, r10, r10
 70023cc:	4a cd 00 00 	ld.w	0[r10],r10
 70023d0:	6a 05       	add	r10, r11
 70023d2:	40 bd 00 05 	movhi	1280, r0, r10
 70023d6:	4a a1 64 00 	movea	100, r10, r10
 70023da:	6a dd 00 00 	st.w	r11, 0[r10]
 70023de:	40 bd 00 05 	movhi	1280, r0, r10
 70023e2:	4a a1 50 00 	movea	80, r10, r10
 70023e6:	6a cd 00 00 	ld.w	0[r10],r11
 70023ea:	40 bd 00 05 	movhi	1280, r0, r10
 70023ee:	4a a1 54 00 	movea	84, r10, r10
 70023f2:	6a dd 00 00 	st.w	r11, 0[r10]
 70023f6:	43 cd 5c 00 	ld.w	92[sp],r10
 70023fa:	4a c1 02 00 	ld.b	2[r10],r10
 70023fe:	4a b5 ff 00 	andi	255, r10, r10
 7002402:	c3 cc 4c 00 	ld.w	76[sp],r6
 7002406:	e3 cc 50 00 	ld.w	80[sp],r7
 700240a:	0a 01       	mov	r10, r8
 700240c:	40 bd 00 07 	movhi	1792, r0, r10
 7002410:	4a a1 c4 29 	movea	10692, r10, r10
 7002414:	00 ac 04 00 	jal	7002418 <_g3d_drawObject+0x344>
 7002418:	e4 47       	add	4, lp
 700241a:	0a 18       	jmp	[r10]
 700241c:	40 bd 00 05 	movhi	1280, r0, r10
 7002420:	4a a1 50 00 	movea	80, r10, r10
 7002424:	6a cd 00 00 	ld.w	0[r10],r11
 7002428:	40 bd 00 05 	movhi	1280, r0, r10
 700242c:	4a a1 58 00 	movea	88, r10, r10
 7002430:	6a dd 00 00 	st.w	r11, 0[r10]
 7002434:	40 bd 00 05 	movhi	1280, r0, r10
 7002438:	4a a1 58 00 	movea	88, r10, r10
 700243c:	6a cd 00 00 	ld.w	0[r10],r11
 7002440:	40 bd 00 05 	movhi	1280, r0, r10
 7002444:	4a a1 54 00 	movea	84, r10, r10
 7002448:	4a cd 00 00 	ld.w	0[r10],r10
 700244c:	6a 09       	sub	r10, r11
 700244e:	40 bd 00 05 	movhi	1280, r0, r10
 7002452:	4a a1 5c 00 	movea	92, r10, r10
 7002456:	4a cd 00 00 	ld.w	0[r10],r10
 700245a:	6a 05       	add	r10, r11
 700245c:	40 bd 00 05 	movhi	1280, r0, r10
 7002460:	4a a1 5c 00 	movea	92, r10, r10
 7002464:	6a dd 00 00 	st.w	r11, 0[r10]
 7002468:	43 cd 50 00 	ld.w	80[sp],r10
 700246c:	43 dd 54 00 	st.w	r10, 84[sp]
 7002470:	43 cd 50 00 	ld.w	80[sp],r10
 7002474:	43 dd 4c 00 	st.w	r10, 76[sp]
 7002478:	43 cd 54 00 	ld.w	84[sp],r10
 700247c:	43 dd 50 00 	st.w	r10, 80[sp]
 7002480:	43 cd 48 00 	ld.w	72[sp],r10
 7002484:	41 45       	add	1, r10
 7002486:	43 dd 48 00 	st.w	r10, 72[sp]
 700248a:	63 cd 48 00 	ld.w	72[sp],r11
 700248e:	43 cd 44 00 	ld.w	68[sp],r10
 7002492:	6a 0d       	cmp	r10, r11
 7002494:	06 9c       	bge	700249a <_g3d_drawObject+0x3c6>
 7002496:	ff ab 3a fe 	jr	70022d0 <_g3d_drawObject+0x1fc>
 700249a:	43 cd 40 00 	ld.w	64[sp],r10
 700249e:	41 45       	add	1, r10
 70024a0:	43 dd 40 00 	st.w	r10, 64[sp]
 70024a4:	63 cd 3c 00 	ld.w	60[sp],r11
 70024a8:	43 cd 38 00 	ld.w	56[sp],r10
 70024ac:	6a 05       	add	r10, r11
 70024ae:	43 cd 40 00 	ld.w	64[sp],r10
 70024b2:	6a 0d       	cmp	r10, r11
 70024b4:	06 8e       	ble	70024ba <_g3d_drawObject+0x3e6>
 70024b6:	ff ab e4 fd 	jr	700229a <_g3d_drawObject+0x1c6>
 70024ba:	04 8a       	br	70024be <_g3d_drawObject+0x3ea>
 70024bc:	00 9a       	nop	
 70024be:	e3 cf 58 00 	ld.w	88[sp],lp
 70024c2:	63 a4 5c 00 	addi	92, sp, sp
 70024c6:	1f 18       	jmp	[lp]

070024c8 <_g3d_clipObject>:
 70024c8:	63 a4 c0 ff 	addi	-64, sp, sp
 70024cc:	e3 df 3c 00 	st.w	lp, 60[sp]
 70024d0:	c3 dc 40 00 	st.w	r6, 64[sp]
 70024d4:	43 cd 40 00 	ld.w	64[sp],r10
 70024d8:	4a cd 24 00 	ld.w	36[r10],r10
 70024dc:	43 dd 14 00 	st.w	r10, 20[sp]
 70024e0:	43 cd 40 00 	ld.w	64[sp],r10
 70024e4:	4a cd 28 00 	ld.w	40[r10],r10
 70024e8:	43 dd 18 00 	st.w	r10, 24[sp]
 70024ec:	43 cd 40 00 	ld.w	64[sp],r10
 70024f0:	4a cd 2c 00 	ld.w	44[r10],r10
 70024f4:	43 dd 1c 00 	st.w	r10, 28[sp]
 70024f8:	40 bd 00 05 	movhi	1280, r0, r10
 70024fc:	4a a1 f0 50 	movea	20720, r10, r10
 7002500:	aa cd 00 00 	ld.w	0[r10],r13
 7002504:	40 bd 00 05 	movhi	1280, r0, r10
 7002508:	4a a1 f0 50 	movea	20720, r10, r10
 700250c:	8a cd 04 00 	ld.w	4[r10],r12
 7002510:	40 bd 00 05 	movhi	1280, r0, r10
 7002514:	4a a1 f0 50 	movea	20720, r10, r10
 7002518:	6a cd 08 00 	ld.w	8[r10],r11
 700251c:	43 a5 14 00 	addi	20, sp, r10
 7002520:	c3 a5 28 00 	addi	40, sp, r14
 7002524:	c3 dd 10 00 	st.w	r14, 16[sp]
 7002528:	cd 00       	mov	r13, r6
 700252a:	ec 00       	mov	r12, r7
 700252c:	0b 01       	mov	r11, r8
 700252e:	2a 01       	mov	r10, r9
 7002530:	40 bd 00 07 	movhi	1792, r0, r10
 7002534:	4a a1 ac 1c 	movea	7340, r10, r10
 7002538:	00 ac 04 00 	jal	700253c <_g3d_clipObject+0x74>
 700253c:	e4 47       	add	4, lp
 700253e:	0a 18       	jmp	[r10]
 7002540:	63 a5 28 00 	addi	40, sp, r11
 7002544:	43 a5 14 00 	addi	20, sp, r10
 7002548:	cb 00       	mov	r11, r6
 700254a:	ea 00       	mov	r10, r7
 700254c:	40 bd 00 07 	movhi	1792, r0, r10
 7002550:	4a a1 6c 17 	movea	5996, r10, r10
 7002554:	00 ac 04 00 	jal	7002558 <_g3d_clipObject+0x90>
 7002558:	e4 47       	add	4, lp
 700255a:	0a 18       	jmp	[r10]
 700255c:	40 bd 00 05 	movhi	1280, r0, r10
 7002560:	4a a1 f0 50 	movea	20720, r10, r10
 7002564:	4a cd 64 00 	ld.w	100[r10],r10
 7002568:	40 0d       	cmp	r0, r10
 700256a:	22 94       	bne	700258c <_g3d_clipObject+0xc4>
 700256c:	40 bd 00 05 	movhi	1280, r0, r10
 7002570:	4a a1 f0 50 	movea	20720, r10, r10
 7002574:	4a cd 68 00 	ld.w	104[r10],r10
 7002578:	40 0d       	cmp	r0, r10
 700257a:	12 94       	bne	700258c <_g3d_clipObject+0xc4>
 700257c:	40 bd 00 05 	movhi	1280, r0, r10
 7002580:	4a a1 f0 50 	movea	20720, r10, r10
 7002584:	4a cd 6c 00 	ld.w	108[r10],r10
 7002588:	40 0d       	cmp	r0, r10
 700258a:	66 84       	be	70025f0 <_g3d_clipObject+0x128>
 700258c:	40 bd 00 05 	movhi	1280, r0, r10
 7002590:	4a a1 f0 50 	movea	20720, r10, r10
 7002594:	aa cd 64 00 	ld.w	100[r10],r13
 7002598:	40 bd 00 05 	movhi	1280, r0, r10
 700259c:	4a a1 f0 50 	movea	20720, r10, r10
 70025a0:	8a cd 68 00 	ld.w	104[r10],r12
 70025a4:	40 bd 00 05 	movhi	1280, r0, r10
 70025a8:	4a a1 f0 50 	movea	20720, r10, r10
 70025ac:	6a cd 6c 00 	ld.w	108[r10],r11
 70025b0:	43 a5 14 00 	addi	20, sp, r10
 70025b4:	c3 a5 28 00 	addi	40, sp, r14
 70025b8:	c3 dd 10 00 	st.w	r14, 16[sp]
 70025bc:	cd 00       	mov	r13, r6
 70025be:	ec 00       	mov	r12, r7
 70025c0:	0b 01       	mov	r11, r8
 70025c2:	2a 01       	mov	r10, r9
 70025c4:	40 bd 00 07 	movhi	1792, r0, r10
 70025c8:	4a a1 3c 1c 	movea	7228, r10, r10
 70025cc:	00 ac 04 00 	jal	70025d0 <_g3d_clipObject+0x108>
 70025d0:	e4 47       	add	4, lp
 70025d2:	0a 18       	jmp	[r10]
 70025d4:	63 a5 28 00 	addi	40, sp, r11
 70025d8:	43 a5 14 00 	addi	20, sp, r10
 70025dc:	cb 00       	mov	r11, r6
 70025de:	ea 00       	mov	r10, r7
 70025e0:	40 bd 00 07 	movhi	1792, r0, r10
 70025e4:	4a a1 6c 17 	movea	5996, r10, r10
 70025e8:	00 ac 04 00 	jal	70025ec <_g3d_clipObject+0x124>
 70025ec:	e4 47       	add	4, lp
 70025ee:	0a 18       	jmp	[r10]
 70025f0:	43 a5 14 00 	addi	20, sp, r10
 70025f4:	ca 00       	mov	r10, r6
 70025f6:	40 bd 00 07 	movhi	1792, r0, r10
 70025fa:	4a a1 44 20 	movea	8260, r10, r10
 70025fe:	00 ac 04 00 	jal	7002602 <_g3d_clipObject+0x13a>
 7002602:	e4 47       	add	4, lp
 7002604:	0a 18       	jmp	[r10]
 7002606:	43 cd 40 00 	ld.w	64[sp],r10
 700260a:	61 41       	mov	1, r11
 700260c:	6a d1 00 00 	st.b	r11, 0[r10]
 7002610:	43 cd 20 00 	ld.w	32[sp],r10
 7002614:	40 0d       	cmp	r0, r10
 7002616:	0e 8c       	blt	7002624 <_g3d_clipObject+0x15c>
 7002618:	63 cd 20 00 	ld.w	32[sp],r11
 700261c:	40 a1 80 01 	movea	384, r0, r10
 7002620:	6a 0d       	cmp	r10, r11
 7002622:	0a 8e       	ble	700262c <_g3d_clipObject+0x164>
 7002624:	43 cd 40 00 	ld.w	64[sp],r10
 7002628:	0a d0 00 00 	st.b	r0, 0[r10]
 700262c:	43 cd 24 00 	ld.w	36[sp],r10
 7002630:	40 0d       	cmp	r0, r10
 7002632:	0e 8c       	blt	7002640 <_g3d_clipObject+0x178>
 7002634:	63 cd 24 00 	ld.w	36[sp],r11
 7002638:	40 a1 e0 00 	movea	224, r0, r10
 700263c:	6a 0d       	cmp	r10, r11
 700263e:	0a 8e       	ble	7002648 <_g3d_clipObject+0x180>
 7002640:	43 cd 40 00 	ld.w	64[sp],r10
 7002644:	0a d0 00 00 	st.b	r0, 0[r10]
 7002648:	63 cd 1c 00 	ld.w	28[sp],r11
 700264c:	40 bd 00 05 	movhi	1280, r0, r10
 7002650:	4a a1 f0 50 	movea	20720, r10, r10
 7002654:	4a cd 8c 00 	ld.w	140[r10],r10
 7002658:	41 5d       	sar	1, r10
 700265a:	6a 0d       	cmp	r10, r11
 700265c:	12 8c       	blt	700266e <_g3d_clipObject+0x1a6>
 700265e:	63 cd 1c 00 	ld.w	28[sp],r11
 7002662:	40 bd 01 00 	movhi	1, r0, r10
 7002666:	4a a1 80 38 	movea	14464, r10, r10
 700266a:	6a 0d       	cmp	r10, r11
 700266c:	0a 8e       	ble	7002676 <_g3d_clipObject+0x1ae>
 700266e:	43 cd 40 00 	ld.w	64[sp],r10
 7002672:	0a d0 00 00 	st.b	r0, 0[r10]
 7002676:	e3 cf 3c 00 	ld.w	60[sp],lp
 700267a:	63 a4 40 00 	addi	64, sp, sp
 700267e:	1f 18       	jmp	[lp]

07002680 <_g3d_clipZAxis>:
 7002680:	63 a4 e4 ff 	addi	-28, sp, sp
 7002684:	c3 dc 1c 00 	st.w	r6, 28[sp]
 7002688:	e3 dc 20 00 	st.w	r7, 32[sp]
 700268c:	43 cd 1c 00 	ld.w	28[sp],r10
 7002690:	6a cd 08 00 	ld.w	8[r10],r11
 7002694:	40 bd 00 05 	movhi	1280, r0, r10
 7002698:	4a a1 f0 50 	movea	20720, r10, r10
 700269c:	4a cd 8c 00 	ld.w	140[r10],r10
 70026a0:	6a 0d       	cmp	r10, r11
 70026a2:	1e 8e       	ble	70026c0 <_g3d_clipZAxis+0x40>
 70026a4:	43 cd 20 00 	ld.w	32[sp],r10
 70026a8:	6a cd 08 00 	ld.w	8[r10],r11
 70026ac:	40 bd 00 05 	movhi	1280, r0, r10
 70026b0:	4a a1 f0 50 	movea	20720, r10, r10
 70026b4:	4a cd 8c 00 	ld.w	140[r10],r10
 70026b8:	6a 0d       	cmp	r10, r11
 70026ba:	06 8e       	ble	70026c0 <_g3d_clipZAxis+0x40>
 70026bc:	00 a8 72 01 	jr	700282e <_g3d_clipZAxis+0x1ae>
 70026c0:	43 cd 1c 00 	ld.w	28[sp],r10
 70026c4:	6a cd 08 00 	ld.w	8[r10],r11
 70026c8:	40 bd 00 05 	movhi	1280, r0, r10
 70026cc:	4a a1 f0 50 	movea	20720, r10, r10
 70026d0:	4a cd 8c 00 	ld.w	140[r10],r10
 70026d4:	6a 0d       	cmp	r10, r11
 70026d6:	1e 9c       	bge	70026f4 <_g3d_clipZAxis+0x74>
 70026d8:	43 cd 20 00 	ld.w	32[sp],r10
 70026dc:	6a cd 08 00 	ld.w	8[r10],r11
 70026e0:	40 bd 00 05 	movhi	1280, r0, r10
 70026e4:	4a a1 f0 50 	movea	20720, r10, r10
 70026e8:	4a cd 8c 00 	ld.w	140[r10],r10
 70026ec:	6a 0d       	cmp	r10, r11
 70026ee:	06 9c       	bge	70026f4 <_g3d_clipZAxis+0x74>
 70026f0:	00 a8 42 01 	jr	7002832 <_g3d_clipZAxis+0x1b2>
 70026f4:	43 cd 1c 00 	ld.w	28[sp],r10
 70026f8:	6a cd 08 00 	ld.w	8[r10],r11
 70026fc:	40 bd 00 05 	movhi	1280, r0, r10
 7002700:	4a a1 f0 50 	movea	20720, r10, r10
 7002704:	4a cd 8c 00 	ld.w	140[r10],r10
 7002708:	6a 0d       	cmp	r10, r11
 700270a:	14 9c       	bge	700271e <_g3d_clipZAxis+0x9e>
 700270c:	43 cd 1c 00 	ld.w	28[sp],r10
 7002710:	43 dd 14 00 	st.w	r10, 20[sp]
 7002714:	43 cd 20 00 	ld.w	32[sp],r10
 7002718:	43 dd 18 00 	st.w	r10, 24[sp]
 700271c:	12 8a       	br	700272e <_g3d_clipZAxis+0xae>
 700271e:	43 cd 20 00 	ld.w	32[sp],r10
 7002722:	43 dd 14 00 	st.w	r10, 20[sp]
 7002726:	43 cd 1c 00 	ld.w	28[sp],r10
 700272a:	43 dd 18 00 	st.w	r10, 24[sp]
 700272e:	43 cd 18 00 	ld.w	24[sp],r10
 7002732:	6a cd 08 00 	ld.w	8[r10],r11
 7002736:	43 cd 14 00 	ld.w	20[sp],r10
 700273a:	4a cd 08 00 	ld.w	8[r10],r10
 700273e:	8b 01       	mov	r11, r12
 7002740:	8a 09       	sub	r10, r12
 7002742:	4c 01       	mov	r12, r10
 7002744:	44 5d       	sar	4, r10
 7002746:	43 dd 00 00 	st.w	r10, 0[sp]
 700274a:	43 cd 18 00 	ld.w	24[sp],r10
 700274e:	6a cd 00 00 	ld.w	0[r10],r11
 7002752:	43 cd 14 00 	ld.w	20[sp],r10
 7002756:	4a cd 00 00 	ld.w	0[r10],r10
 700275a:	8b 01       	mov	r11, r12
 700275c:	8a 09       	sub	r10, r12
 700275e:	4c 01       	mov	r12, r10
 7002760:	44 5d       	sar	4, r10
 7002762:	43 dd 04 00 	st.w	r10, 4[sp]
 7002766:	43 cd 18 00 	ld.w	24[sp],r10
 700276a:	6a cd 04 00 	ld.w	4[r10],r11
 700276e:	43 cd 14 00 	ld.w	20[sp],r10
 7002772:	4a cd 04 00 	ld.w	4[r10],r10
 7002776:	8b 01       	mov	r11, r12
 7002778:	8a 09       	sub	r10, r12
 700277a:	4c 01       	mov	r12, r10
 700277c:	44 5d       	sar	4, r10
 700277e:	43 dd 08 00 	st.w	r10, 8[sp]
 7002782:	40 bd 00 05 	movhi	1280, r0, r10
 7002786:	4a a1 f0 50 	movea	20720, r10, r10
 700278a:	6a cd 8c 00 	ld.w	140[r10],r11
 700278e:	43 cd 14 00 	ld.w	20[sp],r10
 7002792:	4a cd 08 00 	ld.w	8[r10],r10
 7002796:	8b 01       	mov	r11, r12
 7002798:	8a 09       	sub	r10, r12
 700279a:	4c 01       	mov	r12, r10
 700279c:	43 dd 0c 00 	st.w	r10, 12[sp]
 70027a0:	43 cd 00 00 	ld.w	0[sp],r10
 70027a4:	40 0d       	cmp	r0, r10
 70027a6:	3a 8e       	ble	70027e0 <_g3d_clipZAxis+0x160>
 70027a8:	1e 8a       	br	70027c6 <_g3d_clipZAxis+0x146>
 70027aa:	63 cd 0c 00 	ld.w	12[sp],r11
 70027ae:	43 cd 00 00 	ld.w	0[sp],r10
 70027b2:	8b 01       	mov	r11, r12
 70027b4:	8a 09       	sub	r10, r12
 70027b6:	4c 01       	mov	r12, r10
 70027b8:	43 dd 0c 00 	st.w	r10, 12[sp]
 70027bc:	43 cd 10 00 	ld.w	16[sp],r10
 70027c0:	41 45       	add	1, r10
 70027c2:	43 dd 10 00 	st.w	r10, 16[sp]
 70027c6:	43 cd 0c 00 	ld.w	12[sp],r10
 70027ca:	40 0d       	cmp	r0, r10
 70027cc:	de 9f       	bgt	70027aa <_g3d_clipZAxis+0x12a>
 70027ce:	43 cd 10 00 	ld.w	16[sp],r10
 70027d2:	40 0d       	cmp	r0, r10
 70027d4:	0c 8e       	ble	70027e0 <_g3d_clipZAxis+0x160>
 70027d6:	43 cd 10 00 	ld.w	16[sp],r10
 70027da:	5f 45       	add	-1, r10
 70027dc:	43 dd 10 00 	st.w	r10, 16[sp]
 70027e0:	40 bd 00 05 	movhi	1280, r0, r10
 70027e4:	4a a1 f0 50 	movea	20720, r10, r10
 70027e8:	6a cd 8c 00 	ld.w	140[r10],r11
 70027ec:	43 cd 14 00 	ld.w	20[sp],r10
 70027f0:	6a dd 08 00 	st.w	r11, 8[r10]
 70027f4:	43 cd 14 00 	ld.w	20[sp],r10
 70027f8:	6a cd 00 00 	ld.w	0[r10],r11
 70027fc:	83 cd 04 00 	ld.w	4[sp],r12
 7002800:	43 cd 10 00 	ld.w	16[sp],r10
 7002804:	4c 21       	mul	r12, r10
 7002806:	6a 05       	add	r10, r11
 7002808:	43 cd 14 00 	ld.w	20[sp],r10
 700280c:	6a dd 00 00 	st.w	r11, 0[r10]
 7002810:	43 cd 14 00 	ld.w	20[sp],r10
 7002814:	6a cd 04 00 	ld.w	4[r10],r11
 7002818:	83 cd 08 00 	ld.w	8[sp],r12
 700281c:	43 cd 10 00 	ld.w	16[sp],r10
 7002820:	4c 21       	mul	r12, r10
 7002822:	6a 05       	add	r10, r11
 7002824:	43 cd 14 00 	ld.w	20[sp],r10
 7002828:	6a dd 04 00 	st.w	r11, 4[r10]
 700282c:	08 8a       	br	7002834 <_g3d_clipZAxis+0x1b4>
 700282e:	00 9a       	nop	
 7002830:	04 8a       	br	7002834 <_g3d_clipZAxis+0x1b4>
 7002832:	00 9a       	nop	
 7002834:	63 a4 1c 00 	addi	28, sp, sp
 7002838:	1f 18       	jmp	[lp]
	...

0700283c <_drawPoint>:
 700283c:	74 44       	add	-12, sp
 700283e:	c3 dc 0c 00 	st.w	r6, 12[sp]
 7002842:	e3 dc 10 00 	st.w	r7, 16[sp]
 7002846:	48 01       	mov	r8, r10
 7002848:	23 dd 18 00 	st.w	r9, 24[sp]
 700284c:	43 d1 14 00 	st.b	r10, 20[sp]
 7002850:	43 cd 10 00 	ld.w	16[sp],r10
 7002854:	40 0d       	cmp	r0, r10
 7002856:	06 9c       	bge	700285c <_drawPoint+0x20>
 7002858:	00 a8 48 01 	jr	70029a0 <_drawPoint+0x164>
 700285c:	63 cd 10 00 	ld.w	16[sp],r11
 7002860:	40 a1 e0 00 	movea	224, r0, r10
 7002864:	6a 0d       	cmp	r10, r11
 7002866:	06 8e       	ble	700286c <_drawPoint+0x30>
 7002868:	00 a8 3c 01 	jr	70029a4 <_drawPoint+0x168>
 700286c:	43 cd 0c 00 	ld.w	12[sp],r10
 7002870:	40 0d       	cmp	r0, r10
 7002872:	06 9c       	bge	7002878 <_drawPoint+0x3c>
 7002874:	00 a8 34 01 	jr	70029a8 <_drawPoint+0x16c>
 7002878:	63 cd 0c 00 	ld.w	12[sp],r11
 700287c:	40 a1 80 01 	movea	384, r0, r10
 7002880:	6a 0d       	cmp	r10, r11
 7002882:	06 8e       	ble	7002888 <_drawPoint+0x4c>
 7002884:	00 a8 28 01 	jr	70029ac <_drawPoint+0x170>
 7002888:	63 cd 18 00 	ld.w	24[sp],r11
 700288c:	40 a1 14 00 	movea	20, r0, r10
 7002890:	6a 0d       	cmp	r10, r11
 7002892:	0a 8e       	ble	700289c <_drawPoint+0x60>
 7002894:	40 a1 14 00 	movea	20, r0, r10
 7002898:	43 dd 18 00 	st.w	r10, 24[sp]
 700289c:	63 cd 0c 00 	ld.w	12[sp],r11
 70028a0:	43 cd 18 00 	ld.w	24[sp],r10
 70028a4:	8b 01       	mov	r11, r12
 70028a6:	8a 09       	sub	r10, r12
 70028a8:	4c 01       	mov	r12, r10
 70028aa:	6a 01       	mov	r10, r11
 70028ac:	64 51       	shl	4, r11
 70028ae:	43 cd 10 00 	ld.w	16[sp],r10
 70028b2:	44 5d       	sar	4, r10
 70028b4:	4b 05       	add	r11, r10
 70028b6:	43 dd 00 00 	st.w	r10, 0[sp]
 70028ba:	43 cd 18 00 	ld.w	24[sp],r10
 70028be:	6a 01       	mov	r10, r11
 70028c0:	65 51       	shl	5, r11
 70028c2:	43 cd 00 00 	ld.w	0[sp],r10
 70028c6:	4b 05       	add	r11, r10
 70028c8:	43 dd 04 00 	st.w	r10, 4[sp]
 70028cc:	63 cd 00 00 	ld.w	0[sp],r11
 70028d0:	40 a1 00 18 	movea	6144, r0, r10
 70028d4:	6a 0d       	cmp	r10, r11
 70028d6:	da 9e       	bgt	70029b0 <_drawPoint+0x174>
 70028d8:	43 cd 00 00 	ld.w	0[sp],r10
 70028dc:	40 0d       	cmp	r0, r10
 70028de:	d6 8c       	blt	70029b4 <_drawPoint+0x178>
 70028e0:	63 cd 04 00 	ld.w	4[sp],r11
 70028e4:	40 a1 00 18 	movea	6144, r0, r10
 70028e8:	6a 0d       	cmp	r10, r11
 70028ea:	ce 9e       	bgt	70029b8 <_drawPoint+0x17c>
 70028ec:	43 cd 04 00 	ld.w	4[sp],r10
 70028f0:	40 0d       	cmp	r0, r10
 70028f2:	ca 8c       	blt	70029bc <_drawPoint+0x180>
 70028f4:	43 c1 14 00 	ld.b	20[sp],r10
 70028f8:	4a b5 03 00 	andi	3, r10, r10
 70028fc:	43 d1 14 00 	st.b	r10, 20[sp]
 7002900:	43 cd 10 00 	ld.w	16[sp],r10
 7002904:	4a b5 0f 00 	andi	15, r10, r10
 7002908:	4a 05       	add	r10, r10
 700290a:	43 d1 0b 00 	st.b	r10, 11[sp]
 700290e:	40 bd 00 05 	movhi	1280, r0, r10
 7002912:	4a a1 04 00 	movea	4, r10, r10
 7002916:	6a cd 00 00 	ld.w	0[r10],r11
 700291a:	43 cd 00 00 	ld.w	0[sp],r10
 700291e:	42 51       	shl	2, r10
 7002920:	6a 05       	add	r10, r11
 7002922:	40 bd 00 05 	movhi	1280, r0, r10
 7002926:	4a a1 04 00 	movea	4, r10, r10
 700292a:	8a cd 00 00 	ld.w	0[r10],r12
 700292e:	43 cd 00 00 	ld.w	0[sp],r10
 7002932:	42 51       	shl	2, r10
 7002934:	4c 05       	add	r12, r10
 7002936:	8a cd 00 00 	ld.w	0[r10],r12
 700293a:	43 c1 14 00 	ld.b	20[sp],r10
 700293e:	4a b5 ff 00 	andi	255, r10, r10
 7002942:	a3 c1 0b 00 	ld.b	11[sp],r13
 7002946:	ad b5 ff 00 	andi	255, r13, r13
 700294a:	4d 11       	shl	r13, r10
 700294c:	4c 31       	or	r12, r10
 700294e:	4b dd 00 00 	st.w	r10, 0[r11]
 7002952:	40 bd 00 05 	movhi	1280, r0, r10
 7002956:	4a a1 04 00 	movea	4, r10, r10
 700295a:	6a cd 00 00 	ld.w	0[r10],r11
 700295e:	43 cd 04 00 	ld.w	4[sp],r10
 7002962:	4a a5 00 40 	addi	16384, r10, r10
 7002966:	42 51       	shl	2, r10
 7002968:	6a 05       	add	r10, r11
 700296a:	40 bd 00 05 	movhi	1280, r0, r10
 700296e:	4a a1 04 00 	movea	4, r10, r10
 7002972:	8a cd 00 00 	ld.w	0[r10],r12
 7002976:	43 cd 04 00 	ld.w	4[sp],r10
 700297a:	4a a5 00 40 	addi	16384, r10, r10
 700297e:	42 51       	shl	2, r10
 7002980:	4c 05       	add	r12, r10
 7002982:	8a cd 00 00 	ld.w	0[r10],r12
 7002986:	43 c1 14 00 	ld.b	20[sp],r10
 700298a:	4a b5 ff 00 	andi	255, r10, r10
 700298e:	a3 c1 0b 00 	ld.b	11[sp],r13
 7002992:	ad b5 ff 00 	andi	255, r13, r13
 7002996:	4d 11       	shl	r13, r10
 7002998:	4c 31       	or	r12, r10
 700299a:	4b dd 00 00 	st.w	r10, 0[r11]
 700299e:	20 8a       	br	70029be <_drawPoint+0x182>
 70029a0:	00 9a       	nop	
 70029a2:	1c 8a       	br	70029be <_drawPoint+0x182>
 70029a4:	00 9a       	nop	
 70029a6:	18 8a       	br	70029be <_drawPoint+0x182>
 70029a8:	00 9a       	nop	
 70029aa:	14 8a       	br	70029be <_drawPoint+0x182>
 70029ac:	00 9a       	nop	
 70029ae:	10 8a       	br	70029be <_drawPoint+0x182>
 70029b0:	00 9a       	nop	
 70029b2:	0c 8a       	br	70029be <_drawPoint+0x182>
 70029b4:	00 9a       	nop	
 70029b6:	08 8a       	br	70029be <_drawPoint+0x182>
 70029b8:	00 9a       	nop	
 70029ba:	04 8a       	br	70029be <_drawPoint+0x182>
 70029bc:	00 9a       	nop	
 70029be:	6c 44       	add	12, sp
 70029c0:	1f 18       	jmp	[lp]
	...

070029c4 <_g3d_drawLine>:
 70029c4:	63 a4 98 ff 	addi	-104, sp, sp
 70029c8:	e3 df 64 00 	st.w	lp, 100[sp]
 70029cc:	a3 de 60 00 	st.w	r21, 96[sp]
 70029d0:	c3 de 5c 00 	st.w	r22, 92[sp]
 70029d4:	e3 de 58 00 	st.w	r23, 88[sp]
 70029d8:	03 df 54 00 	st.w	r24, 84[sp]
 70029dc:	23 df 50 00 	st.w	r25, 80[sp]
 70029e0:	43 df 4c 00 	st.w	r26, 76[sp]
 70029e4:	63 df 48 00 	st.w	r27, 72[sp]
 70029e8:	83 df 44 00 	st.w	r28, 68[sp]
 70029ec:	a3 df 40 00 	st.w	r29, 64[sp]
 70029f0:	c3 dc 68 00 	st.w	r6, 104[sp]
 70029f4:	e3 dc 6c 00 	st.w	r7, 108[sp]
 70029f8:	48 01       	mov	r8, r10
 70029fa:	43 d1 70 00 	st.b	r10, 112[sp]
 70029fe:	43 cd 68 00 	ld.w	104[sp],r10
 7002a02:	4a cd 0c 00 	ld.w	12[r10],r10
 7002a06:	43 dd 34 00 	st.w	r10, 52[sp]
 7002a0a:	43 cd 68 00 	ld.w	104[sp],r10
 7002a0e:	4a cd 10 00 	ld.w	16[r10],r10
 7002a12:	43 dd 30 00 	st.w	r10, 48[sp]
 7002a16:	43 cd 6c 00 	ld.w	108[sp],r10
 7002a1a:	4a cd 0c 00 	ld.w	12[r10],r10
 7002a1e:	43 dd 38 00 	st.w	r10, 56[sp]
 7002a22:	43 cd 6c 00 	ld.w	108[sp],r10
 7002a26:	4a cd 10 00 	ld.w	16[r10],r10
 7002a2a:	43 dd 3c 00 	st.w	r10, 60[sp]
 7002a2e:	43 cd 34 00 	ld.w	52[sp],r10
 7002a32:	63 cd 38 00 	ld.w	56[sp],r11
 7002a36:	8b 01       	mov	r11, r12
 7002a38:	8a 09       	sub	r10, r12
 7002a3a:	4c 01       	mov	r12, r10
 7002a3c:	43 dd 28 00 	st.w	r10, 40[sp]
 7002a40:	43 cd 30 00 	ld.w	48[sp],r10
 7002a44:	63 cd 3c 00 	ld.w	60[sp],r11
 7002a48:	ab 01       	mov	r11, r13
 7002a4a:	aa 09       	sub	r10, r13
 7002a4c:	4d 01       	mov	r13, r10
 7002a4e:	43 dd 24 00 	st.w	r10, 36[sp]
 7002a52:	43 cd 68 00 	ld.w	104[sp],r10
 7002a56:	aa cd 08 00 	ld.w	8[r10],r13
 7002a5a:	43 cd 6c 00 	ld.w	108[sp],r10
 7002a5e:	4a cd 08 00 	ld.w	8[r10],r10
 7002a62:	63 cd 68 00 	ld.w	104[sp],r11
 7002a66:	8b cd 08 00 	ld.w	8[r11],r12
 7002a6a:	63 cd 6c 00 	ld.w	108[sp],r11
 7002a6e:	6b cd 08 00 	ld.w	8[r11],r11
 7002a72:	cd 01       	mov	r13, r14
 7002a74:	ca 09       	sub	r10, r14
 7002a76:	4e 01       	mov	r14, r10
 7002a78:	43 5d       	sar	3, r10
 7002a7a:	ac 01       	mov	r12, r13
 7002a7c:	ab 09       	sub	r11, r13
 7002a7e:	6d 01       	mov	r13, r11
 7002a80:	62 5d       	sar	2, r11
 7002a82:	6b b5 01 00 	andi	1, r11, r11
 7002a86:	4b 05       	add	r11, r10
 7002a88:	41 45       	add	1, r10
 7002a8a:	4a 3d       	not	r10, r10
 7002a8c:	43 dd 20 00 	st.w	r10, 32[sp]
 7002a90:	43 cd 28 00 	ld.w	40[sp],r10
 7002a94:	40 0d       	cmp	r0, r10
 7002a96:	06 9c       	bge	7002a9c <_g3d_drawLine+0xd8>
 7002a98:	5f 41       	mov	-1, r10
 7002a9a:	04 8a       	br	7002a9e <_g3d_drawLine+0xda>
 7002a9c:	41 41       	mov	1, r10
 7002a9e:	43 dd 1c 00 	st.w	r10, 28[sp]
 7002aa2:	43 cd 24 00 	ld.w	36[sp],r10
 7002aa6:	40 0d       	cmp	r0, r10
 7002aa8:	06 9c       	bge	7002aae <_g3d_drawLine+0xea>
 7002aaa:	5f 41       	mov	-1, r10
 7002aac:	04 8a       	br	7002ab0 <_g3d_drawLine+0xec>
 7002aae:	41 41       	mov	1, r10
 7002ab0:	43 dd 18 00 	st.w	r10, 24[sp]
 7002ab4:	43 cd 20 00 	ld.w	32[sp],r10
 7002ab8:	40 0d       	cmp	r0, r10
 7002aba:	06 9c       	bge	7002ac0 <_g3d_drawLine+0xfc>
 7002abc:	5f 41       	mov	-1, r10
 7002abe:	04 8a       	br	7002ac2 <_g3d_drawLine+0xfe>
 7002ac0:	41 41       	mov	1, r10
 7002ac2:	43 dd 14 00 	st.w	r10, 20[sp]
 7002ac6:	43 cd 28 00 	ld.w	40[sp],r10
 7002aca:	40 0d       	cmp	r0, r10
 7002acc:	0e 9c       	bge	7002ada <_g3d_drawLine+0x116>
 7002ace:	43 cd 28 00 	ld.w	40[sp],r10
 7002ad2:	4a 3d       	not	r10, r10
 7002ad4:	41 45       	add	1, r10
 7002ad6:	43 dd 28 00 	st.w	r10, 40[sp]
 7002ada:	43 cd 24 00 	ld.w	36[sp],r10
 7002ade:	40 0d       	cmp	r0, r10
 7002ae0:	0e 9c       	bge	7002aee <_g3d_drawLine+0x12a>
 7002ae2:	43 cd 24 00 	ld.w	36[sp],r10
 7002ae6:	4a 3d       	not	r10, r10
 7002ae8:	41 45       	add	1, r10
 7002aea:	43 dd 24 00 	st.w	r10, 36[sp]
 7002aee:	43 cd 20 00 	ld.w	32[sp],r10
 7002af2:	40 0d       	cmp	r0, r10
 7002af4:	0e 9c       	bge	7002b02 <_g3d_drawLine+0x13e>
 7002af6:	43 cd 20 00 	ld.w	32[sp],r10
 7002afa:	4a 3d       	not	r10, r10
 7002afc:	41 45       	add	1, r10
 7002afe:	43 dd 20 00 	st.w	r10, 32[sp]
 7002b02:	43 cd 24 00 	ld.w	36[sp],r10
 7002b06:	63 cd 28 00 	ld.w	40[sp],r11
 7002b0a:	4b 0d       	cmp	r11, r10
 7002b0c:	04 9c       	bge	7002b10 <_g3d_drawLine+0x14c>
 7002b0e:	4b 01       	mov	r11, r10
 7002b10:	41 45       	add	1, r10
 7002b12:	43 dd 10 00 	st.w	r10, 16[sp]
 7002b16:	43 cd 68 00 	ld.w	104[sp],r10
 7002b1a:	4a cd 08 00 	ld.w	8[r10],r10
 7002b1e:	43 dd 2c 00 	st.w	r10, 44[sp]
 7002b22:	22 40       	mov	2, r1
 7002b24:	38 70       	ldsr	r1, chcw
 7002b26:	40 bd 00 05 	movhi	1280, r0, r10
 7002b2a:	ea a3 04 00 	movea	4, r10, lp
 7002b2e:	c3 cc 24 00 	ld.w	36[sp],r6
 7002b32:	e3 cc 28 00 	ld.w	40[sp],r7
 7002b36:	03 cd 0c 00 	ld.w	12[sp],r8
 7002b3a:	23 cd 14 00 	ld.w	20[sp],r9
 7002b3e:	43 cd 20 00 	ld.w	32[sp],r10
 7002b42:	63 cd 10 00 	ld.w	16[sp],r11
 7002b46:	83 cd 30 00 	ld.w	48[sp],r12
 7002b4a:	a3 cd 18 00 	ld.w	24[sp],r13
 7002b4e:	c3 cd 2c 00 	ld.w	44[sp],r14
 7002b52:	e3 cd 34 00 	ld.w	52[sp],r15
 7002b56:	03 ce 1c 00 	ld.w	28[sp],r16
 7002b5a:	23 ce 08 00 	ld.w	8[sp],r17
 7002b5e:	43 ce 04 00 	ld.w	4[sp],r18
 7002b62:	63 c2 03 00 	ld.b	3[sp],r19
 7002b66:	a0 a2 e0 00 	movea	224, r0, r21
 7002b6a:	c0 a2 80 01 	movea	384, r0, r22
 7002b6e:	e0 a2 14 00 	movea	20, r0, r23
 7002b72:	1f cf 00 00 	ld.w	0[lp],r24
 7002b76:	20 a3 00 40 	movea	16384, r0, r25
 7002b7a:	22 53       	shl	2, r25
 7002b7c:	e6 0c       	cmp	r6, r7
 7002b7e:	a4 8e       	ble	7002c22 <_dxltdy>
 7002b80:	07 01       	mov	r7, r8
 7002b82:	01 5d       	sar	1, r8
 7002b84:	87 03       	mov	r7, r28
 7002b86:	e0 0c       	cmp	r0, r7
 7002b88:	04 94       	bne	7002b8c <_nextLine1>
 7002b8a:	81 43       	mov	1, r28

07002b8c <_nextLine1>:
 7002b8c:	aa 03       	mov	r10, r29
 7002b8e:	a3 53       	shl	3, r29
 7002b90:	bc 27       	div	r28, r29
 7002b92:	3d 21       	mul	r29, r9

07002b94 <_lineLoop1Top>:
 7002b94:	60 0d       	cmp	r0, r11
 7002b96:	8c 8e       	ble	7002c22 <_dxltdy>
 7002b98:	6b a5 ff ff 	addi	-1, r11, r11
 7002b9c:	63 c3 70 00 	ld.b	112[sp],r27
 7002ba0:	4e 03       	mov	r14, r26
 7002ba2:	43 5f       	sar	3, r26
 7002ba4:	48 5f       	sar	8, r26
 7002ba6:	80 0d       	cmp	r0, r12
 7002ba8:	68 8c       	blt	7002c10 <_endDrawPoint1>
 7002baa:	ac 0e       	cmp	r12, r21
 7002bac:	64 8c       	blt	7002c10 <_endDrawPoint1>
 7002bae:	e0 0d       	cmp	r0, r15
 7002bb0:	60 8c       	blt	7002c10 <_endDrawPoint1>
 7002bb2:	cf 0e       	cmp	r15, r22
 7002bb4:	5c 8c       	blt	7002c10 <_endDrawPoint1>
 7002bb6:	fa 0e       	cmp	r26, r23
 7002bb8:	04 9e       	bgt	7002bbc <_nextPoint1>
 7002bba:	57 03       	mov	r23, r26

07002bbc <_nextPoint1>:
 7002bbc:	2c 02       	mov	r12, r17
 7002bbe:	24 5e       	sar	4, r17
 7002bc0:	8f 03       	mov	r15, r28
 7002bc2:	9a 0b       	sub	r26, r28
 7002bc4:	84 53       	shl	4, r28
 7002bc6:	3c 06       	add	r28, r17
 7002bc8:	5a 02       	mov	r26, r18
 7002bca:	45 52       	shl	5, r18
 7002bcc:	51 06       	add	r17, r18
 7002bce:	80 a3 ff 17 	movea	6143, r0, r28
 7002bd2:	3c 0e       	cmp	r28, r17
 7002bd4:	3c 9c       	bge	7002c10 <_endDrawPoint1>
 7002bd6:	20 0e       	cmp	r0, r17
 7002bd8:	38 8c       	blt	7002c10 <_endDrawPoint1>
 7002bda:	5c 0e       	cmp	r28, r18
 7002bdc:	34 9c       	bge	7002c10 <_endDrawPoint1>
 7002bde:	40 0e       	cmp	r0, r18
 7002be0:	30 8c       	blt	7002c10 <_endDrawPoint1>
 7002be2:	7b b7 03 00 	andi	3, r27, r27
 7002be6:	6c b6 0f 00 	andi	15, r12, r19
 7002bea:	61 52       	shl	1, r19
 7002bec:	91 03       	mov	r17, r28
 7002bee:	82 53       	shl	2, r28
 7002bf0:	98 07       	add	r24, r28
 7002bf2:	bc cf 00 00 	ld.w	0[r28],r29
 7002bf6:	73 13       	shl	r19, r27
 7002bf8:	bb 33       	or	r27, r29
 7002bfa:	bc df 00 00 	st.w	r29, 0[r28]
 7002bfe:	92 03       	mov	r18, r28
 7002c00:	82 53       	shl	2, r28
 7002c02:	99 07       	add	r25, r28
 7002c04:	98 07       	add	r24, r28
 7002c06:	bc cf 00 00 	ld.w	0[r28],r29
 7002c0a:	bb 33       	or	r27, r29
 7002c0c:	bc df 00 00 	st.w	r29, 0[r28]

07002c10 <_endDrawPoint1>:
 7002c10:	06 05       	add	r6, r8
 7002c12:	e8 0c       	cmp	r8, r7
 7002c14:	06 9e       	bgt	7002c1a <_nextLine2>
 7002c16:	8d 05       	add	r13, r12
 7002c18:	07 09       	sub	r7, r8

07002c1a <_nextLine2>:
 7002c1a:	c9 05       	add	r9, r14
 7002c1c:	f0 05       	add	r16, r15
 7002c1e:	ff ab 76 ff 	jr	7002b94 <_lineLoop1Top>

07002c22 <_dxltdy>:
 7002c22:	06 01       	mov	r6, r8
 7002c24:	01 5d       	sar	1, r8
 7002c26:	86 03       	mov	r6, r28
 7002c28:	c0 0c       	cmp	r0, r6
 7002c2a:	04 94       	bne	7002c2e <_nextLine3>
 7002c2c:	81 43       	mov	1, r28

07002c2e <_nextLine3>:
 7002c2e:	aa 03       	mov	r10, r29
 7002c30:	a3 53       	shl	3, r29
 7002c32:	bc 27       	div	r28, r29
 7002c34:	3d 21       	mul	r29, r9

07002c36 <_lineLoop2Top>:
 7002c36:	60 0d       	cmp	r0, r11
 7002c38:	90 8e       	ble	7002cc8 <_end>
 7002c3a:	6b a5 ff ff 	addi	-1, r11, r11
 7002c3e:	63 c3 70 00 	ld.b	112[sp],r27
 7002c42:	4e 03       	mov	r14, r26
 7002c44:	43 5f       	sar	3, r26
 7002c46:	48 5f       	sar	8, r26
 7002c48:	80 0d       	cmp	r0, r12
 7002c4a:	6c 8c       	blt	7002cb6 <_endDrawPoint2>
 7002c4c:	ac 0e       	cmp	r12, r21
 7002c4e:	68 8c       	blt	7002cb6 <_endDrawPoint2>
 7002c50:	e0 0d       	cmp	r0, r15
 7002c52:	64 8c       	blt	7002cb6 <_endDrawPoint2>
 7002c54:	cf 0e       	cmp	r15, r22
 7002c56:	60 8c       	blt	7002cb6 <_endDrawPoint2>
 7002c58:	fa 0e       	cmp	r26, r23
 7002c5a:	04 9e       	bgt	7002c5e <_nextPoint2>
 7002c5c:	57 03       	mov	r23, r26

07002c5e <_nextPoint2>:
 7002c5e:	2c 02       	mov	r12, r17
 7002c60:	24 5e       	sar	4, r17
 7002c62:	8f 03       	mov	r15, r28
 7002c64:	9a 0b       	sub	r26, r28
 7002c66:	84 53       	shl	4, r28
 7002c68:	3c 06       	add	r28, r17
 7002c6a:	5a 02       	mov	r26, r18
 7002c6c:	45 52       	shl	5, r18
 7002c6e:	51 06       	add	r17, r18
 7002c70:	80 a3 00 18 	movea	6144, r0, r28
 7002c74:	3c 0e       	cmp	r28, r17
 7002c76:	40 9c       	bge	7002cb6 <_endDrawPoint2>
 7002c78:	20 0e       	cmp	r0, r17
 7002c7a:	3c 8c       	blt	7002cb6 <_endDrawPoint2>
 7002c7c:	80 a3 00 18 	movea	6144, r0, r28
 7002c80:	5c 0e       	cmp	r28, r18
 7002c82:	34 9c       	bge	7002cb6 <_endDrawPoint2>
 7002c84:	40 0e       	cmp	r0, r18
 7002c86:	30 8c       	blt	7002cb6 <_endDrawPoint2>
 7002c88:	7b b7 03 00 	andi	3, r27, r27
 7002c8c:	6c b6 0f 00 	andi	15, r12, r19
 7002c90:	61 52       	shl	1, r19
 7002c92:	91 03       	mov	r17, r28
 7002c94:	82 53       	shl	2, r28
 7002c96:	98 07       	add	r24, r28
 7002c98:	bc cf 00 00 	ld.w	0[r28],r29
 7002c9c:	73 13       	shl	r19, r27
 7002c9e:	bb 33       	or	r27, r29
 7002ca0:	bc df 00 00 	st.w	r29, 0[r28]
 7002ca4:	92 03       	mov	r18, r28
 7002ca6:	82 53       	shl	2, r28
 7002ca8:	99 07       	add	r25, r28
 7002caa:	98 07       	add	r24, r28
 7002cac:	bc cf 00 00 	ld.w	0[r28],r29
 7002cb0:	bb 33       	or	r27, r29
 7002cb2:	bc df 00 00 	st.w	r29, 0[r28]

07002cb6 <_endDrawPoint2>:
 7002cb6:	07 05       	add	r7, r8
 7002cb8:	c8 0c       	cmp	r8, r6
 7002cba:	06 9e       	bgt	7002cc0 <_nextLine4>
 7002cbc:	f0 05       	add	r16, r15
 7002cbe:	06 09       	sub	r6, r8

07002cc0 <_nextLine4>:
 7002cc0:	c9 05       	add	r9, r14
 7002cc2:	8d 05       	add	r13, r12
 7002cc4:	ff ab 72 ff 	jr	7002c36 <_lineLoop2Top>

07002cc8 <_end>:
 7002cc8:	18 70       	ldsr	r0, chcw
 7002cca:	e3 cf 64 00 	ld.w	100[sp],lp
 7002cce:	a3 ce 60 00 	ld.w	96[sp],r21
 7002cd2:	c3 ce 5c 00 	ld.w	92[sp],r22
 7002cd6:	e3 ce 58 00 	ld.w	88[sp],r23
 7002cda:	03 cf 54 00 	ld.w	84[sp],r24
 7002cde:	23 cf 50 00 	ld.w	80[sp],r25
 7002ce2:	43 cf 4c 00 	ld.w	76[sp],r26
 7002ce6:	63 cf 48 00 	ld.w	72[sp],r27
 7002cea:	83 cf 44 00 	ld.w	68[sp],r28
 7002cee:	a3 cf 40 00 	ld.w	64[sp],r29
 7002cf2:	63 a4 68 00 	addi	104, sp, sp
 7002cf6:	1f 18       	jmp	[lp]

07002cf8 <_g3d_initObject>:
 7002cf8:	c3 dc 00 00 	st.w	r6, 0[sp]
 7002cfc:	e3 dc 04 00 	st.w	r7, 4[sp]
 7002d00:	43 cd 00 00 	ld.w	0[sp],r10
 7002d04:	0a dc 24 00 	st.w	r0, 36[r10]
 7002d08:	43 cd 00 00 	ld.w	0[sp],r10
 7002d0c:	0a dc 28 00 	st.w	r0, 40[r10]
 7002d10:	43 cd 00 00 	ld.w	0[sp],r10
 7002d14:	0a dc 2c 00 	st.w	r0, 44[r10]
 7002d18:	43 cd 00 00 	ld.w	0[sp],r10
 7002d1c:	0a dc 38 00 	st.w	r0, 56[r10]
 7002d20:	43 cd 00 00 	ld.w	0[sp],r10
 7002d24:	0a dc 3c 00 	st.w	r0, 60[r10]
 7002d28:	43 cd 00 00 	ld.w	0[sp],r10
 7002d2c:	0a dc 40 00 	st.w	r0, 64[r10]
 7002d30:	43 cd 00 00 	ld.w	0[sp],r10
 7002d34:	0a dc 4c 00 	st.w	r0, 76[r10]
 7002d38:	43 cd 00 00 	ld.w	0[sp],r10
 7002d3c:	0a dc 50 00 	st.w	r0, 80[r10]
 7002d40:	43 cd 00 00 	ld.w	0[sp],r10
 7002d44:	0a dc 54 00 	st.w	r0, 84[r10]
 7002d48:	43 cd 00 00 	ld.w	0[sp],r10
 7002d4c:	0a dc 60 00 	st.w	r0, 96[r10]
 7002d50:	43 cd 00 00 	ld.w	0[sp],r10
 7002d54:	0a dc 64 00 	st.w	r0, 100[r10]
 7002d58:	43 cd 00 00 	ld.w	0[sp],r10
 7002d5c:	0a dc 68 00 	st.w	r0, 104[r10]
 7002d60:	43 cd 00 00 	ld.w	0[sp],r10
 7002d64:	0a dc 74 00 	st.w	r0, 116[r10]
 7002d68:	43 cd 00 00 	ld.w	0[sp],r10
 7002d6c:	0a dc 78 00 	st.w	r0, 120[r10]
 7002d70:	43 cd 00 00 	ld.w	0[sp],r10
 7002d74:	0a dc 7c 00 	st.w	r0, 124[r10]
 7002d78:	43 cd 00 00 	ld.w	0[sp],r10
 7002d7c:	0a dc 88 00 	st.w	r0, 136[r10]
 7002d80:	43 cd 00 00 	ld.w	0[sp],r10
 7002d84:	0a dc 8c 00 	st.w	r0, 140[r10]
 7002d88:	43 cd 00 00 	ld.w	0[sp],r10
 7002d8c:	0a dc 90 00 	st.w	r0, 144[r10]
 7002d90:	43 cd 00 00 	ld.w	0[sp],r10
 7002d94:	68 41       	mov	8, r11
 7002d96:	6a dd 9c 00 	st.w	r11, 156[r10]
 7002d9a:	43 cd 00 00 	ld.w	0[sp],r10
 7002d9e:	68 41       	mov	8, r11
 7002da0:	6a dd a0 00 	st.w	r11, 160[r10]
 7002da4:	43 cd 00 00 	ld.w	0[sp],r10
 7002da8:	68 41       	mov	8, r11
 7002daa:	6a dd a4 00 	st.w	r11, 164[r10]
 7002dae:	43 cd 00 00 	ld.w	0[sp],r10
 7002db2:	0a dc b0 00 	st.w	r0, 176[r10]
 7002db6:	43 cd 00 00 	ld.w	0[sp],r10
 7002dba:	0a dc b4 00 	st.w	r0, 180[r10]
 7002dbe:	43 cd 00 00 	ld.w	0[sp],r10
 7002dc2:	0a dc b8 00 	st.w	r0, 184[r10]
 7002dc6:	43 cd 00 00 	ld.w	0[sp],r10
 7002dca:	0a dc 20 00 	st.w	r0, 32[r10]
 7002dce:	43 cd 00 00 	ld.w	0[sp],r10
 7002dd2:	63 cd 04 00 	ld.w	4[sp],r11
 7002dd6:	6a dd c4 00 	st.w	r11, 196[r10]
 7002dda:	43 cd 00 00 	ld.w	0[sp],r10
 7002dde:	61 41       	mov	1, r11
 7002de0:	6a d1 00 00 	st.b	r11, 0[r10]
 7002de4:	43 cd 00 00 	ld.w	0[sp],r10
 7002de8:	0a d0 01 00 	st.b	r0, 1[r10]
 7002dec:	43 cd 00 00 	ld.w	0[sp],r10
 7002df0:	63 41       	mov	3, r11
 7002df2:	6a d1 02 00 	st.b	r11, 2[r10]
 7002df6:	1f 18       	jmp	[lp]

07002df8 <_g3d_moveObject>:
 7002df8:	c3 dc 00 00 	st.w	r6, 0[sp]
 7002dfc:	43 cd 00 00 	ld.w	0[sp],r10
 7002e00:	4a cd 60 00 	ld.w	96[r10],r10
 7002e04:	40 0d       	cmp	r0, r10
 7002e06:	1c 84       	be	7002e22 <_g3d_moveObject+0x2a>
 7002e08:	43 cd 00 00 	ld.w	0[sp],r10
 7002e0c:	6a cd 4c 00 	ld.w	76[r10],r11
 7002e10:	43 cd 00 00 	ld.w	0[sp],r10
 7002e14:	4a cd 60 00 	ld.w	96[r10],r10
 7002e18:	6a 05       	add	r10, r11
 7002e1a:	43 cd 00 00 	ld.w	0[sp],r10
 7002e1e:	6a dd 4c 00 	st.w	r11, 76[r10]
 7002e22:	43 cd 00 00 	ld.w	0[sp],r10
 7002e26:	4a cd 64 00 	ld.w	100[r10],r10
 7002e2a:	40 0d       	cmp	r0, r10
 7002e2c:	1c 84       	be	7002e48 <_g3d_moveObject+0x50>
 7002e2e:	43 cd 00 00 	ld.w	0[sp],r10
 7002e32:	6a cd 50 00 	ld.w	80[r10],r11
 7002e36:	43 cd 00 00 	ld.w	0[sp],r10
 7002e3a:	4a cd 64 00 	ld.w	100[r10],r10
 7002e3e:	6a 05       	add	r10, r11
 7002e40:	43 cd 00 00 	ld.w	0[sp],r10
 7002e44:	6a dd 50 00 	st.w	r11, 80[r10]
 7002e48:	43 cd 00 00 	ld.w	0[sp],r10
 7002e4c:	4a cd 68 00 	ld.w	104[r10],r10
 7002e50:	40 0d       	cmp	r0, r10
 7002e52:	1c 84       	be	7002e6e <_g3d_moveObject+0x76>
 7002e54:	43 cd 00 00 	ld.w	0[sp],r10
 7002e58:	6a cd 54 00 	ld.w	84[r10],r11
 7002e5c:	43 cd 00 00 	ld.w	0[sp],r10
 7002e60:	4a cd 68 00 	ld.w	104[r10],r10
 7002e64:	6a 05       	add	r10, r11
 7002e66:	43 cd 00 00 	ld.w	0[sp],r10
 7002e6a:	6a dd 54 00 	st.w	r11, 84[r10]
 7002e6e:	43 cd 00 00 	ld.w	0[sp],r10
 7002e72:	4a cd 88 00 	ld.w	136[r10],r10
 7002e76:	40 0d       	cmp	r0, r10
 7002e78:	1c 84       	be	7002e94 <_g3d_moveObject+0x9c>
 7002e7a:	43 cd 00 00 	ld.w	0[sp],r10
 7002e7e:	6a cd 74 00 	ld.w	116[r10],r11
 7002e82:	43 cd 00 00 	ld.w	0[sp],r10
 7002e86:	4a cd 88 00 	ld.w	136[r10],r10
 7002e8a:	6a 05       	add	r10, r11
 7002e8c:	43 cd 00 00 	ld.w	0[sp],r10
 7002e90:	6a dd 74 00 	st.w	r11, 116[r10]
 7002e94:	43 cd 00 00 	ld.w	0[sp],r10
 7002e98:	4a cd 8c 00 	ld.w	140[r10],r10
 7002e9c:	40 0d       	cmp	r0, r10
 7002e9e:	1c 84       	be	7002eba <_g3d_moveObject+0xc2>
 7002ea0:	43 cd 00 00 	ld.w	0[sp],r10
 7002ea4:	6a cd 78 00 	ld.w	120[r10],r11
 7002ea8:	43 cd 00 00 	ld.w	0[sp],r10
 7002eac:	4a cd 8c 00 	ld.w	140[r10],r10
 7002eb0:	6a 05       	add	r10, r11
 7002eb2:	43 cd 00 00 	ld.w	0[sp],r10
 7002eb6:	6a dd 78 00 	st.w	r11, 120[r10]
 7002eba:	43 cd 00 00 	ld.w	0[sp],r10
 7002ebe:	4a cd 90 00 	ld.w	144[r10],r10
 7002ec2:	40 0d       	cmp	r0, r10
 7002ec4:	1c 84       	be	7002ee0 <_g3d_moveObject+0xe8>
 7002ec6:	43 cd 00 00 	ld.w	0[sp],r10
 7002eca:	6a cd 7c 00 	ld.w	124[r10],r11
 7002ece:	43 cd 00 00 	ld.w	0[sp],r10
 7002ed2:	4a cd 90 00 	ld.w	144[r10],r10
 7002ed6:	6a 05       	add	r10, r11
 7002ed8:	43 cd 00 00 	ld.w	0[sp],r10
 7002edc:	6a dd 7c 00 	st.w	r11, 124[r10]
 7002ee0:	43 cd 00 00 	ld.w	0[sp],r10
 7002ee4:	4a cd b0 00 	ld.w	176[r10],r10
 7002ee8:	40 0d       	cmp	r0, r10
 7002eea:	1c 84       	be	7002f06 <_g3d_moveObject+0x10e>
 7002eec:	43 cd 00 00 	ld.w	0[sp],r10
 7002ef0:	6a cd 9c 00 	ld.w	156[r10],r11
 7002ef4:	43 cd 00 00 	ld.w	0[sp],r10
 7002ef8:	4a cd b0 00 	ld.w	176[r10],r10
 7002efc:	6a 05       	add	r10, r11
 7002efe:	43 cd 00 00 	ld.w	0[sp],r10
 7002f02:	6a dd 9c 00 	st.w	r11, 156[r10]
 7002f06:	43 cd 00 00 	ld.w	0[sp],r10
 7002f0a:	4a cd b4 00 	ld.w	180[r10],r10
 7002f0e:	40 0d       	cmp	r0, r10
 7002f10:	1c 84       	be	7002f2c <_g3d_moveObject+0x134>
 7002f12:	43 cd 00 00 	ld.w	0[sp],r10
 7002f16:	6a cd a0 00 	ld.w	160[r10],r11
 7002f1a:	43 cd 00 00 	ld.w	0[sp],r10
 7002f1e:	4a cd b4 00 	ld.w	180[r10],r10
 7002f22:	6a 05       	add	r10, r11
 7002f24:	43 cd 00 00 	ld.w	0[sp],r10
 7002f28:	6a dd a0 00 	st.w	r11, 160[r10]
 7002f2c:	43 cd 00 00 	ld.w	0[sp],r10
 7002f30:	4a cd b8 00 	ld.w	184[r10],r10
 7002f34:	40 0d       	cmp	r0, r10
 7002f36:	34 84       	be	7002f6a <_g3d_moveObject+0x172>
 7002f38:	43 cd 00 00 	ld.w	0[sp],r10
 7002f3c:	6a cd a4 00 	ld.w	164[r10],r11
 7002f40:	43 cd 00 00 	ld.w	0[sp],r10
 7002f44:	4a cd b8 00 	ld.w	184[r10],r10
 7002f48:	6a 05       	add	r10, r11
 7002f4a:	43 cd 00 00 	ld.w	0[sp],r10
 7002f4e:	6a dd a4 00 	st.w	r11, 164[r10]
 7002f52:	1a 8a       	br	7002f6c <_g3d_moveObject+0x174>
 7002f54:	43 cd 00 00 	ld.w	0[sp],r10
 7002f58:	4a cd 4c 00 	ld.w	76[r10],r10
 7002f5c:	6a a5 98 fe 	addi	-360, r10, r11
 7002f60:	43 cd 00 00 	ld.w	0[sp],r10
 7002f64:	6a dd 4c 00 	st.w	r11, 76[r10]
 7002f68:	04 8a       	br	7002f6c <_g3d_moveObject+0x174>
 7002f6a:	00 9a       	nop	
 7002f6c:	43 cd 00 00 	ld.w	0[sp],r10
 7002f70:	6a cd 4c 00 	ld.w	76[r10],r11
 7002f74:	40 a1 67 01 	movea	359, r0, r10
 7002f78:	6a 0d       	cmp	r10, r11
 7002f7a:	da 9f       	bgt	7002f54 <_g3d_moveObject+0x15c>
 7002f7c:	16 8a       	br	7002f92 <_g3d_moveObject+0x19a>
 7002f7e:	43 cd 00 00 	ld.w	0[sp],r10
 7002f82:	4a cd 50 00 	ld.w	80[r10],r10
 7002f86:	6a a5 98 fe 	addi	-360, r10, r11
 7002f8a:	43 cd 00 00 	ld.w	0[sp],r10
 7002f8e:	6a dd 50 00 	st.w	r11, 80[r10]
 7002f92:	43 cd 00 00 	ld.w	0[sp],r10
 7002f96:	6a cd 50 00 	ld.w	80[r10],r11
 7002f9a:	40 a1 67 01 	movea	359, r0, r10
 7002f9e:	6a 0d       	cmp	r10, r11
 7002fa0:	de 9f       	bgt	7002f7e <_g3d_moveObject+0x186>
 7002fa2:	16 8a       	br	7002fb8 <_g3d_moveObject+0x1c0>
 7002fa4:	43 cd 00 00 	ld.w	0[sp],r10
 7002fa8:	4a cd 54 00 	ld.w	84[r10],r10
 7002fac:	6a a5 98 fe 	addi	-360, r10, r11
 7002fb0:	43 cd 00 00 	ld.w	0[sp],r10
 7002fb4:	6a dd 54 00 	st.w	r11, 84[r10]
 7002fb8:	43 cd 00 00 	ld.w	0[sp],r10
 7002fbc:	6a cd 54 00 	ld.w	84[r10],r11
 7002fc0:	40 a1 67 01 	movea	359, r0, r10
 7002fc4:	6a 0d       	cmp	r10, r11
 7002fc6:	de 9f       	bgt	7002fa4 <_g3d_moveObject+0x1ac>
 7002fc8:	16 8a       	br	7002fde <_g3d_moveObject+0x1e6>
 7002fca:	43 cd 00 00 	ld.w	0[sp],r10
 7002fce:	4a cd 4c 00 	ld.w	76[r10],r10
 7002fd2:	6a a5 68 01 	addi	360, r10, r11
 7002fd6:	43 cd 00 00 	ld.w	0[sp],r10
 7002fda:	6a dd 4c 00 	st.w	r11, 76[r10]
 7002fde:	43 cd 00 00 	ld.w	0[sp],r10
 7002fe2:	6a cd 4c 00 	ld.w	76[r10],r11
 7002fe6:	40 a1 99 fe 	movea	-359, r0, r10
 7002fea:	6a 0d       	cmp	r10, r11
 7002fec:	de 8d       	blt	7002fca <_g3d_moveObject+0x1d2>
 7002fee:	16 8a       	br	7003004 <_g3d_moveObject+0x20c>
 7002ff0:	43 cd 00 00 	ld.w	0[sp],r10
 7002ff4:	4a cd 50 00 	ld.w	80[r10],r10
 7002ff8:	6a a5 68 01 	addi	360, r10, r11
 7002ffc:	43 cd 00 00 	ld.w	0[sp],r10
 7003000:	6a dd 50 00 	st.w	r11, 80[r10]
 7003004:	43 cd 00 00 	ld.w	0[sp],r10
 7003008:	6a cd 50 00 	ld.w	80[r10],r11
 700300c:	40 a1 99 fe 	movea	-359, r0, r10
 7003010:	6a 0d       	cmp	r10, r11
 7003012:	de 8d       	blt	7002ff0 <_g3d_moveObject+0x1f8>
 7003014:	16 8a       	br	700302a <_g3d_moveObject+0x232>
 7003016:	43 cd 00 00 	ld.w	0[sp],r10
 700301a:	4a cd 54 00 	ld.w	84[r10],r10
 700301e:	6a a5 68 01 	addi	360, r10, r11
 7003022:	43 cd 00 00 	ld.w	0[sp],r10
 7003026:	6a dd 54 00 	st.w	r11, 84[r10]
 700302a:	43 cd 00 00 	ld.w	0[sp],r10
 700302e:	6a cd 54 00 	ld.w	84[r10],r11
 7003032:	40 a1 99 fe 	movea	-359, r0, r10
 7003036:	6a 0d       	cmp	r10, r11
 7003038:	de 8d       	blt	7003016 <_g3d_moveObject+0x21e>
 700303a:	43 cd 00 00 	ld.w	0[sp],r10
 700303e:	6a cd 38 00 	ld.w	56[r10],r11
 7003042:	43 cd 00 00 	ld.w	0[sp],r10
 7003046:	4a cd 24 00 	ld.w	36[r10],r10
 700304a:	6a 0d       	cmp	r10, r11
 700304c:	98 84       	be	70030e4 <_g3d_moveObject+0x2ec>
 700304e:	43 cd 00 00 	ld.w	0[sp],r10
 7003052:	6a cd 24 00 	ld.w	36[r10],r11
 7003056:	43 cd 00 00 	ld.w	0[sp],r10
 700305a:	4a cd 38 00 	ld.w	56[r10],r10
 700305e:	6a 0d       	cmp	r10, r11
 7003060:	42 9c       	bge	70030a2 <_g3d_moveObject+0x2aa>
 7003062:	43 cd 00 00 	ld.w	0[sp],r10
 7003066:	6a cd 24 00 	ld.w	36[r10],r11
 700306a:	43 cd 00 00 	ld.w	0[sp],r10
 700306e:	4a cd 74 00 	ld.w	116[r10],r10
 7003072:	6a 05       	add	r10, r11
 7003074:	43 cd 00 00 	ld.w	0[sp],r10
 7003078:	6a dd 24 00 	st.w	r11, 36[r10]
 700307c:	43 cd 00 00 	ld.w	0[sp],r10
 7003080:	6a cd 24 00 	ld.w	36[r10],r11
 7003084:	43 cd 00 00 	ld.w	0[sp],r10
 7003088:	4a cd 38 00 	ld.w	56[r10],r10
 700308c:	6a 0d       	cmp	r10, r11
 700308e:	54 8e       	ble	70030e2 <_g3d_moveObject+0x2ea>
 7003090:	43 cd 00 00 	ld.w	0[sp],r10
 7003094:	6a cd 38 00 	ld.w	56[r10],r11
 7003098:	43 cd 00 00 	ld.w	0[sp],r10
 700309c:	6a dd 24 00 	st.w	r11, 36[r10]
 70030a0:	44 8a       	br	70030e4 <_g3d_moveObject+0x2ec>
 70030a2:	43 cd 00 00 	ld.w	0[sp],r10
 70030a6:	6a cd 24 00 	ld.w	36[r10],r11
 70030aa:	43 cd 00 00 	ld.w	0[sp],r10
 70030ae:	4a cd 74 00 	ld.w	116[r10],r10
 70030b2:	6a 09       	sub	r10, r11
 70030b4:	43 cd 00 00 	ld.w	0[sp],r10
 70030b8:	6a dd 24 00 	st.w	r11, 36[r10]
 70030bc:	43 cd 00 00 	ld.w	0[sp],r10
 70030c0:	6a cd 24 00 	ld.w	36[r10],r11
 70030c4:	43 cd 00 00 	ld.w	0[sp],r10
 70030c8:	4a cd 38 00 	ld.w	56[r10],r10
 70030cc:	6a 0d       	cmp	r10, r11
 70030ce:	16 9c       	bge	70030e4 <_g3d_moveObject+0x2ec>
 70030d0:	43 cd 00 00 	ld.w	0[sp],r10
 70030d4:	6a cd 38 00 	ld.w	56[r10],r11
 70030d8:	43 cd 00 00 	ld.w	0[sp],r10
 70030dc:	6a dd 24 00 	st.w	r11, 36[r10]
 70030e0:	04 8a       	br	70030e4 <_g3d_moveObject+0x2ec>
 70030e2:	00 9a       	nop	
 70030e4:	43 cd 00 00 	ld.w	0[sp],r10
 70030e8:	6a cd 3c 00 	ld.w	60[r10],r11
 70030ec:	43 cd 00 00 	ld.w	0[sp],r10
 70030f0:	4a cd 28 00 	ld.w	40[r10],r10
 70030f4:	6a 0d       	cmp	r10, r11
 70030f6:	98 84       	be	700318e <_g3d_moveObject+0x396>
 70030f8:	43 cd 00 00 	ld.w	0[sp],r10
 70030fc:	6a cd 28 00 	ld.w	40[r10],r11
 7003100:	43 cd 00 00 	ld.w	0[sp],r10
 7003104:	4a cd 3c 00 	ld.w	60[r10],r10
 7003108:	6a 0d       	cmp	r10, r11
 700310a:	42 9c       	bge	700314c <_g3d_moveObject+0x354>
 700310c:	43 cd 00 00 	ld.w	0[sp],r10
 7003110:	6a cd 28 00 	ld.w	40[r10],r11
 7003114:	43 cd 00 00 	ld.w	0[sp],r10
 7003118:	4a cd 78 00 	ld.w	120[r10],r10
 700311c:	6a 05       	add	r10, r11
 700311e:	43 cd 00 00 	ld.w	0[sp],r10
 7003122:	6a dd 28 00 	st.w	r11, 40[r10]
 7003126:	43 cd 00 00 	ld.w	0[sp],r10
 700312a:	6a cd 28 00 	ld.w	40[r10],r11
 700312e:	43 cd 00 00 	ld.w	0[sp],r10
 7003132:	4a cd 3c 00 	ld.w	60[r10],r10
 7003136:	6a 0d       	cmp	r10, r11
 7003138:	54 8e       	ble	700318c <_g3d_moveObject+0x394>
 700313a:	43 cd 00 00 	ld.w	0[sp],r10
 700313e:	6a cd 3c 00 	ld.w	60[r10],r11
 7003142:	43 cd 00 00 	ld.w	0[sp],r10
 7003146:	6a dd 28 00 	st.w	r11, 40[r10]
 700314a:	44 8a       	br	700318e <_g3d_moveObject+0x396>
 700314c:	43 cd 00 00 	ld.w	0[sp],r10
 7003150:	6a cd 28 00 	ld.w	40[r10],r11
 7003154:	43 cd 00 00 	ld.w	0[sp],r10
 7003158:	4a cd 78 00 	ld.w	120[r10],r10
 700315c:	6a 09       	sub	r10, r11
 700315e:	43 cd 00 00 	ld.w	0[sp],r10
 7003162:	6a dd 28 00 	st.w	r11, 40[r10]
 7003166:	43 cd 00 00 	ld.w	0[sp],r10
 700316a:	6a cd 28 00 	ld.w	40[r10],r11
 700316e:	43 cd 00 00 	ld.w	0[sp],r10
 7003172:	4a cd 3c 00 	ld.w	60[r10],r10
 7003176:	6a 0d       	cmp	r10, r11
 7003178:	16 9c       	bge	700318e <_g3d_moveObject+0x396>
 700317a:	43 cd 00 00 	ld.w	0[sp],r10
 700317e:	6a cd 3c 00 	ld.w	60[r10],r11
 7003182:	43 cd 00 00 	ld.w	0[sp],r10
 7003186:	6a dd 28 00 	st.w	r11, 40[r10]
 700318a:	04 8a       	br	700318e <_g3d_moveObject+0x396>
 700318c:	00 9a       	nop	
 700318e:	43 cd 00 00 	ld.w	0[sp],r10
 7003192:	6a cd 40 00 	ld.w	64[r10],r11
 7003196:	43 cd 00 00 	ld.w	0[sp],r10
 700319a:	4a cd 2c 00 	ld.w	44[r10],r10
 700319e:	6a 0d       	cmp	r10, r11
 70031a0:	98 84       	be	7003238 <_g3d_moveObject+0x440>
 70031a2:	43 cd 00 00 	ld.w	0[sp],r10
 70031a6:	6a cd 2c 00 	ld.w	44[r10],r11
 70031aa:	43 cd 00 00 	ld.w	0[sp],r10
 70031ae:	4a cd 40 00 	ld.w	64[r10],r10
 70031b2:	6a 0d       	cmp	r10, r11
 70031b4:	42 9c       	bge	70031f6 <_g3d_moveObject+0x3fe>
 70031b6:	43 cd 00 00 	ld.w	0[sp],r10
 70031ba:	6a cd 2c 00 	ld.w	44[r10],r11
 70031be:	43 cd 00 00 	ld.w	0[sp],r10
 70031c2:	4a cd 7c 00 	ld.w	124[r10],r10
 70031c6:	6a 05       	add	r10, r11
 70031c8:	43 cd 00 00 	ld.w	0[sp],r10
 70031cc:	6a dd 2c 00 	st.w	r11, 44[r10]
 70031d0:	43 cd 00 00 	ld.w	0[sp],r10
 70031d4:	6a cd 2c 00 	ld.w	44[r10],r11
 70031d8:	43 cd 00 00 	ld.w	0[sp],r10
 70031dc:	4a cd 40 00 	ld.w	64[r10],r10
 70031e0:	6a 0d       	cmp	r10, r11
 70031e2:	54 8e       	ble	7003236 <_g3d_moveObject+0x43e>
 70031e4:	43 cd 00 00 	ld.w	0[sp],r10
 70031e8:	6a cd 40 00 	ld.w	64[r10],r11
 70031ec:	43 cd 00 00 	ld.w	0[sp],r10
 70031f0:	6a dd 2c 00 	st.w	r11, 44[r10]
 70031f4:	44 8a       	br	7003238 <_g3d_moveObject+0x440>
 70031f6:	43 cd 00 00 	ld.w	0[sp],r10
 70031fa:	6a cd 2c 00 	ld.w	44[r10],r11
 70031fe:	43 cd 00 00 	ld.w	0[sp],r10
 7003202:	4a cd 7c 00 	ld.w	124[r10],r10
 7003206:	6a 09       	sub	r10, r11
 7003208:	43 cd 00 00 	ld.w	0[sp],r10
 700320c:	6a dd 2c 00 	st.w	r11, 44[r10]
 7003210:	43 cd 00 00 	ld.w	0[sp],r10
 7003214:	6a cd 2c 00 	ld.w	44[r10],r11
 7003218:	43 cd 00 00 	ld.w	0[sp],r10
 700321c:	4a cd 40 00 	ld.w	64[r10],r10
 7003220:	6a 0d       	cmp	r10, r11
 7003222:	16 9c       	bge	7003238 <_g3d_moveObject+0x440>
 7003224:	43 cd 00 00 	ld.w	0[sp],r10
 7003228:	6a cd 40 00 	ld.w	64[r10],r11
 700322c:	43 cd 00 00 	ld.w	0[sp],r10
 7003230:	6a dd 2c 00 	st.w	r11, 44[r10]
 7003234:	04 8a       	br	7003238 <_g3d_moveObject+0x440>
 7003236:	00 9a       	nop	
 7003238:	1f 18       	jmp	[lp]
	...

0700323c <_g3d_moveCamera>:
 700323c:	c3 dc 00 00 	st.w	r6, 0[sp]
 7003240:	43 cd 00 00 	ld.w	0[sp],r10
 7003244:	4a cd 78 00 	ld.w	120[r10],r10
 7003248:	40 0d       	cmp	r0, r10
 700324a:	1c 84       	be	7003266 <_g3d_moveCamera+0x2a>
 700324c:	43 cd 00 00 	ld.w	0[sp],r10
 7003250:	6a cd 64 00 	ld.w	100[r10],r11
 7003254:	43 cd 00 00 	ld.w	0[sp],r10
 7003258:	4a cd 78 00 	ld.w	120[r10],r10
 700325c:	6a 05       	add	r10, r11
 700325e:	43 cd 00 00 	ld.w	0[sp],r10
 7003262:	6a dd 64 00 	st.w	r11, 100[r10]
 7003266:	43 cd 00 00 	ld.w	0[sp],r10
 700326a:	4a cd 7c 00 	ld.w	124[r10],r10
 700326e:	40 0d       	cmp	r0, r10
 7003270:	1c 84       	be	700328c <_g3d_moveCamera+0x50>
 7003272:	43 cd 00 00 	ld.w	0[sp],r10
 7003276:	6a cd 68 00 	ld.w	104[r10],r11
 700327a:	43 cd 00 00 	ld.w	0[sp],r10
 700327e:	4a cd 7c 00 	ld.w	124[r10],r10
 7003282:	6a 05       	add	r10, r11
 7003284:	43 cd 00 00 	ld.w	0[sp],r10
 7003288:	6a dd 68 00 	st.w	r11, 104[r10]
 700328c:	43 cd 00 00 	ld.w	0[sp],r10
 7003290:	4a cd 80 00 	ld.w	128[r10],r10
 7003294:	40 0d       	cmp	r0, r10
 7003296:	1c 84       	be	70032b2 <_g3d_moveCamera+0x76>
 7003298:	43 cd 00 00 	ld.w	0[sp],r10
 700329c:	6a cd 6c 00 	ld.w	108[r10],r11
 70032a0:	43 cd 00 00 	ld.w	0[sp],r10
 70032a4:	4a cd 80 00 	ld.w	128[r10],r10
 70032a8:	6a 05       	add	r10, r11
 70032aa:	43 cd 00 00 	ld.w	0[sp],r10
 70032ae:	6a dd 6c 00 	st.w	r11, 108[r10]
 70032b2:	43 cd 00 00 	ld.w	0[sp],r10
 70032b6:	4a cd 28 00 	ld.w	40[r10],r10
 70032ba:	40 0d       	cmp	r0, r10
 70032bc:	1c 84       	be	70032d8 <_g3d_moveCamera+0x9c>
 70032be:	43 cd 00 00 	ld.w	0[sp],r10
 70032c2:	6a cd 14 00 	ld.w	20[r10],r11
 70032c6:	43 cd 00 00 	ld.w	0[sp],r10
 70032ca:	4a cd 28 00 	ld.w	40[r10],r10
 70032ce:	6a 05       	add	r10, r11
 70032d0:	43 cd 00 00 	ld.w	0[sp],r10
 70032d4:	6a dd 14 00 	st.w	r11, 20[r10]
 70032d8:	43 cd 00 00 	ld.w	0[sp],r10
 70032dc:	4a cd 2c 00 	ld.w	44[r10],r10
 70032e0:	40 0d       	cmp	r0, r10
 70032e2:	1c 84       	be	70032fe <_g3d_moveCamera+0xc2>
 70032e4:	43 cd 00 00 	ld.w	0[sp],r10
 70032e8:	6a cd 18 00 	ld.w	24[r10],r11
 70032ec:	43 cd 00 00 	ld.w	0[sp],r10
 70032f0:	4a cd 2c 00 	ld.w	44[r10],r10
 70032f4:	6a 05       	add	r10, r11
 70032f6:	43 cd 00 00 	ld.w	0[sp],r10
 70032fa:	6a dd 18 00 	st.w	r11, 24[r10]
 70032fe:	43 cd 00 00 	ld.w	0[sp],r10
 7003302:	4a cd 30 00 	ld.w	48[r10],r10
 7003306:	40 0d       	cmp	r0, r10
 7003308:	34 84       	be	700333c <_g3d_moveCamera+0x100>
 700330a:	43 cd 00 00 	ld.w	0[sp],r10
 700330e:	6a cd 1c 00 	ld.w	28[r10],r11
 7003312:	43 cd 00 00 	ld.w	0[sp],r10
 7003316:	4a cd 30 00 	ld.w	48[r10],r10
 700331a:	6a 05       	add	r10, r11
 700331c:	43 cd 00 00 	ld.w	0[sp],r10
 7003320:	6a dd 1c 00 	st.w	r11, 28[r10]
 7003324:	1a 8a       	br	700333e <_g3d_moveCamera+0x102>
 7003326:	43 cd 00 00 	ld.w	0[sp],r10
 700332a:	4a cd 64 00 	ld.w	100[r10],r10
 700332e:	6a a5 98 fe 	addi	-360, r10, r11
 7003332:	43 cd 00 00 	ld.w	0[sp],r10
 7003336:	6a dd 64 00 	st.w	r11, 100[r10]
 700333a:	04 8a       	br	700333e <_g3d_moveCamera+0x102>
 700333c:	00 9a       	nop	
 700333e:	43 cd 00 00 	ld.w	0[sp],r10
 7003342:	6a cd 64 00 	ld.w	100[r10],r11
 7003346:	40 a1 67 01 	movea	359, r0, r10
 700334a:	6a 0d       	cmp	r10, r11
 700334c:	da 9f       	bgt	7003326 <_g3d_moveCamera+0xea>
 700334e:	16 8a       	br	7003364 <_g3d_moveCamera+0x128>
 7003350:	43 cd 00 00 	ld.w	0[sp],r10
 7003354:	4a cd 68 00 	ld.w	104[r10],r10
 7003358:	6a a5 98 fe 	addi	-360, r10, r11
 700335c:	43 cd 00 00 	ld.w	0[sp],r10
 7003360:	6a dd 68 00 	st.w	r11, 104[r10]
 7003364:	43 cd 00 00 	ld.w	0[sp],r10
 7003368:	6a cd 68 00 	ld.w	104[r10],r11
 700336c:	40 a1 67 01 	movea	359, r0, r10
 7003370:	6a 0d       	cmp	r10, r11
 7003372:	de 9f       	bgt	7003350 <_g3d_moveCamera+0x114>
 7003374:	16 8a       	br	700338a <_g3d_moveCamera+0x14e>
 7003376:	43 cd 00 00 	ld.w	0[sp],r10
 700337a:	4a cd 6c 00 	ld.w	108[r10],r10
 700337e:	6a a5 98 fe 	addi	-360, r10, r11
 7003382:	43 cd 00 00 	ld.w	0[sp],r10
 7003386:	6a dd 6c 00 	st.w	r11, 108[r10]
 700338a:	43 cd 00 00 	ld.w	0[sp],r10
 700338e:	6a cd 6c 00 	ld.w	108[r10],r11
 7003392:	40 a1 67 01 	movea	359, r0, r10
 7003396:	6a 0d       	cmp	r10, r11
 7003398:	de 9f       	bgt	7003376 <_g3d_moveCamera+0x13a>
 700339a:	16 8a       	br	70033b0 <_g3d_moveCamera+0x174>
 700339c:	43 cd 00 00 	ld.w	0[sp],r10
 70033a0:	4a cd 64 00 	ld.w	100[r10],r10
 70033a4:	6a a5 68 01 	addi	360, r10, r11
 70033a8:	43 cd 00 00 	ld.w	0[sp],r10
 70033ac:	6a dd 64 00 	st.w	r11, 100[r10]
 70033b0:	43 cd 00 00 	ld.w	0[sp],r10
 70033b4:	6a cd 64 00 	ld.w	100[r10],r11
 70033b8:	40 a1 99 fe 	movea	-359, r0, r10
 70033bc:	6a 0d       	cmp	r10, r11
 70033be:	de 8d       	blt	700339c <_g3d_moveCamera+0x160>
 70033c0:	16 8a       	br	70033d6 <_g3d_moveCamera+0x19a>
 70033c2:	43 cd 00 00 	ld.w	0[sp],r10
 70033c6:	4a cd 68 00 	ld.w	104[r10],r10
 70033ca:	6a a5 68 01 	addi	360, r10, r11
 70033ce:	43 cd 00 00 	ld.w	0[sp],r10
 70033d2:	6a dd 68 00 	st.w	r11, 104[r10]
 70033d6:	43 cd 00 00 	ld.w	0[sp],r10
 70033da:	6a cd 68 00 	ld.w	104[r10],r11
 70033de:	40 a1 99 fe 	movea	-359, r0, r10
 70033e2:	6a 0d       	cmp	r10, r11
 70033e4:	de 8d       	blt	70033c2 <_g3d_moveCamera+0x186>
 70033e6:	16 8a       	br	70033fc <_g3d_moveCamera+0x1c0>
 70033e8:	43 cd 00 00 	ld.w	0[sp],r10
 70033ec:	4a cd 6c 00 	ld.w	108[r10],r10
 70033f0:	6a a5 68 01 	addi	360, r10, r11
 70033f4:	43 cd 00 00 	ld.w	0[sp],r10
 70033f8:	6a dd 6c 00 	st.w	r11, 108[r10]
 70033fc:	43 cd 00 00 	ld.w	0[sp],r10
 7003400:	6a cd 6c 00 	ld.w	108[r10],r11
 7003404:	40 a1 99 fe 	movea	-359, r0, r10
 7003408:	6a 0d       	cmp	r10, r11
 700340a:	de 8d       	blt	70033e8 <_g3d_moveCamera+0x1ac>
 700340c:	43 cd 00 00 	ld.w	0[sp],r10
 7003410:	6a cd 3c 00 	ld.w	60[r10],r11
 7003414:	43 cd 00 00 	ld.w	0[sp],r10
 7003418:	4a cd 00 00 	ld.w	0[r10],r10
 700341c:	6a 0d       	cmp	r10, r11
 700341e:	98 84       	be	70034b6 <_g3d_moveCamera+0x27a>
 7003420:	43 cd 00 00 	ld.w	0[sp],r10
 7003424:	6a cd 00 00 	ld.w	0[r10],r11
 7003428:	43 cd 00 00 	ld.w	0[sp],r10
 700342c:	4a cd 3c 00 	ld.w	60[r10],r10
 7003430:	6a 0d       	cmp	r10, r11
 7003432:	42 9c       	bge	7003474 <_g3d_moveCamera+0x238>
 7003434:	43 cd 00 00 	ld.w	0[sp],r10
 7003438:	6a cd 00 00 	ld.w	0[r10],r11
 700343c:	43 cd 00 00 	ld.w	0[sp],r10
 7003440:	4a cd 14 00 	ld.w	20[r10],r10
 7003444:	6a 05       	add	r10, r11
 7003446:	43 cd 00 00 	ld.w	0[sp],r10
 700344a:	6a dd 00 00 	st.w	r11, 0[r10]
 700344e:	43 cd 00 00 	ld.w	0[sp],r10
 7003452:	6a cd 00 00 	ld.w	0[r10],r11
 7003456:	43 cd 00 00 	ld.w	0[sp],r10
 700345a:	4a cd 3c 00 	ld.w	60[r10],r10
 700345e:	6a 0d       	cmp	r10, r11
 7003460:	54 8e       	ble	70034b4 <_g3d_moveCamera+0x278>
 7003462:	43 cd 00 00 	ld.w	0[sp],r10
 7003466:	6a cd 3c 00 	ld.w	60[r10],r11
 700346a:	43 cd 00 00 	ld.w	0[sp],r10
 700346e:	6a dd 00 00 	st.w	r11, 0[r10]
 7003472:	44 8a       	br	70034b6 <_g3d_moveCamera+0x27a>
 7003474:	43 cd 00 00 	ld.w	0[sp],r10
 7003478:	6a cd 00 00 	ld.w	0[r10],r11
 700347c:	43 cd 00 00 	ld.w	0[sp],r10
 7003480:	4a cd 14 00 	ld.w	20[r10],r10
 7003484:	6a 09       	sub	r10, r11
 7003486:	43 cd 00 00 	ld.w	0[sp],r10
 700348a:	6a dd 00 00 	st.w	r11, 0[r10]
 700348e:	43 cd 00 00 	ld.w	0[sp],r10
 7003492:	6a cd 00 00 	ld.w	0[r10],r11
 7003496:	43 cd 00 00 	ld.w	0[sp],r10
 700349a:	4a cd 3c 00 	ld.w	60[r10],r10
 700349e:	6a 0d       	cmp	r10, r11
 70034a0:	16 9c       	bge	70034b6 <_g3d_moveCamera+0x27a>
 70034a2:	43 cd 00 00 	ld.w	0[sp],r10
 70034a6:	6a cd 3c 00 	ld.w	60[r10],r11
 70034aa:	43 cd 00 00 	ld.w	0[sp],r10
 70034ae:	6a dd 00 00 	st.w	r11, 0[r10]
 70034b2:	04 8a       	br	70034b6 <_g3d_moveCamera+0x27a>
 70034b4:	00 9a       	nop	
 70034b6:	43 cd 00 00 	ld.w	0[sp],r10
 70034ba:	6a cd 40 00 	ld.w	64[r10],r11
 70034be:	43 cd 00 00 	ld.w	0[sp],r10
 70034c2:	4a cd 04 00 	ld.w	4[r10],r10
 70034c6:	6a 0d       	cmp	r10, r11
 70034c8:	98 84       	be	7003560 <_g3d_moveCamera+0x324>
 70034ca:	43 cd 00 00 	ld.w	0[sp],r10
 70034ce:	6a cd 04 00 	ld.w	4[r10],r11
 70034d2:	43 cd 00 00 	ld.w	0[sp],r10
 70034d6:	4a cd 40 00 	ld.w	64[r10],r10
 70034da:	6a 0d       	cmp	r10, r11
 70034dc:	42 9c       	bge	700351e <_g3d_moveCamera+0x2e2>
 70034de:	43 cd 00 00 	ld.w	0[sp],r10
 70034e2:	6a cd 04 00 	ld.w	4[r10],r11
 70034e6:	43 cd 00 00 	ld.w	0[sp],r10
 70034ea:	4a cd 18 00 	ld.w	24[r10],r10
 70034ee:	6a 05       	add	r10, r11
 70034f0:	43 cd 00 00 	ld.w	0[sp],r10
 70034f4:	6a dd 04 00 	st.w	r11, 4[r10]
 70034f8:	43 cd 00 00 	ld.w	0[sp],r10
 70034fc:	6a cd 04 00 	ld.w	4[r10],r11
 7003500:	43 cd 00 00 	ld.w	0[sp],r10
 7003504:	4a cd 40 00 	ld.w	64[r10],r10
 7003508:	6a 0d       	cmp	r10, r11
 700350a:	54 8e       	ble	700355e <_g3d_moveCamera+0x322>
 700350c:	43 cd 00 00 	ld.w	0[sp],r10
 7003510:	6a cd 40 00 	ld.w	64[r10],r11
 7003514:	43 cd 00 00 	ld.w	0[sp],r10
 7003518:	6a dd 04 00 	st.w	r11, 4[r10]
 700351c:	44 8a       	br	7003560 <_g3d_moveCamera+0x324>
 700351e:	43 cd 00 00 	ld.w	0[sp],r10
 7003522:	6a cd 04 00 	ld.w	4[r10],r11
 7003526:	43 cd 00 00 	ld.w	0[sp],r10
 700352a:	4a cd 18 00 	ld.w	24[r10],r10
 700352e:	6a 09       	sub	r10, r11
 7003530:	43 cd 00 00 	ld.w	0[sp],r10
 7003534:	6a dd 04 00 	st.w	r11, 4[r10]
 7003538:	43 cd 00 00 	ld.w	0[sp],r10
 700353c:	6a cd 04 00 	ld.w	4[r10],r11
 7003540:	43 cd 00 00 	ld.w	0[sp],r10
 7003544:	4a cd 40 00 	ld.w	64[r10],r10
 7003548:	6a 0d       	cmp	r10, r11
 700354a:	16 9c       	bge	7003560 <_g3d_moveCamera+0x324>
 700354c:	43 cd 00 00 	ld.w	0[sp],r10
 7003550:	6a cd 40 00 	ld.w	64[r10],r11
 7003554:	43 cd 00 00 	ld.w	0[sp],r10
 7003558:	6a dd 04 00 	st.w	r11, 4[r10]
 700355c:	04 8a       	br	7003560 <_g3d_moveCamera+0x324>
 700355e:	00 9a       	nop	
 7003560:	43 cd 00 00 	ld.w	0[sp],r10
 7003564:	6a cd 44 00 	ld.w	68[r10],r11
 7003568:	43 cd 00 00 	ld.w	0[sp],r10
 700356c:	4a cd 08 00 	ld.w	8[r10],r10
 7003570:	6a 0d       	cmp	r10, r11
 7003572:	98 84       	be	700360a <_g3d_moveCamera+0x3ce>
 7003574:	43 cd 00 00 	ld.w	0[sp],r10
 7003578:	6a cd 08 00 	ld.w	8[r10],r11
 700357c:	43 cd 00 00 	ld.w	0[sp],r10
 7003580:	4a cd 44 00 	ld.w	68[r10],r10
 7003584:	6a 0d       	cmp	r10, r11
 7003586:	42 9c       	bge	70035c8 <_g3d_moveCamera+0x38c>
 7003588:	43 cd 00 00 	ld.w	0[sp],r10
 700358c:	6a cd 08 00 	ld.w	8[r10],r11
 7003590:	43 cd 00 00 	ld.w	0[sp],r10
 7003594:	4a cd 1c 00 	ld.w	28[r10],r10
 7003598:	6a 05       	add	r10, r11
 700359a:	43 cd 00 00 	ld.w	0[sp],r10
 700359e:	6a dd 08 00 	st.w	r11, 8[r10]
 70035a2:	43 cd 00 00 	ld.w	0[sp],r10
 70035a6:	6a cd 08 00 	ld.w	8[r10],r11
 70035aa:	43 cd 00 00 	ld.w	0[sp],r10
 70035ae:	4a cd 44 00 	ld.w	68[r10],r10
 70035b2:	6a 0d       	cmp	r10, r11
 70035b4:	54 8e       	ble	7003608 <_g3d_moveCamera+0x3cc>
 70035b6:	43 cd 00 00 	ld.w	0[sp],r10
 70035ba:	6a cd 44 00 	ld.w	68[r10],r11
 70035be:	43 cd 00 00 	ld.w	0[sp],r10
 70035c2:	6a dd 08 00 	st.w	r11, 8[r10]
 70035c6:	44 8a       	br	700360a <_g3d_moveCamera+0x3ce>
 70035c8:	43 cd 00 00 	ld.w	0[sp],r10
 70035cc:	6a cd 08 00 	ld.w	8[r10],r11
 70035d0:	43 cd 00 00 	ld.w	0[sp],r10
 70035d4:	4a cd 1c 00 	ld.w	28[r10],r10
 70035d8:	6a 09       	sub	r10, r11
 70035da:	43 cd 00 00 	ld.w	0[sp],r10
 70035de:	6a dd 08 00 	st.w	r11, 8[r10]
 70035e2:	43 cd 00 00 	ld.w	0[sp],r10
 70035e6:	6a cd 08 00 	ld.w	8[r10],r11
 70035ea:	43 cd 00 00 	ld.w	0[sp],r10
 70035ee:	4a cd 44 00 	ld.w	68[r10],r10
 70035f2:	6a 0d       	cmp	r10, r11
 70035f4:	16 9c       	bge	700360a <_g3d_moveCamera+0x3ce>
 70035f6:	43 cd 00 00 	ld.w	0[sp],r10
 70035fa:	6a cd 44 00 	ld.w	68[r10],r11
 70035fe:	43 cd 00 00 	ld.w	0[sp],r10
 7003602:	6a dd 08 00 	st.w	r11, 8[r10]
 7003606:	04 8a       	br	700360a <_g3d_moveCamera+0x3ce>
 7003608:	00 9a       	nop	
 700360a:	1f 18       	jmp	[lp]

0700360c <_main>:
 700360c:	63 a4 ec ff 	addi	-20, sp, sp
 7003610:	e3 df 10 00 	st.w	lp, 16[sp]
 7003614:	40 bd 00 07 	movhi	1792, r0, r10
 7003618:	4a a1 58 44 	movea	17496, r10, r10
 700361c:	00 ac 04 00 	jal	7003620 <_main+0x14>
 7003620:	e4 47       	add	4, lp
 7003622:	0a 18       	jmp	[r10]
 7003624:	40 bd 00 07 	movhi	1792, r0, r10
 7003628:	4a a1 a8 43 	movea	17320, r10, r10
 700362c:	00 ac 04 00 	jal	7003630 <_main+0x24>
 7003630:	e4 47       	add	4, lp
 7003632:	0a 18       	jmp	[r10]
 7003634:	40 bd 00 05 	movhi	1280, r0, r10
 7003638:	ca a0 74 00 	movea	116, r10, r6
 700363c:	40 bd 00 07 	movhi	1792, r0, r10
 7003640:	ea a0 0c 53 	movea	21260, r10, r7
 7003644:	40 bd 00 07 	movhi	1792, r0, r10
 7003648:	4a a1 f8 2c 	movea	11512, r10, r10
 700364c:	00 ac 04 00 	jal	7003650 <_main+0x44>
 7003650:	e4 47       	add	4, lp
 7003652:	0a 18       	jmp	[r10]
 7003654:	40 bd 00 05 	movhi	1280, r0, r10
 7003658:	ca a0 48 52 	movea	21064, r10, r6
 700365c:	40 bd 00 07 	movhi	1792, r0, r10
 7003660:	ea a0 b8 55 	movea	21944, r10, r7
 7003664:	40 bd 00 07 	movhi	1792, r0, r10
 7003668:	4a a1 f8 2c 	movea	11512, r10, r10
 700366c:	00 ac 04 00 	jal	7003670 <_main+0x64>
 7003670:	e4 47       	add	4, lp
 7003672:	0a 18       	jmp	[r10]
 7003674:	40 bd 00 05 	movhi	1280, r0, r10
 7003678:	ca a0 80 51 	movea	20864, r10, r6
 700367c:	40 bd 00 07 	movhi	1792, r0, r10
 7003680:	ea a0 04 58 	movea	22532, r10, r7
 7003684:	40 bd 00 07 	movhi	1792, r0, r10
 7003688:	4a a1 f8 2c 	movea	11512, r10, r10
 700368c:	00 ac 04 00 	jal	7003690 <_main+0x84>
 7003690:	e4 47       	add	4, lp
 7003692:	0a 18       	jmp	[r10]
 7003694:	40 bd 00 05 	movhi	1280, r0, r10
 7003698:	ca a0 3c 01 	movea	316, r10, r6
 700369c:	40 bd 00 07 	movhi	1792, r0, r10
 70036a0:	ea a0 90 54 	movea	21648, r10, r7
 70036a4:	40 bd 00 07 	movhi	1792, r0, r10
 70036a8:	4a a1 f8 2c 	movea	11512, r10, r10
 70036ac:	00 ac 04 00 	jal	70036b0 <_main+0xa4>
 70036b0:	e4 47       	add	4, lp
 70036b2:	0a 18       	jmp	[r10]
 70036b4:	40 bd 00 05 	movhi	1280, r0, r10
 70036b8:	ca a0 04 02 	movea	516, r10, r6
 70036bc:	40 bd 00 07 	movhi	1792, r0, r10
 70036c0:	ea a0 30 58 	movea	22576, r10, r7
 70036c4:	40 bd 00 07 	movhi	1792, r0, r10
 70036c8:	4a a1 f8 2c 	movea	11512, r10, r10
 70036cc:	00 ac 04 00 	jal	70036d0 <_main+0xc4>
 70036d0:	e4 47       	add	4, lp
 70036d2:	0a 18       	jmp	[r10]
 70036d4:	40 bd 00 05 	movhi	1280, r0, r10
 70036d8:	4a a1 80 51 	movea	20864, r10, r10
 70036dc:	60 bd ff ff 	movhi	-1, r0, r11
 70036e0:	6b a1 c0 63 	movea	25536, r11, r11
 70036e4:	6a dd 24 00 	st.w	r11, 36[r10]
 70036e8:	40 bd 00 05 	movhi	1280, r0, r10
 70036ec:	4a a1 80 51 	movea	20864, r10, r10
 70036f0:	60 a1 40 06 	movea	1600, r0, r11
 70036f4:	6a dd 7c 00 	st.w	r11, 124[r10]
 70036f8:	40 bd 00 05 	movhi	1280, r0, r10
 70036fc:	4a a1 3c 01 	movea	316, r10, r10
 7003700:	60 a1 80 c1 	movea	-16000, r0, r11
 7003704:	6a dd 24 00 	st.w	r11, 36[r10]
 7003708:	40 bd 00 05 	movhi	1280, r0, r10
 700370c:	4a a1 3c 01 	movea	316, r10, r10
 7003710:	60 bd 01 00 	movhi	1, r0, r11
 7003714:	6b a1 40 9c 	movea	-25536, r11, r11
 7003718:	6a dd 2c 00 	st.w	r11, 44[r10]
 700371c:	40 bd 00 05 	movhi	1280, r0, r10
 7003720:	4a a1 3c 01 	movea	316, r10, r10
 7003724:	60 a1 40 06 	movea	1600, r0, r11
 7003728:	6a dd 7c 00 	st.w	r11, 124[r10]
 700372c:	40 bd 00 05 	movhi	1280, r0, r10
 7003730:	4a a1 04 02 	movea	516, r10, r10
 7003734:	60 a1 80 3e 	movea	16000, r0, r11
 7003738:	6a dd 24 00 	st.w	r11, 36[r10]
 700373c:	40 bd 00 05 	movhi	1280, r0, r10
 7003740:	4a a1 04 02 	movea	516, r10, r10
 7003744:	60 bd 01 00 	movhi	1, r0, r11
 7003748:	6b a1 80 38 	movea	14464, r11, r11
 700374c:	6a dd 2c 00 	st.w	r11, 44[r10]
 7003750:	40 bd 00 05 	movhi	1280, r0, r10
 7003754:	4a a1 04 02 	movea	516, r10, r10
 7003758:	60 a1 40 06 	movea	1600, r0, r11
 700375c:	6a dd 7c 00 	st.w	r11, 124[r10]
 7003760:	40 bd 00 05 	movhi	1280, r0, r10
 7003764:	4a a1 48 52 	movea	21064, r10, r10
 7003768:	60 bd 01 00 	movhi	1, r0, r11
 700376c:	6b a1 80 38 	movea	14464, r11, r11
 7003770:	6a dd 2c 00 	st.w	r11, 44[r10]
 7003774:	40 bd 00 05 	movhi	1280, r0, r10
 7003778:	4a a1 48 52 	movea	21064, r10, r10
 700377c:	6a cd 2c 00 	ld.w	44[r10],r11
 7003780:	40 bd 00 05 	movhi	1280, r0, r10
 7003784:	4a a1 48 52 	movea	21064, r10, r10
 7003788:	6a dd 40 00 	st.w	r11, 64[r10]
 700378c:	40 bd 00 05 	movhi	1280, r0, r10
 7003790:	4a a1 48 52 	movea	21064, r10, r10
 7003794:	60 a1 40 1f 	movea	8000, r0, r11
 7003798:	6a dd 28 00 	st.w	r11, 40[r10]
 700379c:	40 bd 00 05 	movhi	1280, r0, r10
 70037a0:	4a a1 48 52 	movea	21064, r10, r10
 70037a4:	6a cd 28 00 	ld.w	40[r10],r11
 70037a8:	40 bd 00 05 	movhi	1280, r0, r10
 70037ac:	4a a1 48 52 	movea	21064, r10, r10
 70037b0:	6a dd 3c 00 	st.w	r11, 60[r10]
 70037b4:	40 bd 00 05 	movhi	1280, r0, r10
 70037b8:	4a a1 48 52 	movea	21064, r10, r10
 70037bc:	0a dc 24 00 	st.w	r0, 36[r10]
 70037c0:	40 bd 00 05 	movhi	1280, r0, r10
 70037c4:	4a a1 48 52 	movea	21064, r10, r10
 70037c8:	6a cd 24 00 	ld.w	36[r10],r11
 70037cc:	40 bd 00 05 	movhi	1280, r0, r10
 70037d0:	4a a1 48 52 	movea	21064, r10, r10
 70037d4:	6a dd 38 00 	st.w	r11, 56[r10]
 70037d8:	40 bd 00 05 	movhi	1280, r0, r10
 70037dc:	4a a1 48 52 	movea	21064, r10, r10
 70037e0:	60 a1 b4 00 	movea	180, r0, r11
 70037e4:	6a dd 50 00 	st.w	r11, 80[r10]
 70037e8:	40 bd 00 05 	movhi	1280, r0, r10
 70037ec:	4a a1 48 52 	movea	21064, r10, r10
 70037f0:	6a 41       	mov	10, r11
 70037f2:	6a dd 60 00 	st.w	r11, 96[r10]
 70037f6:	40 bd 00 05 	movhi	1280, r0, r10
 70037fa:	4a a1 48 52 	movea	21064, r10, r10
 70037fe:	60 a1 80 02 	movea	640, r0, r11
 7003802:	6a dd 74 00 	st.w	r11, 116[r10]
 7003806:	40 bd 00 05 	movhi	1280, r0, r10
 700380a:	4a a1 48 52 	movea	21064, r10, r10
 700380e:	60 a1 80 02 	movea	640, r0, r11
 7003812:	6a dd 78 00 	st.w	r11, 120[r10]
 7003816:	40 bd 00 05 	movhi	1280, r0, r10
 700381a:	4a a1 48 52 	movea	21064, r10, r10
 700381e:	60 a1 80 02 	movea	640, r0, r11
 7003822:	6a dd 7c 00 	st.w	r11, 124[r10]
 7003826:	40 bd 00 05 	movhi	1280, r0, r10
 700382a:	4a a1 74 00 	movea	116, r10, r10
 700382e:	60 bd 01 00 	movhi	1, r0, r11
 7003832:	6b a1 40 9c 	movea	-25536, r11, r11
 7003836:	6a dd 2c 00 	st.w	r11, 44[r10]
 700383a:	40 bd 00 05 	movhi	1280, r0, r10
 700383e:	4a a1 74 00 	movea	116, r10, r10
 7003842:	60 a1 c0 5d 	movea	24000, r0, r11
 7003846:	6a dd 28 00 	st.w	r11, 40[r10]
 700384a:	40 bd 00 05 	movhi	1280, r0, r10
 700384e:	4a a1 74 00 	movea	116, r10, r10
 7003852:	60 a1 20 03 	movea	800, r0, r11
 7003856:	6a dd 74 00 	st.w	r11, 116[r10]
 700385a:	40 bd 00 05 	movhi	1280, r0, r10
 700385e:	4a a1 74 00 	movea	116, r10, r10
 7003862:	60 a1 90 01 	movea	400, r0, r11
 7003866:	6a dd 78 00 	st.w	r11, 120[r10]
 700386a:	40 bd 00 05 	movhi	1280, r0, r10
 700386e:	4a a1 74 00 	movea	116, r10, r10
 7003872:	60 a1 40 06 	movea	1600, r0, r11
 7003876:	6a dd 7c 00 	st.w	r11, 124[r10]
 700387a:	40 bd 00 05 	movhi	1280, r0, r10
 700387e:	4a a1 74 00 	movea	116, r10, r10
 7003882:	64 41       	mov	4, r11
 7003884:	6a dd 9c 00 	st.w	r11, 156[r10]
 7003888:	40 bd 00 05 	movhi	1280, r0, r10
 700388c:	4a a1 74 00 	movea	116, r10, r10
 7003890:	64 41       	mov	4, r11
 7003892:	6a dd a0 00 	st.w	r11, 160[r10]
 7003896:	40 bd 00 05 	movhi	1280, r0, r10
 700389a:	4a a1 74 00 	movea	116, r10, r10
 700389e:	64 41       	mov	4, r11
 70038a0:	6a dd a4 00 	st.w	r11, 164[r10]
 70038a4:	40 bd 00 05 	movhi	1280, r0, r10
 70038a8:	4a a1 f0 50 	movea	20720, r10, r10
 70038ac:	60 a1 40 1f 	movea	8000, r0, r11
 70038b0:	6a dd 04 00 	st.w	r11, 4[r10]
 70038b4:	40 bd 00 05 	movhi	1280, r0, r10
 70038b8:	4a a1 f0 50 	movea	20720, r10, r10
 70038bc:	6a cd 08 00 	ld.w	8[r10],r11
 70038c0:	40 bd 00 05 	movhi	1280, r0, r10
 70038c4:	4a a1 f0 50 	movea	20720, r10, r10
 70038c8:	6a dd 44 00 	st.w	r11, 68[r10]
 70038cc:	40 bd 00 05 	movhi	1280, r0, r10
 70038d0:	4a a1 f0 50 	movea	20720, r10, r10
 70038d4:	6a cd 04 00 	ld.w	4[r10],r11
 70038d8:	40 bd 00 05 	movhi	1280, r0, r10
 70038dc:	4a a1 f0 50 	movea	20720, r10, r10
 70038e0:	6a dd 40 00 	st.w	r11, 64[r10]
 70038e4:	40 bd 00 05 	movhi	1280, r0, r10
 70038e8:	4a a1 f0 50 	movea	20720, r10, r10
 70038ec:	6a cd 00 00 	ld.w	0[r10],r11
 70038f0:	40 bd 00 05 	movhi	1280, r0, r10
 70038f4:	4a a1 f0 50 	movea	20720, r10, r10
 70038f8:	6a dd 3c 00 	st.w	r11, 60[r10]
 70038fc:	40 bd 00 05 	movhi	1280, r0, r10
 7003900:	4a a1 5c 00 	movea	92, r10, r10
 7003904:	0a dc 00 00 	st.w	r0, 0[r10]
 7003908:	40 bd 00 05 	movhi	1280, r0, r10
 700390c:	4a a1 60 00 	movea	96, r10, r10
 7003910:	0a dc 00 00 	st.w	r0, 0[r10]
 7003914:	40 bd 00 05 	movhi	1280, r0, r10
 7003918:	4a a1 64 00 	movea	100, r10, r10
 700391c:	0a dc 00 00 	st.w	r0, 0[r10]
 7003920:	40 bd 00 05 	movhi	1280, r0, r10
 7003924:	ca a0 74 00 	movea	116, r10, r6
 7003928:	40 bd 00 07 	movhi	1792, r0, r10
 700392c:	4a a1 e8 40 	movea	16616, r10, r10
 7003930:	00 ac 04 00 	jal	7003934 <_main+0x328>
 7003934:	e4 47       	add	4, lp
 7003936:	0a 18       	jmp	[r10]
 7003938:	40 bd 00 05 	movhi	1280, r0, r10
 700393c:	ca a0 f0 50 	movea	20720, r10, r6
 7003940:	40 bd 00 07 	movhi	1792, r0, r10
 7003944:	4a a1 3c 32 	movea	12860, r10, r10
 7003948:	00 ac 04 00 	jal	700394c <_main+0x340>
 700394c:	e4 47       	add	4, lp
 700394e:	0a 18       	jmp	[r10]
 7003950:	40 bd 00 05 	movhi	1280, r0, r10
 7003954:	4a a1 f0 50 	movea	20720, r10, r10
 7003958:	6a cd 00 00 	ld.w	0[r10],r11
 700395c:	40 bd 00 05 	movhi	1280, r0, r10
 7003960:	4a a1 74 00 	movea	116, r10, r10
 7003964:	6a dd 38 00 	st.w	r11, 56[r10]
 7003968:	40 bd 00 05 	movhi	1280, r0, r10
 700396c:	4a a1 f0 50 	movea	20720, r10, r10
 7003970:	6a cd 04 00 	ld.w	4[r10],r11
 7003974:	40 bd 00 05 	movhi	1280, r0, r10
 7003978:	4a a1 74 00 	movea	116, r10, r10
 700397c:	6a dd 3c 00 	st.w	r11, 60[r10]
 7003980:	40 bd 00 05 	movhi	1280, r0, r10
 7003984:	4a a1 f0 50 	movea	20720, r10, r10
 7003988:	6a cd 08 00 	ld.w	8[r10],r11
 700398c:	40 bd 00 05 	movhi	1280, r0, r10
 7003990:	4a a1 f0 50 	movea	20720, r10, r10
 7003994:	4a cd 8c 00 	ld.w	140[r10],r10
 7003998:	4b 05       	add	r11, r10
 700399a:	6a a5 a0 0f 	addi	4000, r10, r11
 700399e:	40 bd 00 05 	movhi	1280, r0, r10
 70039a2:	4a a1 74 00 	movea	116, r10, r10
 70039a6:	6a dd 40 00 	st.w	r11, 64[r10]
 70039aa:	40 bd 00 05 	movhi	1280, r0, r10
 70039ae:	ca a0 48 52 	movea	21064, r10, r6
 70039b2:	40 bd 00 07 	movhi	1792, r0, r10
 70039b6:	4a a1 64 3b 	movea	15204, r10, r10
 70039ba:	00 ac 04 00 	jal	70039be <_main+0x3b2>
 70039be:	e4 47       	add	4, lp
 70039c0:	0a 18       	jmp	[r10]
 70039c2:	40 bd 00 05 	movhi	1280, r0, r10
 70039c6:	ca a0 74 00 	movea	116, r10, r6
 70039ca:	40 bd 00 07 	movhi	1792, r0, r10
 70039ce:	4a a1 f8 2d 	movea	11768, r10, r10
 70039d2:	00 ac 04 00 	jal	70039d6 <_main+0x3ca>
 70039d6:	e4 47       	add	4, lp
 70039d8:	0a 18       	jmp	[r10]
 70039da:	40 bd 00 05 	movhi	1280, r0, r10
 70039de:	ca a0 48 52 	movea	21064, r10, r6
 70039e2:	40 bd 00 07 	movhi	1792, r0, r10
 70039e6:	4a a1 f8 2d 	movea	11768, r10, r10
 70039ea:	00 ac 04 00 	jal	70039ee <_main+0x3e2>
 70039ee:	e4 47       	add	4, lp
 70039f0:	0a 18       	jmp	[r10]
 70039f2:	40 bd 00 05 	movhi	1280, r0, r10
 70039f6:	4a a1 50 00 	movea	80, r10, r10
 70039fa:	6a cd 00 00 	ld.w	0[r10],r11
 70039fe:	40 a1 0a 01 	movea	266, r0, r10
 7003a02:	6a 0d       	cmp	r10, r11
 7003a04:	12 86       	bnh	7003a16 <_main+0x40a>
 7003a06:	40 bd 00 05 	movhi	1280, r0, r10
 7003a0a:	4a a1 4d 00 	movea	77, r10, r10
 7003a0e:	61 41       	mov	1, r11
 7003a10:	6a d1 00 00 	st.b	r11, 0[r10]
 7003a14:	0e 8a       	br	7003a22 <_main+0x416>
 7003a16:	40 bd 00 05 	movhi	1280, r0, r10
 7003a1a:	4a a1 4d 00 	movea	77, r10, r10
 7003a1e:	0a d0 00 00 	st.b	r0, 0[r10]
 7003a22:	40 bd 00 07 	movhi	1792, r0, r10
 7003a26:	4a a1 7c 3c 	movea	15484, r10, r10
 7003a2a:	00 ac 04 00 	jal	7003a2e <_main+0x422>
 7003a2e:	e4 47       	add	4, lp
 7003a30:	0a 18       	jmp	[r10]
 7003a32:	40 bd 00 05 	movhi	1280, r0, r10
 7003a36:	4a a1 4d 00 	movea	77, r10, r10
 7003a3a:	4a c1 00 00 	ld.b	0[r10],r10
 7003a3e:	4a b5 ff 00 	andi	255, r10, r10
 7003a42:	40 0d       	cmp	r0, r10
 7003a44:	c6 94       	bne	7003b0a <_main+0x4fe>
 7003a46:	40 bd 00 05 	movhi	1280, r0, r10
 7003a4a:	ca a0 48 52 	movea	21064, r10, r6
 7003a4e:	40 bd 00 07 	movhi	1792, r0, r10
 7003a52:	4a a1 d4 20 	movea	8404, r10, r10
 7003a56:	00 ac 04 00 	jal	7003a5a <_main+0x44e>
 7003a5a:	e4 47       	add	4, lp
 7003a5c:	0a 18       	jmp	[r10]
 7003a5e:	40 bd 00 05 	movhi	1280, r0, r10
 7003a62:	4a a1 48 52 	movea	21064, r10, r10
 7003a66:	4a cd 24 00 	ld.w	36[r10],r10
 7003a6a:	6a a5 40 1f 	addi	8000, r10, r11
 7003a6e:	40 bd 00 05 	movhi	1280, r0, r10
 7003a72:	4a a1 48 52 	movea	21064, r10, r10
 7003a76:	6a dd 24 00 	st.w	r11, 36[r10]
 7003a7a:	40 bd 00 05 	movhi	1280, r0, r10
 7003a7e:	ca a0 48 52 	movea	21064, r10, r6
 7003a82:	40 bd 00 07 	movhi	1792, r0, r10
 7003a86:	4a a1 d4 20 	movea	8404, r10, r10
 7003a8a:	00 ac 04 00 	jal	7003a8e <_main+0x482>
 7003a8e:	e4 47       	add	4, lp
 7003a90:	0a 18       	jmp	[r10]
 7003a92:	40 bd 00 05 	movhi	1280, r0, r10
 7003a96:	4a a1 48 52 	movea	21064, r10, r10
 7003a9a:	4a cd 24 00 	ld.w	36[r10],r10
 7003a9e:	6a a5 40 1f 	addi	8000, r10, r11
 7003aa2:	40 bd 00 05 	movhi	1280, r0, r10
 7003aa6:	4a a1 48 52 	movea	21064, r10, r10
 7003aaa:	6a dd 24 00 	st.w	r11, 36[r10]
 7003aae:	40 bd 00 05 	movhi	1280, r0, r10
 7003ab2:	ca a0 48 52 	movea	21064, r10, r6
 7003ab6:	40 bd 00 07 	movhi	1792, r0, r10
 7003aba:	4a a1 d4 20 	movea	8404, r10, r10
 7003abe:	00 ac 04 00 	jal	7003ac2 <_main+0x4b6>
 7003ac2:	e4 47       	add	4, lp
 7003ac4:	0a 18       	jmp	[r10]
 7003ac6:	40 bd 00 05 	movhi	1280, r0, r10
 7003aca:	4a a1 48 52 	movea	21064, r10, r10
 7003ace:	4a cd 24 00 	ld.w	36[r10],r10
 7003ad2:	6a a5 80 c1 	addi	-16000, r10, r11
 7003ad6:	40 bd 00 05 	movhi	1280, r0, r10
 7003ada:	4a a1 48 52 	movea	21064, r10, r10
 7003ade:	6a dd 24 00 	st.w	r11, 36[r10]
 7003ae2:	40 bd 00 05 	movhi	1280, r0, r10
 7003ae6:	ca a0 74 00 	movea	116, r10, r6
 7003aea:	40 bd 00 07 	movhi	1792, r0, r10
 7003aee:	4a a1 d4 20 	movea	8404, r10, r10
 7003af2:	00 ac 04 00 	jal	7003af6 <_main+0x4ea>
 7003af6:	e4 47       	add	4, lp
 7003af8:	0a 18       	jmp	[r10]
 7003afa:	40 bd 00 07 	movhi	1792, r0, r10
 7003afe:	4a a1 dc 45 	movea	17884, r10, r10
 7003b02:	00 ac 04 00 	jal	7003b06 <_main+0x4fa>
 7003b06:	e4 47       	add	4, lp
 7003b08:	0a 18       	jmp	[r10]
 7003b0a:	40 bd 00 05 	movhi	1280, r0, r10
 7003b0e:	4a a1 50 00 	movea	80, r10, r10
 7003b12:	6a cd 00 00 	ld.w	0[r10],r11
 7003b16:	40 a1 09 01 	movea	265, r0, r10
 7003b1a:	6a 0d       	cmp	r10, r11
 7003b1c:	ee 87       	bnh	7003b0a <_main+0x4fe>
 7003b1e:	40 bd 00 05 	movhi	1280, r0, r10
 7003b22:	4a a1 50 00 	movea	80, r10, r10
 7003b26:	6a cd 00 00 	ld.w	0[r10],r11
 7003b2a:	40 a1 0a 01 	movea	266, r0, r10
 7003b2e:	6a 0d       	cmp	r10, r11
 7003b30:	12 96       	bh	7003b42 <_main+0x536>
 7003b32:	40 bd 00 05 	movhi	1280, r0, r10
 7003b36:	4a a1 50 00 	movea	80, r10, r10
 7003b3a:	0a dc 00 00 	st.w	r0, 0[r10]
 7003b3e:	ff ab be fd 	jr	70038fc <_main+0x2f0>
 7003b42:	40 bd 00 05 	movhi	1280, r0, r10
 7003b46:	4a a1 50 00 	movea	80, r10, r10
 7003b4a:	4a cd 00 00 	ld.w	0[r10],r10
 7003b4e:	6a a5 f6 fe 	addi	-266, r10, r11
 7003b52:	40 bd 00 05 	movhi	1280, r0, r10
 7003b56:	4a a1 50 00 	movea	80, r10, r10
 7003b5a:	6a dd 00 00 	st.w	r11, 0[r10]
 7003b5e:	ff ab 9e fd 	jr	70038fc <_main+0x2f0>
	...

07003b64 <_doMoveEnemy>:
 7003b64:	c3 dc 00 00 	st.w	r6, 0[sp]
 7003b68:	40 bd 00 05 	movhi	1280, r0, r10
 7003b6c:	4a a1 68 00 	movea	104, r10, r10
 7003b70:	4a c1 00 00 	ld.b	0[r10],r10
 7003b74:	4a b5 ff 00 	andi	255, r10, r10
 7003b78:	4b 4d       	cmp	11, r10
 7003b7a:	0e 86       	bnh	7003b88 <_doMoveEnemy+0x24>
 7003b7c:	40 bd 00 05 	movhi	1280, r0, r10
 7003b80:	4a a1 68 00 	movea	104, r10, r10
 7003b84:	0a d0 00 00 	st.b	r0, 0[r10]
 7003b88:	43 cd 00 00 	ld.w	0[sp],r10
 7003b8c:	6a cd 38 00 	ld.w	56[r10],r11
 7003b90:	43 cd 00 00 	ld.w	0[sp],r10
 7003b94:	4a cd 24 00 	ld.w	36[r10],r10
 7003b98:	6a 0d       	cmp	r10, r11
 7003b9a:	de 94       	bne	7003c78 <_doMoveEnemy+0x114>
 7003b9c:	43 cd 00 00 	ld.w	0[sp],r10
 7003ba0:	6a cd 3c 00 	ld.w	60[r10],r11
 7003ba4:	43 cd 00 00 	ld.w	0[sp],r10
 7003ba8:	4a cd 28 00 	ld.w	40[r10],r10
 7003bac:	6a 0d       	cmp	r10, r11
 7003bae:	ca 94       	bne	7003c78 <_doMoveEnemy+0x114>
 7003bb0:	43 cd 00 00 	ld.w	0[sp],r10
 7003bb4:	6a cd 40 00 	ld.w	64[r10],r11
 7003bb8:	43 cd 00 00 	ld.w	0[sp],r10
 7003bbc:	4a cd 2c 00 	ld.w	44[r10],r10
 7003bc0:	6a 0d       	cmp	r10, r11
 7003bc2:	b6 94       	bne	7003c78 <_doMoveEnemy+0x114>
 7003bc4:	40 bd 00 05 	movhi	1280, r0, r10
 7003bc8:	4a a1 68 00 	movea	104, r10, r10
 7003bcc:	4a c1 00 00 	ld.b	0[r10],r10
 7003bd0:	4a b5 ff 00 	andi	255, r10, r10
 7003bd4:	60 bd 00 05 	movhi	1280, r0, r11
 7003bd8:	8b a1 08 00 	movea	8, r11, r12
 7003bdc:	6a 01       	mov	r10, r11
 7003bde:	62 51       	shl	2, r11
 7003be0:	6c 05       	add	r12, r11
 7003be2:	8b cd 00 00 	ld.w	0[r11],r12
 7003be6:	63 cd 00 00 	ld.w	0[sp],r11
 7003bea:	8b dd 38 00 	st.w	r12, 56[r11]
 7003bee:	41 45       	add	1, r10
 7003bf0:	6a b5 ff 00 	andi	255, r10, r11
 7003bf4:	40 bd 00 05 	movhi	1280, r0, r10
 7003bf8:	4a a1 68 00 	movea	104, r10, r10
 7003bfc:	6a d1 00 00 	st.b	r11, 0[r10]
 7003c00:	40 bd 00 05 	movhi	1280, r0, r10
 7003c04:	4a a1 68 00 	movea	104, r10, r10
 7003c08:	4a c1 00 00 	ld.b	0[r10],r10
 7003c0c:	4a b5 ff 00 	andi	255, r10, r10
 7003c10:	60 bd 00 05 	movhi	1280, r0, r11
 7003c14:	8b a1 08 00 	movea	8, r11, r12
 7003c18:	6a 01       	mov	r10, r11
 7003c1a:	62 51       	shl	2, r11
 7003c1c:	6c 05       	add	r12, r11
 7003c1e:	8b cd 00 00 	ld.w	0[r11],r12
 7003c22:	63 cd 00 00 	ld.w	0[sp],r11
 7003c26:	8b dd 3c 00 	st.w	r12, 60[r11]
 7003c2a:	41 45       	add	1, r10
 7003c2c:	6a b5 ff 00 	andi	255, r10, r11
 7003c30:	40 bd 00 05 	movhi	1280, r0, r10
 7003c34:	4a a1 68 00 	movea	104, r10, r10
 7003c38:	6a d1 00 00 	st.b	r11, 0[r10]
 7003c3c:	40 bd 00 05 	movhi	1280, r0, r10
 7003c40:	4a a1 68 00 	movea	104, r10, r10
 7003c44:	4a c1 00 00 	ld.b	0[r10],r10
 7003c48:	4a b5 ff 00 	andi	255, r10, r10
 7003c4c:	60 bd 00 05 	movhi	1280, r0, r11
 7003c50:	8b a1 08 00 	movea	8, r11, r12
 7003c54:	6a 01       	mov	r10, r11
 7003c56:	62 51       	shl	2, r11
 7003c58:	6c 05       	add	r12, r11
 7003c5a:	8b cd 00 00 	ld.w	0[r11],r12
 7003c5e:	63 cd 00 00 	ld.w	0[sp],r11
 7003c62:	8b dd 40 00 	st.w	r12, 64[r11]
 7003c66:	41 45       	add	1, r10
 7003c68:	6a b5 ff 00 	andi	255, r10, r11
 7003c6c:	40 bd 00 05 	movhi	1280, r0, r10
 7003c70:	4a a1 68 00 	movea	104, r10, r10
 7003c74:	6a d1 00 00 	st.b	r11, 0[r10]
 7003c78:	1f 18       	jmp	[lp]
	...

07003c7c <_doGroundEffects>:
 7003c7c:	63 a4 e8 ff 	addi	-24, sp, sp
 7003c80:	e3 df 14 00 	st.w	lp, 20[sp]
 7003c84:	40 bd 00 05 	movhi	1280, r0, r10
 7003c88:	4a a1 80 51 	movea	20864, r10, r10
 7003c8c:	6a cd 40 00 	ld.w	64[r10],r11
 7003c90:	40 bd 00 05 	movhi	1280, r0, r10
 7003c94:	4a a1 80 51 	movea	20864, r10, r10
 7003c98:	4a cd 2c 00 	ld.w	44[r10],r10
 7003c9c:	6a 0d       	cmp	r10, r11
 7003c9e:	28 94       	bne	7003cc6 <_doGroundEffects+0x4a>
 7003ca0:	40 bd 00 05 	movhi	1280, r0, r10
 7003ca4:	4a a1 80 51 	movea	20864, r10, r10
 7003ca8:	6a cd 2c 00 	ld.w	44[r10],r11
 7003cac:	40 bd 00 05 	movhi	1280, r0, r10
 7003cb0:	4a a1 80 51 	movea	20864, r10, r10
 7003cb4:	4a cd 7c 00 	ld.w	124[r10],r10
 7003cb8:	6a 09       	sub	r10, r11
 7003cba:	40 bd 00 05 	movhi	1280, r0, r10
 7003cbe:	4a a1 80 51 	movea	20864, r10, r10
 7003cc2:	6a dd 40 00 	st.w	r11, 64[r10]
 7003cc6:	40 bd 00 05 	movhi	1280, r0, r10
 7003cca:	4a a1 3c 01 	movea	316, r10, r10
 7003cce:	6a cd 40 00 	ld.w	64[r10],r11
 7003cd2:	40 bd 00 05 	movhi	1280, r0, r10
 7003cd6:	4a a1 3c 01 	movea	316, r10, r10
 7003cda:	4a cd 2c 00 	ld.w	44[r10],r10
 7003cde:	6a 0d       	cmp	r10, r11
 7003ce0:	28 94       	bne	7003d08 <_doGroundEffects+0x8c>
 7003ce2:	40 bd 00 05 	movhi	1280, r0, r10
 7003ce6:	4a a1 3c 01 	movea	316, r10, r10
 7003cea:	6a cd 2c 00 	ld.w	44[r10],r11
 7003cee:	40 bd 00 05 	movhi	1280, r0, r10
 7003cf2:	4a a1 3c 01 	movea	316, r10, r10
 7003cf6:	4a cd 7c 00 	ld.w	124[r10],r10
 7003cfa:	6a 09       	sub	r10, r11
 7003cfc:	40 bd 00 05 	movhi	1280, r0, r10
 7003d00:	4a a1 3c 01 	movea	316, r10, r10
 7003d04:	6a dd 40 00 	st.w	r11, 64[r10]
 7003d08:	40 bd 00 05 	movhi	1280, r0, r10
 7003d0c:	4a a1 04 02 	movea	516, r10, r10
 7003d10:	6a cd 40 00 	ld.w	64[r10],r11
 7003d14:	40 bd 00 05 	movhi	1280, r0, r10
 7003d18:	4a a1 04 02 	movea	516, r10, r10
 7003d1c:	4a cd 2c 00 	ld.w	44[r10],r10
 7003d20:	6a 0d       	cmp	r10, r11
 7003d22:	28 94       	bne	7003d4a <_doGroundEffects+0xce>
 7003d24:	40 bd 00 05 	movhi	1280, r0, r10
 7003d28:	4a a1 04 02 	movea	516, r10, r10
 7003d2c:	6a cd 2c 00 	ld.w	44[r10],r11
 7003d30:	40 bd 00 05 	movhi	1280, r0, r10
 7003d34:	4a a1 04 02 	movea	516, r10, r10
 7003d38:	4a cd 7c 00 	ld.w	124[r10],r10
 7003d3c:	6a 09       	sub	r10, r11
 7003d3e:	40 bd 00 05 	movhi	1280, r0, r10
 7003d42:	4a a1 04 02 	movea	516, r10, r10
 7003d46:	6a dd 40 00 	st.w	r11, 64[r10]
 7003d4a:	40 bd 00 05 	movhi	1280, r0, r10
 7003d4e:	ca a0 80 51 	movea	20864, r10, r6
 7003d52:	40 bd 00 07 	movhi	1792, r0, r10
 7003d56:	4a a1 f8 2d 	movea	11768, r10, r10
 7003d5a:	00 ac 04 00 	jal	7003d5e <_doGroundEffects+0xe2>
 7003d5e:	e4 47       	add	4, lp
 7003d60:	0a 18       	jmp	[r10]
 7003d62:	40 bd 00 05 	movhi	1280, r0, r10
 7003d66:	ca a0 3c 01 	movea	316, r10, r6
 7003d6a:	40 bd 00 07 	movhi	1792, r0, r10
 7003d6e:	4a a1 f8 2d 	movea	11768, r10, r10
 7003d72:	00 ac 04 00 	jal	7003d76 <_doGroundEffects+0xfa>
 7003d76:	e4 47       	add	4, lp
 7003d78:	0a 18       	jmp	[r10]
 7003d7a:	40 bd 00 05 	movhi	1280, r0, r10
 7003d7e:	ca a0 04 02 	movea	516, r10, r6
 7003d82:	40 bd 00 07 	movhi	1792, r0, r10
 7003d86:	4a a1 f8 2d 	movea	11768, r10, r10
 7003d8a:	00 ac 04 00 	jal	7003d8e <_doGroundEffects+0x112>
 7003d8e:	e4 47       	add	4, lp
 7003d90:	0a 18       	jmp	[r10]
 7003d92:	40 bd 00 05 	movhi	1280, r0, r10
 7003d96:	4a a1 80 51 	movea	20864, r10, r10
 7003d9a:	4a cd 2c 00 	ld.w	44[r10],r10
 7003d9e:	40 0d       	cmp	r0, r10
 7003da0:	16 9c       	bge	7003db6 <_doGroundEffects+0x13a>
 7003da2:	40 bd 00 05 	movhi	1280, r0, r10
 7003da6:	4a a1 80 51 	movea	20864, r10, r10
 7003daa:	60 bd 01 00 	movhi	1, r0, r11
 7003dae:	6b a1 40 9c 	movea	-25536, r11, r11
 7003db2:	6a dd 2c 00 	st.w	r11, 44[r10]
 7003db6:	40 bd 00 05 	movhi	1280, r0, r10
 7003dba:	4a a1 3c 01 	movea	316, r10, r10
 7003dbe:	4a cd 2c 00 	ld.w	44[r10],r10
 7003dc2:	40 0d       	cmp	r0, r10
 7003dc4:	94 9c       	bge	7003e58 <_doGroundEffects+0x1dc>
 7003dc6:	40 bd 00 05 	movhi	1280, r0, r10
 7003dca:	4a a1 3c 01 	movea	316, r10, r10
 7003dce:	60 bd 01 00 	movhi	1, r0, r11
 7003dd2:	6b a1 80 38 	movea	14464, r11, r11
 7003dd6:	6a dd 2c 00 	st.w	r11, 44[r10]
 7003dda:	40 bd 00 05 	movhi	1280, r0, r10
 7003dde:	4a a1 3c 01 	movea	316, r10, r10
 7003de2:	4a cd 24 00 	ld.w	36[r10],r10
 7003de6:	6a a5 a0 0f 	addi	4000, r10, r11
 7003dea:	40 bd 00 05 	movhi	1280, r0, r10
 7003dee:	4a a1 3c 01 	movea	316, r10, r10
 7003df2:	6a dd 24 00 	st.w	r11, 36[r10]
 7003df6:	40 bd 00 05 	movhi	1280, r0, r10
 7003dfa:	4a a1 3c 01 	movea	316, r10, r10
 7003dfe:	4a cd a0 00 	ld.w	160[r10],r10
 7003e02:	6a a5 04 00 	addi	4, r10, r11
 7003e06:	40 bd 00 05 	movhi	1280, r0, r10
 7003e0a:	4a a1 3c 01 	movea	316, r10, r10
 7003e0e:	6a dd a0 00 	st.w	r11, 160[r10]
 7003e12:	40 bd 00 05 	movhi	1280, r0, r10
 7003e16:	4a a1 3c 01 	movea	316, r10, r10
 7003e1a:	6a cd 24 00 	ld.w	36[r10],r11
 7003e1e:	40 a1 e0 2e 	movea	12000, r0, r10
 7003e22:	6a 0d       	cmp	r10, r11
 7003e24:	12 8e       	ble	7003e36 <_doGroundEffects+0x1ba>
 7003e26:	40 bd 00 05 	movhi	1280, r0, r10
 7003e2a:	4a a1 3c 01 	movea	316, r10, r10
 7003e2e:	60 a1 80 c1 	movea	-16000, r0, r11
 7003e32:	6a dd 24 00 	st.w	r11, 36[r10]
 7003e36:	40 bd 00 05 	movhi	1280, r0, r10
 7003e3a:	4a a1 3c 01 	movea	316, r10, r10
 7003e3e:	6a cd a0 00 	ld.w	160[r10],r11
 7003e42:	40 a1 10 00 	movea	16, r0, r10
 7003e46:	6a 0d       	cmp	r10, r11
 7003e48:	10 8e       	ble	7003e58 <_doGroundEffects+0x1dc>
 7003e4a:	40 bd 00 05 	movhi	1280, r0, r10
 7003e4e:	4a a1 3c 01 	movea	316, r10, r10
 7003e52:	68 41       	mov	8, r11
 7003e54:	6a dd a0 00 	st.w	r11, 160[r10]
 7003e58:	40 bd 00 05 	movhi	1280, r0, r10
 7003e5c:	4a a1 4d 00 	movea	77, r10, r10
 7003e60:	4a c1 00 00 	ld.b	0[r10],r10
 7003e64:	4a b5 ff 00 	andi	255, r10, r10
 7003e68:	40 0d       	cmp	r0, r10
 7003e6a:	1a 94       	bne	7003e84 <_doGroundEffects+0x208>
 7003e6c:	40 bd 00 05 	movhi	1280, r0, r10
 7003e70:	ca a0 3c 01 	movea	316, r10, r6
 7003e74:	40 bd 00 07 	movhi	1792, r0, r10
 7003e78:	4a a1 d4 20 	movea	8404, r10, r10
 7003e7c:	00 ac 04 00 	jal	7003e80 <_doGroundEffects+0x204>
 7003e80:	e4 47       	add	4, lp
 7003e82:	0a 18       	jmp	[r10]
 7003e84:	40 bd 00 05 	movhi	1280, r0, r10
 7003e88:	4a a1 04 02 	movea	516, r10, r10
 7003e8c:	4a cd 2c 00 	ld.w	44[r10],r10
 7003e90:	40 0d       	cmp	r0, r10
 7003e92:	94 9c       	bge	7003f26 <_doGroundEffects+0x2aa>
 7003e94:	40 bd 00 05 	movhi	1280, r0, r10
 7003e98:	4a a1 04 02 	movea	516, r10, r10
 7003e9c:	60 bd 01 00 	movhi	1, r0, r11
 7003ea0:	6b a1 80 38 	movea	14464, r11, r11
 7003ea4:	6a dd 2c 00 	st.w	r11, 44[r10]
 7003ea8:	40 bd 00 05 	movhi	1280, r0, r10
 7003eac:	4a a1 04 02 	movea	516, r10, r10
 7003eb0:	4a cd 24 00 	ld.w	36[r10],r10
 7003eb4:	6a a5 a0 0f 	addi	4000, r10, r11
 7003eb8:	40 bd 00 05 	movhi	1280, r0, r10
 7003ebc:	4a a1 04 02 	movea	516, r10, r10
 7003ec0:	6a dd 24 00 	st.w	r11, 36[r10]
 7003ec4:	40 bd 00 05 	movhi	1280, r0, r10
 7003ec8:	4a a1 04 02 	movea	516, r10, r10
 7003ecc:	4a cd a0 00 	ld.w	160[r10],r10
 7003ed0:	6a a5 08 00 	addi	8, r10, r11
 7003ed4:	40 bd 00 05 	movhi	1280, r0, r10
 7003ed8:	4a a1 04 02 	movea	516, r10, r10
 7003edc:	6a dd a0 00 	st.w	r11, 160[r10]
 7003ee0:	40 bd 00 05 	movhi	1280, r0, r10
 7003ee4:	4a a1 04 02 	movea	516, r10, r10
 7003ee8:	6a cd 24 00 	ld.w	36[r10],r11
 7003eec:	40 a1 60 6d 	movea	28000, r0, r10
 7003ef0:	6a 0d       	cmp	r10, r11
 7003ef2:	12 8e       	ble	7003f04 <_doGroundEffects+0x288>
 7003ef4:	40 bd 00 05 	movhi	1280, r0, r10
 7003ef8:	4a a1 04 02 	movea	516, r10, r10
 7003efc:	60 a1 80 3e 	movea	16000, r0, r11
 7003f00:	6a dd 24 00 	st.w	r11, 36[r10]
 7003f04:	40 bd 00 05 	movhi	1280, r0, r10
 7003f08:	4a a1 04 02 	movea	516, r10, r10
 7003f0c:	6a cd a0 00 	ld.w	160[r10],r11
 7003f10:	40 a1 18 00 	movea	24, r0, r10
 7003f14:	6a 0d       	cmp	r10, r11
 7003f16:	10 8e       	ble	7003f26 <_doGroundEffects+0x2aa>
 7003f18:	40 bd 00 05 	movhi	1280, r0, r10
 7003f1c:	4a a1 04 02 	movea	516, r10, r10
 7003f20:	68 41       	mov	8, r11
 7003f22:	6a dd a0 00 	st.w	r11, 160[r10]
 7003f26:	40 bd 00 05 	movhi	1280, r0, r10
 7003f2a:	4a a1 4d 00 	movea	77, r10, r10
 7003f2e:	4a c1 00 00 	ld.b	0[r10],r10
 7003f32:	4a b5 ff 00 	andi	255, r10, r10
 7003f36:	40 0d       	cmp	r0, r10
 7003f38:	1a 94       	bne	7003f52 <_doGroundEffects+0x2d6>
 7003f3a:	40 bd 00 05 	movhi	1280, r0, r10
 7003f3e:	ca a0 04 02 	movea	516, r10, r6
 7003f42:	40 bd 00 07 	movhi	1792, r0, r10
 7003f46:	4a a1 d4 20 	movea	8404, r10, r10
 7003f4a:	00 ac 04 00 	jal	7003f4e <_doGroundEffects+0x2d2>
 7003f4e:	e4 47       	add	4, lp
 7003f50:	0a 18       	jmp	[r10]
 7003f52:	03 d0 13 00 	st.b	r0, 19[sp]
 7003f56:	c4 8a       	br	700401a <_doGroundEffects+0x39e>
 7003f58:	40 bd 00 05 	movhi	1280, r0, r10
 7003f5c:	4a a1 4d 00 	movea	77, r10, r10
 7003f60:	4a c1 00 00 	ld.b	0[r10],r10
 7003f64:	4a b5 ff 00 	andi	255, r10, r10
 7003f68:	40 0d       	cmp	r0, r10
 7003f6a:	1a 94       	bne	7003f84 <_doGroundEffects+0x308>
 7003f6c:	40 bd 00 05 	movhi	1280, r0, r10
 7003f70:	ca a0 80 51 	movea	20864, r10, r6
 7003f74:	40 bd 00 07 	movhi	1792, r0, r10
 7003f78:	4a a1 d4 20 	movea	8404, r10, r10
 7003f7c:	00 ac 04 00 	jal	7003f80 <_doGroundEffects+0x304>
 7003f80:	e4 47       	add	4, lp
 7003f82:	0a 18       	jmp	[r10]
 7003f84:	40 bd 00 05 	movhi	1280, r0, r10
 7003f88:	4a a1 80 51 	movea	20864, r10, r10
 7003f8c:	4a cd 2c 00 	ld.w	44[r10],r10
 7003f90:	60 bd 01 00 	movhi	1, r0, r11
 7003f94:	6b a1 40 9c 	movea	-25536, r11, r11
 7003f98:	6a 05       	add	r10, r11
 7003f9a:	40 bd 00 05 	movhi	1280, r0, r10
 7003f9e:	4a a1 80 51 	movea	20864, r10, r10
 7003fa2:	6a dd 2c 00 	st.w	r11, 44[r10]
 7003fa6:	40 bd 00 05 	movhi	1280, r0, r10
 7003faa:	4a a1 4d 00 	movea	77, r10, r10
 7003fae:	4a c1 00 00 	ld.b	0[r10],r10
 7003fb2:	4a b5 ff 00 	andi	255, r10, r10
 7003fb6:	40 0d       	cmp	r0, r10
 7003fb8:	1a 94       	bne	7003fd2 <_doGroundEffects+0x356>
 7003fba:	40 bd 00 05 	movhi	1280, r0, r10
 7003fbe:	ca a0 80 51 	movea	20864, r10, r6
 7003fc2:	40 bd 00 07 	movhi	1792, r0, r10
 7003fc6:	4a a1 d4 20 	movea	8404, r10, r10
 7003fca:	00 ac 04 00 	jal	7003fce <_doGroundEffects+0x352>
 7003fce:	e4 47       	add	4, lp
 7003fd0:	0a 18       	jmp	[r10]
 7003fd2:	40 bd 00 05 	movhi	1280, r0, r10
 7003fd6:	4a a1 80 51 	movea	20864, r10, r10
 7003fda:	4a cd 24 00 	ld.w	36[r10],r10
 7003fde:	6a a5 c0 5d 	addi	24000, r10, r11
 7003fe2:	40 bd 00 05 	movhi	1280, r0, r10
 7003fe6:	4a a1 80 51 	movea	20864, r10, r10
 7003fea:	6a dd 24 00 	st.w	r11, 36[r10]
 7003fee:	40 bd 00 05 	movhi	1280, r0, r10
 7003ff2:	4a a1 80 51 	movea	20864, r10, r10
 7003ff6:	4a cd 2c 00 	ld.w	44[r10],r10
 7003ffa:	60 bd ff ff 	movhi	-1, r0, r11
 7003ffe:	6b a1 c0 63 	movea	25536, r11, r11
 7004002:	6a 05       	add	r10, r11
 7004004:	40 bd 00 05 	movhi	1280, r0, r10
 7004008:	4a a1 80 51 	movea	20864, r10, r10
 700400c:	6a dd 2c 00 	st.w	r11, 44[r10]
 7004010:	43 c1 13 00 	ld.b	19[sp],r10
 7004014:	41 45       	add	1, r10
 7004016:	43 d1 13 00 	st.b	r10, 19[sp]
 700401a:	43 c1 13 00 	ld.b	19[sp],r10
 700401e:	4a b5 ff 00 	andi	255, r10, r10
 7004022:	44 4d       	cmp	4, r10
 7004024:	34 87       	bnh	7003f58 <_doGroundEffects+0x2dc>
 7004026:	40 bd 00 05 	movhi	1280, r0, r10
 700402a:	4a a1 80 51 	movea	20864, r10, r10
 700402e:	4a cd 24 00 	ld.w	36[r10],r10
 7004032:	60 bd fe ff 	movhi	-2, r0, r11
 7004036:	6b a1 40 2b 	movea	11072, r11, r11
 700403a:	6a 05       	add	r10, r11
 700403c:	40 bd 00 05 	movhi	1280, r0, r10
 7004040:	4a a1 80 51 	movea	20864, r10, r10
 7004044:	6a dd 24 00 	st.w	r11, 36[r10]
 7004048:	e3 cf 14 00 	ld.w	20[sp],lp
 700404c:	63 a4 18 00 	addi	24, sp, sp
 7004050:	1f 18       	jmp	[lp]
	...

07004054 <_timeHnd>:
 7004054:	63 a4 ec ff 	addi	-20, sp, sp
 7004058:	e3 df 10 00 	st.w	lp, 16[sp]
 700405c:	c0 40       	mov	0, r6
 700405e:	40 bd 00 07 	movhi	1792, r0, r10
 7004062:	4a a1 a4 16 	movea	5796, r10, r10
 7004066:	00 ac 04 00 	jal	700406a <_timeHnd+0x16>
 700406a:	e4 47       	add	4, lp
 700406c:	0a 18       	jmp	[r10]
 700406e:	c0 40       	mov	0, r6
 7004070:	40 bd 00 07 	movhi	1792, r0, r10
 7004074:	4a a1 38 15 	movea	5432, r10, r10
 7004078:	00 ac 04 00 	jal	700407c <_timeHnd+0x28>
 700407c:	e4 47       	add	4, lp
 700407e:	0a 18       	jmp	[r10]
 7004080:	40 bd 00 07 	movhi	1792, r0, r10
 7004084:	4a a1 3c 17 	movea	5948, r10, r10
 7004088:	00 ac 04 00 	jal	700408c <_timeHnd+0x38>
 700408c:	e4 47       	add	4, lp
 700408e:	0a 18       	jmp	[r10]
 7004090:	40 bd 00 05 	movhi	1280, r0, r10
 7004094:	4a a1 4c 00 	movea	76, r10, r10
 7004098:	0a d0 00 00 	st.b	r0, 0[r10]
 700409c:	40 bd 00 05 	movhi	1280, r0, r10
 70040a0:	4a a1 50 00 	movea	80, r10, r10
 70040a4:	4a cd 00 00 	ld.w	0[r10],r10
 70040a8:	6a a5 01 00 	addi	1, r10, r11
 70040ac:	40 bd 00 05 	movhi	1280, r0, r10
 70040b0:	4a a1 50 00 	movea	80, r10, r10
 70040b4:	6a dd 00 00 	st.w	r11, 0[r10]
 70040b8:	c1 40       	mov	1, r6
 70040ba:	40 bd 00 07 	movhi	1792, r0, r10
 70040be:	4a a1 a4 16 	movea	5796, r10, r10
 70040c2:	00 ac 04 00 	jal	70040c6 <_timeHnd+0x72>
 70040c6:	e4 47       	add	4, lp
 70040c8:	0a 18       	jmp	[r10]
 70040ca:	c1 40       	mov	1, r6
 70040cc:	40 bd 00 07 	movhi	1792, r0, r10
 70040d0:	4a a1 38 15 	movea	5432, r10, r10
 70040d4:	00 ac 04 00 	jal	70040d8 <_timeHnd+0x84>
 70040d8:	e4 47       	add	4, lp
 70040da:	0a 18       	jmp	[r10]
 70040dc:	e3 cf 10 00 	ld.w	16[sp],lp
 70040e0:	63 a4 14 00 	addi	20, sp, sp
 70040e4:	1f 18       	jmp	[lp]
	...

070040e8 <_handleInput>:
 70040e8:	63 a4 ec ff 	addi	-20, sp, sp
 70040ec:	e3 df 10 00 	st.w	lp, 16[sp]
 70040f0:	c3 dc 14 00 	st.w	r6, 20[sp]
 70040f4:	40 bd 00 07 	movhi	1792, r0, r10
 70040f8:	4a a1 28 0c 	movea	3112, r10, r10
 70040fc:	00 ac 04 00 	jal	7004100 <_handleInput+0x18>
 7004100:	e4 47       	add	4, lp
 7004102:	0a 18       	jmp	[r10]
 7004104:	6a b5 ff ff 	andi	65535, r10, r11
 7004108:	40 bd 00 05 	movhi	1280, r0, r10
 700410c:	4a a1 cc 02 	movea	716, r10, r10
 7004110:	6a d5 00 00 	st.h	r11, 0[r10]
 7004114:	43 cd 14 00 	ld.w	20[sp],r10
 7004118:	0a dc 54 00 	st.w	r0, 84[r10]
 700411c:	43 cd 14 00 	ld.w	20[sp],r10
 7004120:	0a dc 4c 00 	st.w	r0, 76[r10]
 7004124:	40 bd 00 05 	movhi	1280, r0, r10
 7004128:	4a a1 cc 02 	movea	716, r10, r10
 700412c:	4a c5 00 00 	ld.h	0[r10],r10
 7004130:	4a b5 ff ff 	andi	65535, r10, r10
 7004134:	4a b5 00 02 	andi	512, r10, r10
 7004138:	40 0d       	cmp	r0, r10
 700413a:	7c 84       	be	70041b6 <_handleInput+0xce>
 700413c:	43 cd 14 00 	ld.w	20[sp],r10
 7004140:	60 a1 e8 ff 	movea	-24, r0, r11
 7004144:	6a dd 54 00 	st.w	r11, 84[r10]
 7004148:	40 bd 00 05 	movhi	1280, r0, r10
 700414c:	4a a1 f0 50 	movea	20720, r10, r10
 7004150:	6a cd 00 00 	ld.w	0[r10],r11
 7004154:	40 bd 00 05 	movhi	1280, r0, r10
 7004158:	4a a1 f0 50 	movea	20720, r10, r10
 700415c:	4a cd 3c 00 	ld.w	60[r10],r10
 7004160:	6a 0d       	cmp	r10, r11
 7004162:	28 94       	bne	700418a <_handleInput+0xa2>
 7004164:	40 bd 00 05 	movhi	1280, r0, r10
 7004168:	4a a1 f0 50 	movea	20720, r10, r10
 700416c:	6a cd 3c 00 	ld.w	60[r10],r11
 7004170:	40 bd 00 05 	movhi	1280, r0, r10
 7004174:	4a a1 f0 50 	movea	20720, r10, r10
 7004178:	4a cd 14 00 	ld.w	20[r10],r10
 700417c:	6a 09       	sub	r10, r11
 700417e:	40 bd 00 05 	movhi	1280, r0, r10
 7004182:	4a a1 f0 50 	movea	20720, r10, r10
 7004186:	6a dd 3c 00 	st.w	r11, 60[r10]
 700418a:	40 bd 00 05 	movhi	1280, r0, r10
 700418e:	4a a1 f0 50 	movea	20720, r10, r10
 7004192:	6a cd 3c 00 	ld.w	60[r10],r11
 7004196:	40 bd ff ff 	movhi	-1, r0, r10
 700419a:	4a a1 c0 63 	movea	25536, r10, r10
 700419e:	6a 0d       	cmp	r10, r11
 70041a0:	16 9c       	bge	70041b6 <_handleInput+0xce>
 70041a2:	40 bd 00 05 	movhi	1280, r0, r10
 70041a6:	4a a1 f0 50 	movea	20720, r10, r10
 70041aa:	60 bd ff ff 	movhi	-1, r0, r11
 70041ae:	6b a1 c0 63 	movea	25536, r11, r11
 70041b2:	6a dd 3c 00 	st.w	r11, 60[r10]
 70041b6:	40 bd 00 05 	movhi	1280, r0, r10
 70041ba:	4a a1 cc 02 	movea	716, r10, r10
 70041be:	4a c5 00 00 	ld.h	0[r10],r10
 70041c2:	4a b5 ff ff 	andi	65535, r10, r10
 70041c6:	4a b5 00 01 	andi	256, r10, r10
 70041ca:	40 0d       	cmp	r0, r10
 70041cc:	7c 84       	be	7004248 <_handleInput+0x160>
 70041ce:	43 cd 14 00 	ld.w	20[sp],r10
 70041d2:	60 a1 18 00 	movea	24, r0, r11
 70041d6:	6a dd 54 00 	st.w	r11, 84[r10]
 70041da:	40 bd 00 05 	movhi	1280, r0, r10
 70041de:	4a a1 f0 50 	movea	20720, r10, r10
 70041e2:	6a cd 00 00 	ld.w	0[r10],r11
 70041e6:	40 bd 00 05 	movhi	1280, r0, r10
 70041ea:	4a a1 f0 50 	movea	20720, r10, r10
 70041ee:	4a cd 3c 00 	ld.w	60[r10],r10
 70041f2:	6a 0d       	cmp	r10, r11
 70041f4:	28 94       	bne	700421c <_handleInput+0x134>
 70041f6:	40 bd 00 05 	movhi	1280, r0, r10
 70041fa:	4a a1 f0 50 	movea	20720, r10, r10
 70041fe:	6a cd 3c 00 	ld.w	60[r10],r11
 7004202:	40 bd 00 05 	movhi	1280, r0, r10
 7004206:	4a a1 f0 50 	movea	20720, r10, r10
 700420a:	4a cd 14 00 	ld.w	20[r10],r10
 700420e:	6a 05       	add	r10, r11
 7004210:	40 bd 00 05 	movhi	1280, r0, r10
 7004214:	4a a1 f0 50 	movea	20720, r10, r10
 7004218:	6a dd 3c 00 	st.w	r11, 60[r10]
 700421c:	40 bd 00 05 	movhi	1280, r0, r10
 7004220:	4a a1 f0 50 	movea	20720, r10, r10
 7004224:	6a cd 3c 00 	ld.w	60[r10],r11
 7004228:	40 bd 01 00 	movhi	1, r0, r10
 700422c:	4a a1 40 9c 	movea	-25536, r10, r10
 7004230:	6a 0d       	cmp	r10, r11
 7004232:	16 8e       	ble	7004248 <_handleInput+0x160>
 7004234:	40 bd 00 05 	movhi	1280, r0, r10
 7004238:	4a a1 f0 50 	movea	20720, r10, r10
 700423c:	60 bd 01 00 	movhi	1, r0, r11
 7004240:	6b a1 40 9c 	movea	-25536, r11, r11
 7004244:	6a dd 3c 00 	st.w	r11, 60[r10]
 7004248:	40 bd 00 05 	movhi	1280, r0, r10
 700424c:	4a a1 cc 02 	movea	716, r10, r10
 7004250:	4a c5 00 00 	ld.h	0[r10],r10
 7004254:	4a b5 ff ff 	andi	65535, r10, r10
 7004258:	4a b5 00 04 	andi	1024, r10, r10
 700425c:	40 0d       	cmp	r0, r10
 700425e:	74 84       	be	70042d2 <_handleInput+0x1ea>
 7004260:	43 cd 14 00 	ld.w	20[sp],r10
 7004264:	60 a1 e8 ff 	movea	-24, r0, r11
 7004268:	6a dd 4c 00 	st.w	r11, 76[r10]
 700426c:	40 bd 00 05 	movhi	1280, r0, r10
 7004270:	4a a1 f0 50 	movea	20720, r10, r10
 7004274:	6a cd 04 00 	ld.w	4[r10],r11
 7004278:	40 bd 00 05 	movhi	1280, r0, r10
 700427c:	4a a1 f0 50 	movea	20720, r10, r10
 7004280:	4a cd 40 00 	ld.w	64[r10],r10
 7004284:	6a 0d       	cmp	r10, r11
 7004286:	28 94       	bne	70042ae <_handleInput+0x1c6>
 7004288:	40 bd 00 05 	movhi	1280, r0, r10
 700428c:	4a a1 f0 50 	movea	20720, r10, r10
 7004290:	6a cd 40 00 	ld.w	64[r10],r11
 7004294:	40 bd 00 05 	movhi	1280, r0, r10
 7004298:	4a a1 f0 50 	movea	20720, r10, r10
 700429c:	4a cd 18 00 	ld.w	24[r10],r10
 70042a0:	6a 05       	add	r10, r11
 70042a2:	40 bd 00 05 	movhi	1280, r0, r10
 70042a6:	4a a1 f0 50 	movea	20720, r10, r10
 70042aa:	6a dd 40 00 	st.w	r11, 64[r10]
 70042ae:	40 bd 00 05 	movhi	1280, r0, r10
 70042b2:	4a a1 f0 50 	movea	20720, r10, r10
 70042b6:	6a cd 40 00 	ld.w	64[r10],r11
 70042ba:	40 a1 80 3e 	movea	16000, r0, r10
 70042be:	6a 0d       	cmp	r10, r11
 70042c0:	12 8e       	ble	70042d2 <_handleInput+0x1ea>
 70042c2:	40 bd 00 05 	movhi	1280, r0, r10
 70042c6:	4a a1 f0 50 	movea	20720, r10, r10
 70042ca:	60 a1 80 3e 	movea	16000, r0, r11
 70042ce:	6a dd 40 00 	st.w	r11, 64[r10]
 70042d2:	40 bd 00 05 	movhi	1280, r0, r10
 70042d6:	4a a1 cc 02 	movea	716, r10, r10
 70042da:	4a c5 00 00 	ld.h	0[r10],r10
 70042de:	4a b5 ff ff 	andi	65535, r10, r10
 70042e2:	4a b5 00 08 	andi	2048, r10, r10
 70042e6:	40 0d       	cmp	r0, r10
 70042e8:	6c 84       	be	7004354 <_handleInput+0x26c>
 70042ea:	43 cd 14 00 	ld.w	20[sp],r10
 70042ee:	60 a1 18 00 	movea	24, r0, r11
 70042f2:	6a dd 4c 00 	st.w	r11, 76[r10]
 70042f6:	40 bd 00 05 	movhi	1280, r0, r10
 70042fa:	4a a1 f0 50 	movea	20720, r10, r10
 70042fe:	6a cd 04 00 	ld.w	4[r10],r11
 7004302:	40 bd 00 05 	movhi	1280, r0, r10
 7004306:	4a a1 f0 50 	movea	20720, r10, r10
 700430a:	4a cd 40 00 	ld.w	64[r10],r10
 700430e:	6a 0d       	cmp	r10, r11
 7004310:	28 94       	bne	7004338 <_handleInput+0x250>
 7004312:	40 bd 00 05 	movhi	1280, r0, r10
 7004316:	4a a1 f0 50 	movea	20720, r10, r10
 700431a:	6a cd 40 00 	ld.w	64[r10],r11
 700431e:	40 bd 00 05 	movhi	1280, r0, r10
 7004322:	4a a1 f0 50 	movea	20720, r10, r10
 7004326:	4a cd 18 00 	ld.w	24[r10],r10
 700432a:	6a 09       	sub	r10, r11
 700432c:	40 bd 00 05 	movhi	1280, r0, r10
 7004330:	4a a1 f0 50 	movea	20720, r10, r10
 7004334:	6a dd 40 00 	st.w	r11, 64[r10]
 7004338:	40 bd 00 05 	movhi	1280, r0, r10
 700433c:	4a a1 f0 50 	movea	20720, r10, r10
 7004340:	4a cd 40 00 	ld.w	64[r10],r10
 7004344:	40 0d       	cmp	r0, r10
 7004346:	0e 9c       	bge	7004354 <_handleInput+0x26c>
 7004348:	40 bd 00 05 	movhi	1280, r0, r10
 700434c:	4a a1 f0 50 	movea	20720, r10, r10
 7004350:	0a dc 40 00 	st.w	r0, 64[r10]
 7004354:	40 bd 00 05 	movhi	1280, r0, r10
 7004358:	4a a1 cc 02 	movea	716, r10, r10
 700435c:	4a c5 00 00 	ld.h	0[r10],r10
 7004360:	4a b5 ff ff 	andi	65535, r10, r10
 7004364:	4a b5 10 00 	andi	16, r10, r10
 7004368:	40 0d       	cmp	r0, r10
 700436a:	0e 84       	be	7004378 <_handleInput+0x290>
 700436c:	43 cd 14 00 	ld.w	20[sp],r10
 7004370:	60 a1 5a 00 	movea	90, r0, r11
 7004374:	6a dd 54 00 	st.w	r11, 84[r10]
 7004378:	40 bd 00 05 	movhi	1280, r0, r10
 700437c:	4a a1 cc 02 	movea	716, r10, r10
 7004380:	4a c5 00 00 	ld.h	0[r10],r10
 7004384:	4a b5 ff ff 	andi	65535, r10, r10
 7004388:	4a b5 20 00 	andi	32, r10, r10
 700438c:	40 0d       	cmp	r0, r10
 700438e:	0e 84       	be	700439c <_handleInput+0x2b4>
 7004390:	43 cd 14 00 	ld.w	20[sp],r10
 7004394:	60 a1 a6 ff 	movea	-90, r0, r11
 7004398:	6a dd 54 00 	st.w	r11, 84[r10]
 700439c:	e3 cf 10 00 	ld.w	16[sp],lp
 70043a0:	63 a4 14 00 	addi	20, sp, sp
 70043a4:	1f 18       	jmp	[lp]
	...

070043a8 <_initObjects>:
 70043a8:	40 bd 00 05 	movhi	1280, r0, r10
 70043ac:	4a a1 f0 50 	movea	20720, r10, r10
 70043b0:	0a dc 00 00 	st.w	r0, 0[r10]
 70043b4:	40 bd 00 05 	movhi	1280, r0, r10
 70043b8:	4a a1 f0 50 	movea	20720, r10, r10
 70043bc:	0a dc 04 00 	st.w	r0, 4[r10]
 70043c0:	40 bd 00 05 	movhi	1280, r0, r10
 70043c4:	4a a1 f0 50 	movea	20720, r10, r10
 70043c8:	0a dc 08 00 	st.w	r0, 8[r10]
 70043cc:	40 bd 00 05 	movhi	1280, r0, r10
 70043d0:	4a a1 f0 50 	movea	20720, r10, r10
 70043d4:	0a dc 3c 00 	st.w	r0, 60[r10]
 70043d8:	40 bd 00 05 	movhi	1280, r0, r10
 70043dc:	4a a1 f0 50 	movea	20720, r10, r10
 70043e0:	0a dc 40 00 	st.w	r0, 64[r10]
 70043e4:	40 bd 00 05 	movhi	1280, r0, r10
 70043e8:	4a a1 f0 50 	movea	20720, r10, r10
 70043ec:	0a dc 44 00 	st.w	r0, 68[r10]
 70043f0:	40 bd 00 05 	movhi	1280, r0, r10
 70043f4:	4a a1 f0 50 	movea	20720, r10, r10
 70043f8:	0a dc 64 00 	st.w	r0, 100[r10]
 70043fc:	40 bd 00 05 	movhi	1280, r0, r10
 7004400:	4a a1 f0 50 	movea	20720, r10, r10
 7004404:	0a dc 68 00 	st.w	r0, 104[r10]
 7004408:	40 bd 00 05 	movhi	1280, r0, r10
 700440c:	4a a1 f0 50 	movea	20720, r10, r10
 7004410:	0a dc 6c 00 	st.w	r0, 108[r10]
 7004414:	40 bd 00 05 	movhi	1280, r0, r10
 7004418:	4a a1 f0 50 	movea	20720, r10, r10
 700441c:	60 a1 20 03 	movea	800, r0, r11
 7004420:	6a dd 14 00 	st.w	r11, 20[r10]
 7004424:	40 bd 00 05 	movhi	1280, r0, r10
 7004428:	4a a1 f0 50 	movea	20720, r10, r10
 700442c:	60 a1 90 01 	movea	400, r0, r11
 7004430:	6a dd 18 00 	st.w	r11, 24[r10]
 7004434:	40 bd 00 05 	movhi	1280, r0, r10
 7004438:	4a a1 f0 50 	movea	20720, r10, r10
 700443c:	60 a1 20 03 	movea	800, r0, r11
 7004440:	6a dd 1c 00 	st.w	r11, 28[r10]
 7004444:	40 bd 00 05 	movhi	1280, r0, r10
 7004448:	4a a1 f0 50 	movea	20720, r10, r10
 700444c:	60 a1 00 08 	movea	2048, r0, r11
 7004450:	6a dd 8c 00 	st.w	r11, 140[r10]
 7004454:	1f 18       	jmp	[lp]
	...

07004458 <_vbInit>:
 7004458:	63 a4 ec ff 	addi	-20, sp, sp
 700445c:	e3 df 10 00 	st.w	lp, 16[sp]
 7004460:	40 bd 00 07 	movhi	1792, r0, r10
 7004464:	4a a1 00 03 	movea	768, r10, r10
 7004468:	00 ac 04 00 	jal	700446c <_vbInit+0x14>
 700446c:	e4 47       	add	4, lp
 700446e:	0a 18       	jmp	[r10]
 7004470:	40 bd 00 07 	movhi	1792, r0, r10
 7004474:	4a a1 2c 07 	movea	1836, r10, r10
 7004478:	00 ac 04 00 	jal	700447c <_vbInit+0x24>
 700447c:	e4 47       	add	4, lp
 700447e:	0a 18       	jmp	[r10]
 7004480:	40 bd 00 05 	movhi	1280, r0, r10
 7004484:	4a a1 00 00 	movea	0, r10, r10
 7004488:	4a cd 00 00 	ld.w	0[r10],r10
 700448c:	4a a5 24 00 	addi	36, r10, r10
 7004490:	60 a1 20 00 	movea	32, r0, r11
 7004494:	6a d5 00 00 	st.h	r11, 0[r10]
 7004498:	40 bd 00 05 	movhi	1280, r0, r10
 700449c:	4a a1 00 00 	movea	0, r10, r10
 70044a0:	4a cd 00 00 	ld.w	0[r10],r10
 70044a4:	4a a5 26 00 	addi	38, r10, r10
 70044a8:	60 a1 40 00 	movea	64, r0, r11
 70044ac:	6a d5 00 00 	st.h	r11, 0[r10]
 70044b0:	40 bd 00 05 	movhi	1280, r0, r10
 70044b4:	4a a1 00 00 	movea	0, r10, r10
 70044b8:	4a cd 00 00 	ld.w	0[r10],r10
 70044bc:	4a a5 28 00 	addi	40, r10, r10
 70044c0:	60 a1 20 00 	movea	32, r0, r11
 70044c4:	6a d5 00 00 	st.h	r11, 0[r10]
 70044c8:	40 bd 00 07 	movhi	1792, r0, r10
 70044cc:	4a a1 a8 47 	movea	18344, r10, r10
 70044d0:	4a cd 00 00 	ld.w	0[r10],r10
 70044d4:	4a a5 24 00 	addi	36, r10, r10
 70044d8:	61 41       	mov	1, r11
 70044da:	6a d1 00 00 	st.b	r11, 0[r10]
 70044de:	40 bd 00 05 	movhi	1280, r0, r10
 70044e2:	4a a1 00 00 	movea	0, r10, r10
 70044e6:	4a cd 00 00 	ld.w	0[r10],r10
 70044ea:	4a a5 2e 00 	addi	46, r10, r10
 70044ee:	0a d4 00 00 	st.h	r0, 0[r10]
 70044f2:	40 bd 00 07 	movhi	1792, r0, r10
 70044f6:	6a a1 54 40 	movea	16468, r10, r11
 70044fa:	40 bd 01 05 	movhi	1281, r0, r10
 70044fe:	4a a1 c4 ff 	movea	-60, r10, r10
 7004502:	6a dd 00 00 	st.w	r11, 0[r10]
 7004506:	c1 40       	mov	1, r6
 7004508:	40 bd 00 07 	movhi	1792, r0, r10
 700450c:	4a a1 2c 16 	movea	5676, r10, r10
 7004510:	00 ac 04 00 	jal	7004514 <_vbInit+0xbc>
 7004514:	e4 47       	add	4, lp
 7004516:	0a 18       	jmp	[r10]
 7004518:	c6 40       	mov	6, r6
 700451a:	40 bd 00 07 	movhi	1792, r0, r10
 700451e:	4a a1 e4 15 	movea	5604, r10, r10
 7004522:	00 ac 04 00 	jal	7004526 <_vbInit+0xce>
 7004526:	e4 47       	add	4, lp
 7004528:	0a 18       	jmp	[r10]
 700452a:	c1 40       	mov	1, r6
 700452c:	40 bd 00 07 	movhi	1792, r0, r10
 7004530:	4a a1 38 15 	movea	5432, r10, r10
 7004534:	00 ac 04 00 	jal	7004538 <_vbInit+0xe0>
 7004538:	e4 47       	add	4, lp
 700453a:	0a 18       	jmp	[r10]
 700453c:	c1 40       	mov	1, r6
 700453e:	40 bd 00 07 	movhi	1792, r0, r10
 7004542:	4a a1 a4 16 	movea	5796, r10, r10
 7004546:	00 ac 04 00 	jal	700454a <_vbInit+0xf2>
 700454a:	e4 47       	add	4, lp
 700454c:	0a 18       	jmp	[r10]
 700454e:	40 bd 02 00 	movhi	2, r0, r10
 7004552:	ca a0 00 e0 	movea	-8192, r10, r6
 7004556:	40 bd 00 07 	movhi	1792, r0, r10
 700455a:	ea a0 9c 59 	movea	22940, r10, r7
 700455e:	00 a1 00 20 	movea	8192, r0, r8
 7004562:	40 bd 00 07 	movhi	1792, r0, r10
 7004566:	4a a1 5c 0d 	movea	3420, r10, r10
 700456a:	00 ac 04 00 	jal	700456e <_vbInit+0x116>
 700456e:	e4 47       	add	4, lp
 7004570:	0a 18       	jmp	[r10]
 7004572:	40 bd 00 07 	movhi	1792, r0, r10
 7004576:	4a a1 c8 47 	movea	18376, r10, r10
 700457a:	4a cd 00 00 	ld.w	0[r10],r10
 700457e:	4a a5 e0 03 	addi	992, r10, r10
 7004582:	60 a1 00 c0 	movea	-16384, r0, r11
 7004586:	6a d5 00 00 	st.h	r11, 0[r10]
 700458a:	40 bd 00 07 	movhi	1792, r0, r10
 700458e:	4a a1 c8 47 	movea	18376, r10, r10
 7004592:	4a cd 00 00 	ld.w	0[r10],r10
 7004596:	4a a5 e0 03 	addi	992, r10, r10
 700459a:	60 a1 c8 00 	movea	200, r0, r11
 700459e:	6a d5 0e 00 	st.h	r11, 14[r10]
 70045a2:	40 bd 00 07 	movhi	1792, r0, r10
 70045a6:	4a a1 c8 47 	movea	18376, r10, r10
 70045aa:	4a cd 00 00 	ld.w	0[r10],r10
 70045ae:	4a a5 e0 03 	addi	992, r10, r10
 70045b2:	60 a1 c8 00 	movea	200, r0, r11
 70045b6:	6a d5 10 00 	st.h	r11, 16[r10]
 70045ba:	40 bd 00 07 	movhi	1792, r0, r10
 70045be:	4a a1 c8 47 	movea	18376, r10, r10
 70045c2:	4a cd 00 00 	ld.w	0[r10],r10
 70045c6:	4a a5 c0 03 	addi	960, r10, r10
 70045ca:	60 a1 40 00 	movea	64, r0, r11
 70045ce:	6a d5 00 00 	st.h	r11, 0[r10]
 70045d2:	e3 cf 10 00 	ld.w	16[sp],lp
 70045d6:	63 a4 14 00 	addi	20, sp, sp
 70045da:	1f 18       	jmp	[lp]

070045dc <_screenControl>:
 70045dc:	7c 44       	add	-4, sp
 70045de:	40 bd 00 05 	movhi	1280, r0, r10
 70045e2:	4a a1 38 00 	movea	56, r10, r10
 70045e6:	4a c5 00 00 	ld.h	0[r10],r10
 70045ea:	4a b5 ff ff 	andi	65535, r10, r10
 70045ee:	4a 3d       	not	r10, r10
 70045f0:	4a b5 ff ff 	andi	65535, r10, r10
 70045f4:	4a b5 0c 00 	andi	12, r10, r10
 70045f8:	60 bd 00 05 	movhi	1280, r0, r11
 70045fc:	6b a1 38 00 	movea	56, r11, r11
 7004600:	4b d5 00 00 	st.h	r10, 0[r11]
 7004604:	40 bd 00 05 	movhi	1280, r0, r10
 7004608:	4a a1 00 00 	movea	0, r10, r10
 700460c:	4a cd 00 00 	ld.w	0[r10],r10
 7004610:	4a a5 42 00 	addi	66, r10, r10
 7004614:	60 bd 00 05 	movhi	1280, r0, r11
 7004618:	6b a1 00 00 	movea	0, r11, r11
 700461c:	6b cd 00 00 	ld.w	0[r11],r11
 7004620:	6b a5 40 00 	addi	64, r11, r11
 7004624:	6b c5 00 00 	ld.h	0[r11],r11
 7004628:	6b b5 ff ff 	andi	65535, r11, r11
 700462c:	6b b1 02 00 	ori	2, r11, r11
 7004630:	6b b5 ff ff 	andi	65535, r11, r11
 7004634:	6a d5 00 00 	st.h	r11, 0[r10]
 7004638:	40 bd 00 05 	movhi	1280, r0, r10
 700463c:	4a a1 00 00 	movea	0, r10, r10
 7004640:	4a cd 00 00 	ld.w	0[r10],r10
 7004644:	4a a5 40 00 	addi	64, r10, r10
 7004648:	4a c5 00 00 	ld.h	0[r10],r10
 700464c:	6a b5 ff ff 	andi	65535, r10, r11
 7004650:	40 bd 00 05 	movhi	1280, r0, r10
 7004654:	4a a1 38 00 	movea	56, r10, r10
 7004658:	4a c5 00 00 	ld.h	0[r10],r10
 700465c:	4a b5 ff ff 	andi	65535, r10, r10
 7004660:	4b 35       	and	r11, r10
 7004662:	4a b5 ff ff 	andi	65535, r10, r10
 7004666:	40 0d       	cmp	r0, r10
 7004668:	d0 85       	be	7004638 <_screenControl+0x5c>
 700466a:	40 bd 00 05 	movhi	1280, r0, r10
 700466e:	4a a1 00 00 	movea	0, r10, r10
 7004672:	4a cd 00 00 	ld.w	0[r10],r10
 7004676:	6a a5 42 00 	addi	66, r10, r11
 700467a:	40 bd 00 05 	movhi	1280, r0, r10
 700467e:	4a a1 00 00 	movea	0, r10, r10
 7004682:	4a cd 00 00 	ld.w	0[r10],r10
 7004686:	4a a5 40 00 	addi	64, r10, r10
 700468a:	4a c5 00 00 	ld.h	0[r10],r10
 700468e:	4a b5 ff ff 	andi	65535, r10, r10
 7004692:	4a b5 fd ff 	andi	65533, r10, r10
 7004696:	4b d5 00 00 	st.h	r10, 0[r11]
 700469a:	40 bd 00 05 	movhi	1280, r0, r10
 700469e:	4a a1 04 00 	movea	4, r10, r10
 70046a2:	4a cd 00 00 	ld.w	0[r10],r10
 70046a6:	43 dd 00 00 	st.w	r10, 0[sp]
 70046aa:	40 bd 00 05 	movhi	1280, r0, r10
 70046ae:	4a a1 48 00 	movea	72, r10, r10
 70046b2:	6a cd 00 00 	ld.w	0[r10],r11
 70046b6:	40 bd 00 05 	movhi	1280, r0, r10
 70046ba:	4a a1 04 00 	movea	4, r10, r10
 70046be:	6a dd 00 00 	st.w	r11, 0[r10]
 70046c2:	40 bd 00 05 	movhi	1280, r0, r10
 70046c6:	4a a1 48 00 	movea	72, r10, r10
 70046ca:	63 cd 00 00 	ld.w	0[sp],r11
 70046ce:	6a dd 00 00 	st.w	r11, 0[r10]
 70046d2:	64 44       	add	4, sp
 70046d4:	1f 18       	jmp	[lp]
	...

Disassembly of section .vectors:

07007de0 <_rom_header>:
 7007de0:	20 20       	mul	r0, r1
 7007de2:	20 20       	mul	r0, r1
 7007de4:	20 20       	mul	r0, r1
 7007de6:	20 20       	mul	r0, r1
 7007de8:	20 20       	mul	r0, r1
 7007dea:	20 20       	mul	r0, r1
 7007dec:	20 20       	mul	r0, r1
 7007dee:	20 20       	mul	r0, r1
 7007df0:	20 20       	mul	r0, r1
 7007df2:	20 20       	mul	r0, r1
 7007df4:	00 00       	mov	r0, r0
 7007df6:	00 00       	mov	r0, r0
 7007df8:	00 20       	mul	r0, r0
 7007dfa:	20 56       	shr	0, r17
 7007dfc:	20 20       	mul	r0, r1
 7007dfe:	45 00       	mov	r5, r2

07007e00 <_int_table>:
 7007e00:	7c 44       	add	-4, sp
 7007e02:	23 dc 00 00 	st.w	r1, 0[sp]
 7007e06:	20 bc 00 07 	movhi	1792, r0, r1
 7007e0a:	21 a0 80 01 	movea	384, r1, r1
 7007e0e:	01 18       	jmp	[r1]
 7007e10:	7c 44       	add	-4, sp
 7007e12:	23 dc 00 00 	st.w	r1, 0[sp]
 7007e16:	20 bc 00 07 	movhi	1792, r0, r1
 7007e1a:	21 a0 80 01 	movea	384, r1, r1
 7007e1e:	01 18       	jmp	[r1]
 7007e20:	7c 44       	add	-4, sp
 7007e22:	23 dc 00 00 	st.w	r1, 0[sp]
 7007e26:	20 bc 00 07 	movhi	1792, r0, r1
 7007e2a:	21 a0 80 01 	movea	384, r1, r1
 7007e2e:	01 18       	jmp	[r1]
 7007e30:	7c 44       	add	-4, sp
 7007e32:	23 dc 00 00 	st.w	r1, 0[sp]
 7007e36:	20 bc 00 07 	movhi	1792, r0, r1
 7007e3a:	21 a0 80 01 	movea	384, r1, r1
 7007e3e:	01 18       	jmp	[r1]
 7007e40:	7c 44       	add	-4, sp
 7007e42:	23 dc 00 00 	st.w	r1, 0[sp]
 7007e46:	20 bc 00 07 	movhi	1792, r0, r1
 7007e4a:	21 a0 80 01 	movea	384, r1, r1
 7007e4e:	01 18       	jmp	[r1]
	...
 7007f60:	64 00       	mov	gp, sp
	...
 7007f7e:	00 00       	mov	r0, r0
 7007f80:	64 00       	mov	gp, sp
	...
 7007f8e:	00 00       	mov	r0, r0
 7007f90:	64 00       	mov	gp, sp
	...
 7007f9e:	00 00       	mov	r0, r0
 7007fa0:	64 00       	mov	gp, sp
	...
 7007fae:	00 00       	mov	r0, r0
 7007fb0:	64 00       	mov	gp, sp
	...
 7007fbe:	00 00       	mov	r0, r0
 7007fc0:	64 00       	mov	gp, sp
	...
 7007fce:	00 00       	mov	r0, r0
 7007fd0:	64 00       	mov	gp, sp
	...
 7007fee:	00 00       	mov	r0, r0
 7007ff0:	20 bc 00 07 	movhi	1792, r0, r1
 7007ff4:	21 a0 00 00 	movea	0, r1, r1
 7007ff8:	01 18       	jmp	[r1]
 7007ffa:	00 00       	mov	r0, r0
 7007ffc:	00 00       	mov	r0, r0
	...
