
Combat.o:     file format elf32-v810


Disassembly of section .text:

07000000 <_start>:
 7000000:	60 bc 01 05 	movhi	1281, r0, sp
 7000004:	63 a0 c0 ff 	movea	-64, sp, sp
 7000008:	80 bc 01 05 	movhi	1281, r0, gp
 700000c:	84 a0 00 80 	movea	-32768, gp, gp
 7000010:	05 70       	ldsr	r0, psw
 7000012:	18 70       	ldsr	r0, chcw
 7000014:	c0 a0 00 20 	movea	8192, r0, r6

07000018 <DummyLoop>:
 7000018:	df 44       	add	-1, r6
 700001a:	fe 95       	bne	7000018 <DummyLoop>
 700001c:	c0 bc 00 07 	movhi	1792, r0, r6
 7000020:	c6 a0 d0 75 	movea	30160, r6, r6
 7000024:	e0 bc 00 05 	movhi	1280, r0, r7
 7000028:	e7 a0 0c 00 	movea	12, r7, r7
 700002c:	00 bd 00 05 	movhi	1280, r0, r8
 7000030:	08 a1 00 00 	movea	0, r8, r8
 7000034:	00 a8 10 00 	jr	7000044 <end_initdata>

07000038 <initdata>:
 7000038:	26 c1 00 00 	ld.b	0[r6],r9
 700003c:	28 d1 00 00 	st.b	r9, 0[r8]
 7000040:	c1 44       	add	1, r6
 7000042:	01 45       	add	1, r8

07000044 <end_initdata>:
 7000044:	07 0d       	cmp	r7, r8
 7000046:	f2 8d       	blt	7000038 <initdata>
 7000048:	c0 bc 01 05 	movhi	1281, r0, r6
 700004c:	00 a8 0a 00 	jr	7000056 <loop_start1>

07000050 <loop_top1>:
 7000050:	07 d4 00 00 	st.h	r0, 0[r7]
 7000054:	e2 44       	add	2, r7

07000056 <loop_start1>:
 7000056:	e6 0c       	cmp	r6, r7
 7000058:	f8 8d       	blt	7000050 <loop_top1>
 700005a:	e0 00       	mov	r0, r7
 700005c:	c0 bc 04 00 	movhi	4, r0, r6

07000060 <ClrLoop>:
 7000060:	07 dc 00 00 	st.w	r0, 0[r7]
 7000064:	e4 44       	add	4, r7
 7000066:	dc 44       	add	-4, r6
 7000068:	f8 95       	bne	7000060 <ClrLoop>
 700006a:	00 ac 3e 00 	jal	70000a8 <_setcoltable>
 700006e:	c0 bc 00 02 	movhi	512, r0, r6
 7000072:	e0 a0 14 00 	movea	20, r0, r7
 7000076:	e6 d0 00 00 	st.b	r7, 0[r6]
 700007a:	ff 40       	mov	-1, r7
 700007c:	e6 d0 04 00 	st.b	r7, 4[r6]
 7000080:	06 d0 20 00 	st.b	r0, 32[r6]
 7000084:	e0 a0 80 00 	movea	128, r0, r7
 7000088:	e6 d0 28 00 	st.b	r7, 40[r6]
 700008c:	e0 bf 00 07 	movhi	1792, r0, lp
 7000090:	ff a3 9e 00 	movea	158, lp, lp
 7000094:	20 bc 00 07 	movhi	1792, r0, r1
 7000098:	21 a0 54 36 	movea	13908, r1, r1
 700009c:	01 18       	jmp	[r1]

0700009e <__end>:
 700009e:	e0 bf 00 00 	movhi	0, r0, lp
 70000a2:	ff a3 f0 ff 	movea	-16, lp, lp
 70000a6:	1f 18       	jmp	[lp]

070000a8 <_setcoltable>:
 70000a8:	c0 bc 04 00 	movhi	4, r0, r6
 70000ac:	c6 a0 00 dc 	movea	-9216, r6, r6
 70000b0:	e0 bc 00 07 	movhi	1792, r0, r7
 70000b4:	e7 a0 fe 00 	movea	254, r7, r7
 70000b8:	00 a1 00 01 	movea	256, r0, r8
 70000bc:	06 05       	add	r6, r8
 70000be:	00 a8 18 00 	jr	70000d6 <setcoltable_end>

070000c2 <setcoltable_loop>:
 70000c2:	27 c1 00 00 	ld.b	0[r7],r9
 70000c6:	29 b5 ff 00 	andi	255, r9, r9
 70000ca:	26 d5 00 00 	st.h	r9, 0[r6]
 70000ce:	26 d5 00 02 	st.h	r9, 512[r6]
 70000d2:	c2 44       	add	2, r6
 70000d4:	e1 44       	add	1, r7

070000d6 <setcoltable_end>:
 70000d6:	c8 0c       	cmp	r8, r6
 70000d8:	ea 8d       	blt	70000c2 <setcoltable_loop>
 70000da:	00 a1 00 01 	movea	256, r0, r8
 70000de:	06 05       	add	r6, r8
 70000e0:	00 a8 18 00 	jr	70000f8 <setcoltable_end2>

070000e4 <setcoltable_loop2>:
 70000e4:	ff 44       	add	-1, r7
 70000e6:	27 c1 00 00 	ld.b	0[r7],r9
 70000ea:	29 b5 ff 00 	andi	255, r9, r9
 70000ee:	26 d5 00 00 	st.h	r9, 0[r6]
 70000f2:	26 d5 00 02 	st.h	r9, 512[r6]
 70000f6:	c2 44       	add	2, r6

070000f8 <setcoltable_end2>:
 70000f8:	c8 0c       	cmp	r8, r6
 70000fa:	ea 8d       	blt	70000e4 <setcoltable_loop2>
 70000fc:	1f 18       	jmp	[lp]

070000fe <coltable>:
 70000fe:	fe fe fe fe 	out.w	r23, -258[r30]
 7000102:	fe fe fe fe 	out.w	r23, -258[r30]
 7000106:	fe fe fe fe 	out.w	r23, -258[r30]
 700010a:	fe fe fe fe 	out.w	r23, -258[r30]
 700010e:	fe fe fe fe 	out.w	r23, -258[r30]
 7000112:	fe fe fe fe 	out.w	r23, -258[r30]
 7000116:	fe fe fe fe 	out.w	r23, -258[r30]
 700011a:	fe fe fe fe 	out.w	r23, -258[r30]
 700011e:	fe fe fe fe 	out.w	r23, -258[r30]
 7000122:	fe fe fe fe 	out.w	r23, -258[r30]
 7000126:	fe fe fe fe 	out.w	r23, -258[r30]
 700012a:	fe fe fe fe 	out.w	r23, -258[r30]
 700012e:	fe fe fe fe 	out.w	r23, -258[r30]
 7000132:	fe fe fe fe 	out.w	r23, -258[r30]
 7000136:	fe fe fe fe 	out.w	r23, -258[r30]
 700013a:	fe fe e0 bc 	out.w	r23, -17184[r30]
 700013e:	a6 96       	bh	70001e4 <__inthnd+0x64>
 7000140:	8a 82       	bc	70001ca <__inthnd+0x4a>
 7000142:	7a 74       	stsr	sr26, sp
 7000144:	6e 6a       	halt	
 7000146:	66 62       	trap	6
 7000148:	60 5c       	sar	0, sp
 700014a:	5a 58       	cli	
 700014c:	56 54       	shr	22, r2
 700014e:	52 50       	shl	18, r2
 7000150:	50 4e       	cmp	-16, r18
 7000152:	4c 4c       	cmp	12, r2
 7000154:	4a 4a       	setf	nz, r18
 7000156:	48 48       	setf	nv, r2
 7000158:	46 46       	add	6, r18
 700015a:	46 44       	add	6, r2
 700015c:	44 44       	add	4, r2
 700015e:	42 42       	mov	2, r18
 7000160:	42 40       	mov	2, r2
 7000162:	40 40       	mov	0, r2
 7000164:	40 40       	mov	0, r2
 7000166:	3e 3e       	not	r30, r17
 7000168:	3e 3e       	not	r30, r17
 700016a:	3e 3e       	not	r30, r17
 700016c:	3e 3c       	not	r30, r1
 700016e:	3c 3c       	not	r28, r1
 7000170:	3c 3c       	not	r28, r1
 7000172:	3c 3c       	not	r28, r1
 7000174:	3c 3c       	not	r28, r1
 7000176:	3c 3c       	not	r28, r1
 7000178:	3c 3c       	not	r28, r1
 700017a:	3c 3c       	not	r28, r1
 700017c:	3c 3c       	not	r28, r1

0700017e <jmp_r1>:
 700017e:	01 18       	jmp	[r1]

07000180 <__inthnd>:
 7000180:	63 a4 90 ff 	addi	-112, sp, sp
 7000184:	e3 df 00 00 	st.w	lp, 0[sp]
 7000188:	c3 df 04 00 	st.w	r30, 4[sp]
 700018c:	a3 df 08 00 	st.w	r29, 8[sp]
 7000190:	83 df 0c 00 	st.w	r28, 12[sp]
 7000194:	63 df 10 00 	st.w	r27, 16[sp]
 7000198:	43 df 14 00 	st.w	r26, 20[sp]
 700019c:	23 df 18 00 	st.w	r25, 24[sp]
 70001a0:	03 df 1c 00 	st.w	r24, 28[sp]
 70001a4:	e3 de 20 00 	st.w	r23, 32[sp]
 70001a8:	c3 de 24 00 	st.w	r22, 36[sp]
 70001ac:	a3 de 28 00 	st.w	r21, 40[sp]
 70001b0:	83 de 2c 00 	st.w	r20, 44[sp]
 70001b4:	63 de 30 00 	st.w	r19, 48[sp]
 70001b8:	43 de 34 00 	st.w	r18, 52[sp]
 70001bc:	23 de 38 00 	st.w	r17, 56[sp]
 70001c0:	03 de 3c 00 	st.w	r16, 60[sp]
 70001c4:	e3 dd 40 00 	st.w	r15, 64[sp]
 70001c8:	c3 dd 44 00 	st.w	r14, 68[sp]
 70001cc:	a3 dd 48 00 	st.w	r13, 72[sp]
 70001d0:	83 dd 4c 00 	st.w	r12, 76[sp]
 70001d4:	63 dd 50 00 	st.w	r11, 80[sp]
 70001d8:	43 dd 54 00 	st.w	r10, 84[sp]
 70001dc:	23 dd 58 00 	st.w	r9, 88[sp]
 70001e0:	03 dd 5c 00 	st.w	r8, 92[sp]
 70001e4:	e3 dc 60 00 	st.w	r7, 96[sp]
 70001e8:	c3 dc 64 00 	st.w	r6, 100[sp]
 70001ec:	a3 dc 68 00 	st.w	r5, 104[sp]
 70001f0:	43 dc 6c 00 	st.w	r2, 108[sp]
 70001f4:	20 bc 01 05 	movhi	1281, r0, r1
 70001f8:	21 a0 c0 ff 	movea	-64, r1, r1
 70001fc:	c5 74       	stsr	psw, r6
 70001fe:	ce 54       	shr	14, r6
 7000200:	c6 b4 3c 00 	andi	60, r6, r6
 7000204:	26 04       	add	r6, r1
 7000206:	21 cc fc ff 	ld.w	-4[r1],r1
 700020a:	20 0c       	cmp	r0, r1
 700020c:	06 84       	be	7000212 <__inthnd_end>
 700020e:	ff af 70 ff 	jal	700017e <jmp_r1>

07000212 <__inthnd_end>:
 7000212:	e3 cf 00 00 	ld.w	0[sp],lp
 7000216:	c3 cf 04 00 	ld.w	4[sp],r30
 700021a:	a3 cf 08 00 	ld.w	8[sp],r29
 700021e:	83 cf 0c 00 	ld.w	12[sp],r28
 7000222:	63 cf 10 00 	ld.w	16[sp],r27
 7000226:	43 cf 14 00 	ld.w	20[sp],r26
 700022a:	23 cf 18 00 	ld.w	24[sp],r25
 700022e:	03 cf 1c 00 	ld.w	28[sp],r24
 7000232:	e3 ce 20 00 	ld.w	32[sp],r23
 7000236:	c3 ce 24 00 	ld.w	36[sp],r22
 700023a:	a3 ce 28 00 	ld.w	40[sp],r21
 700023e:	83 ce 2c 00 	ld.w	44[sp],r20
 7000242:	63 ce 30 00 	ld.w	48[sp],r19
 7000246:	43 ce 34 00 	ld.w	52[sp],r18
 700024a:	23 ce 38 00 	ld.w	56[sp],r17
 700024e:	03 ce 3c 00 	ld.w	60[sp],r16
 7000252:	e3 cd 40 00 	ld.w	64[sp],r15
 7000256:	c3 cd 44 00 	ld.w	68[sp],r14
 700025a:	a3 cd 48 00 	ld.w	72[sp],r13
 700025e:	83 cd 4c 00 	ld.w	76[sp],r12
 7000262:	63 cd 50 00 	ld.w	80[sp],r11
 7000266:	43 cd 54 00 	ld.w	84[sp],r10
 700026a:	23 cd 58 00 	ld.w	88[sp],r9
 700026e:	03 cd 5c 00 	ld.w	92[sp],r8
 7000272:	e3 cc 60 00 	ld.w	96[sp],r7
 7000276:	c3 cc 64 00 	ld.w	100[sp],r6
 700027a:	a3 cc 68 00 	ld.w	104[sp],r5
 700027e:	43 cc 6c 00 	ld.w	108[sp],r2
 7000282:	63 a4 70 00 	addi	112, sp, sp
 7000286:	23 cc 00 00 	ld.w	0[sp],r1
 700028a:	64 44       	add	4, sp
 700028c:	00 64       	reti	
 700028e:	ff ff 7c 44 	out.w	lp, 17532[lp]

07000290 <_vbWaitFrame>:
 7000290:	7c 44       	add	-4, sp
 7000292:	46 01       	mov	r6, r10
 7000294:	43 d5 04 00 	st.h	r10, 4[sp]
 7000298:	03 d4 02 00 	st.h	r0, 2[sp]
 700029c:	4c 8a       	br	70002e8 <_vbWaitFrame+0x58>
 700029e:	40 bd 00 05 	movhi	1280, r0, r10
 70002a2:	4a a1 00 00 	movea	0, r10, r10
 70002a6:	4a cd 00 00 	ld.w	0[r10],r10
 70002aa:	4a a5 40 00 	addi	64, r10, r10
 70002ae:	4a c5 00 00 	ld.h	0[r10],r10
 70002b2:	4a b5 ff ff 	andi	65535, r10, r10
 70002b6:	4a b5 0c 00 	andi	12, r10, r10
 70002ba:	40 0d       	cmp	r0, r10
 70002bc:	e2 85       	be	700029e <_vbWaitFrame+0xe>
 70002be:	40 bd 00 05 	movhi	1280, r0, r10
 70002c2:	4a a1 00 00 	movea	0, r10, r10
 70002c6:	4a cd 00 00 	ld.w	0[r10],r10
 70002ca:	4a a5 40 00 	addi	64, r10, r10
 70002ce:	4a c5 00 00 	ld.h	0[r10],r10
 70002d2:	4a b5 ff ff 	andi	65535, r10, r10
 70002d6:	4a b5 0c 00 	andi	12, r10, r10
 70002da:	40 0d       	cmp	r0, r10
 70002dc:	e2 95       	bne	70002be <_vbWaitFrame+0x2e>
 70002de:	43 c5 02 00 	ld.h	2[sp],r10
 70002e2:	41 45       	add	1, r10
 70002e4:	43 d5 02 00 	st.h	r10, 2[sp]
 70002e8:	43 c5 02 00 	ld.h	2[sp],r10
 70002ec:	6a b5 ff ff 	andi	65535, r10, r11
 70002f0:	43 c5 04 00 	ld.h	4[sp],r10
 70002f4:	4a b5 ff ff 	andi	65535, r10, r10
 70002f8:	6a 0d       	cmp	r10, r11
 70002fa:	a4 87       	bnh	700029e <_vbWaitFrame+0xe>
 70002fc:	64 44       	add	4, sp
 70002fe:	1f 18       	jmp	[lp]

07000300 <_vbDisplayOn>:
 7000300:	40 bd 00 05 	movhi	1280, r0, r10
 7000304:	4a a1 00 00 	movea	0, r10, r10
 7000308:	4a cd 00 00 	ld.w	0[r10],r10
 700030c:	4a a5 2a 00 	addi	42, r10, r10
 7000310:	0a d4 00 00 	st.h	r0, 0[r10]
 7000314:	40 bd 00 05 	movhi	1280, r0, r10
 7000318:	4a a1 00 00 	movea	0, r10, r10
 700031c:	4a cd 00 00 	ld.w	0[r10],r10
 7000320:	4a a5 42 00 	addi	66, r10, r10
 7000324:	60 bd 00 05 	movhi	1280, r0, r11
 7000328:	6b a1 00 00 	movea	0, r11, r11
 700032c:	6b cd 00 00 	ld.w	0[r11],r11
 7000330:	6b a5 40 00 	addi	64, r11, r11
 7000334:	6b c5 00 00 	ld.h	0[r11],r11
 7000338:	6b b5 ff ff 	andi	65535, r11, r11
 700033c:	6b b1 02 00 	ori	2, r11, r11
 7000340:	6b b5 ff ff 	andi	65535, r11, r11
 7000344:	6a d5 00 00 	st.h	r11, 0[r10]
 7000348:	40 bd 00 05 	movhi	1280, r0, r10
 700034c:	4a a1 00 00 	movea	0, r10, r10
 7000350:	4a cd 00 00 	ld.w	0[r10],r10
 7000354:	4a a5 22 00 	addi	34, r10, r10
 7000358:	60 bd 00 05 	movhi	1280, r0, r11
 700035c:	6b a1 00 00 	movea	0, r11, r11
 7000360:	6b cd 00 00 	ld.w	0[r11],r11
 7000364:	6b a5 20 00 	addi	32, r11, r11
 7000368:	6b c5 00 00 	ld.h	0[r11],r11
 700036c:	6b b5 ff ff 	andi	65535, r11, r11
 7000370:	6b b1 02 03 	ori	770, r11, r11
 7000374:	6b b5 ff ff 	andi	65535, r11, r11
 7000378:	6a d5 00 00 	st.h	r11, 0[r10]
 700037c:	40 bd 00 05 	movhi	1280, r0, r10
 7000380:	4a a1 00 00 	movea	0, r10, r10
 7000384:	4a cd 00 00 	ld.w	0[r10],r10
 7000388:	4a a5 2e 00 	addi	46, r10, r10
 700038c:	0a d4 00 00 	st.h	r0, 0[r10]
 7000390:	40 bd 00 05 	movhi	1280, r0, r10
 7000394:	4a a1 00 00 	movea	0, r10, r10
 7000398:	4a cd 00 00 	ld.w	0[r10],r10
 700039c:	44 45       	add	4, r10
 700039e:	60 bd 00 05 	movhi	1280, r0, r11
 70003a2:	6b a1 00 00 	movea	0, r11, r11
 70003a6:	6b cd 00 00 	ld.w	0[r11],r11
 70003aa:	6b c5 00 00 	ld.h	0[r11],r11
 70003ae:	6b b5 ff ff 	andi	65535, r11, r11
 70003b2:	6a d5 00 00 	st.h	r11, 0[r10]
 70003b6:	40 bd 00 05 	movhi	1280, r0, r10
 70003ba:	4a a1 00 00 	movea	0, r10, r10
 70003be:	4a cd 00 00 	ld.w	0[r10],r10
 70003c2:	4a a5 24 00 	addi	36, r10, r10
 70003c6:	0a d4 00 00 	st.h	r0, 0[r10]
 70003ca:	40 bd 00 05 	movhi	1280, r0, r10
 70003ce:	4a a1 00 00 	movea	0, r10, r10
 70003d2:	4a cd 00 00 	ld.w	0[r10],r10
 70003d6:	4a a5 26 00 	addi	38, r10, r10
 70003da:	0a d4 00 00 	st.h	r0, 0[r10]
 70003de:	40 bd 00 05 	movhi	1280, r0, r10
 70003e2:	4a a1 00 00 	movea	0, r10, r10
 70003e6:	4a cd 00 00 	ld.w	0[r10],r10
 70003ea:	4a a5 28 00 	addi	40, r10, r10
 70003ee:	0a d4 00 00 	st.h	r0, 0[r10]
 70003f2:	40 bd 00 05 	movhi	1280, r0, r10
 70003f6:	4a a1 00 00 	movea	0, r10, r10
 70003fa:	4a cd 00 00 	ld.w	0[r10],r10
 70003fe:	4a a5 60 00 	addi	96, r10, r10
 7000402:	60 a1 e4 00 	movea	228, r0, r11
 7000406:	6a d5 00 00 	st.h	r11, 0[r10]
 700040a:	40 bd 00 05 	movhi	1280, r0, r10
 700040e:	4a a1 00 00 	movea	0, r10, r10
 7000412:	4a cd 00 00 	ld.w	0[r10],r10
 7000416:	4a a5 62 00 	addi	98, r10, r10
 700041a:	60 a1 e4 00 	movea	228, r0, r11
 700041e:	6a d5 00 00 	st.h	r11, 0[r10]
 7000422:	40 bd 00 05 	movhi	1280, r0, r10
 7000426:	4a a1 00 00 	movea	0, r10, r10
 700042a:	4a cd 00 00 	ld.w	0[r10],r10
 700042e:	4a a5 64 00 	addi	100, r10, r10
 7000432:	60 a1 e4 00 	movea	228, r0, r11
 7000436:	6a d5 00 00 	st.h	r11, 0[r10]
 700043a:	40 bd 00 05 	movhi	1280, r0, r10
 700043e:	4a a1 00 00 	movea	0, r10, r10
 7000442:	4a cd 00 00 	ld.w	0[r10],r10
 7000446:	4a a5 66 00 	addi	102, r10, r10
 700044a:	60 a1 e4 00 	movea	228, r0, r11
 700044e:	6a d5 00 00 	st.h	r11, 0[r10]
 7000452:	40 bd 00 05 	movhi	1280, r0, r10
 7000456:	4a a1 00 00 	movea	0, r10, r10
 700045a:	4a cd 00 00 	ld.w	0[r10],r10
 700045e:	4a a5 68 00 	addi	104, r10, r10
 7000462:	60 a1 e4 00 	movea	228, r0, r11
 7000466:	6a d5 00 00 	st.h	r11, 0[r10]
 700046a:	40 bd 00 05 	movhi	1280, r0, r10
 700046e:	4a a1 00 00 	movea	0, r10, r10
 7000472:	4a cd 00 00 	ld.w	0[r10],r10
 7000476:	4a a5 6a 00 	addi	106, r10, r10
 700047a:	60 a1 e4 00 	movea	228, r0, r11
 700047e:	6a d5 00 00 	st.h	r11, 0[r10]
 7000482:	40 bd 00 05 	movhi	1280, r0, r10
 7000486:	4a a1 00 00 	movea	0, r10, r10
 700048a:	4a cd 00 00 	ld.w	0[r10],r10
 700048e:	4a a5 6c 00 	addi	108, r10, r10
 7000492:	60 a1 e4 00 	movea	228, r0, r11
 7000496:	6a d5 00 00 	st.h	r11, 0[r10]
 700049a:	40 bd 00 05 	movhi	1280, r0, r10
 700049e:	4a a1 00 00 	movea	0, r10, r10
 70004a2:	4a cd 00 00 	ld.w	0[r10],r10
 70004a6:	4a a5 6e 00 	addi	110, r10, r10
 70004aa:	60 a1 e4 00 	movea	228, r0, r11
 70004ae:	6a d5 00 00 	st.h	r11, 0[r10]
 70004b2:	40 bd 00 05 	movhi	1280, r0, r10
 70004b6:	4a a1 00 00 	movea	0, r10, r10
 70004ba:	4a cd 00 00 	ld.w	0[r10],r10
 70004be:	4a a5 70 00 	addi	112, r10, r10
 70004c2:	0a d4 00 00 	st.h	r0, 0[r10]
 70004c6:	1f 18       	jmp	[lp]

070004c8 <_vbDisplayOff>:
 70004c8:	40 bd 00 05 	movhi	1280, r0, r10
 70004cc:	4a a1 00 00 	movea	0, r10, r10
 70004d0:	4a cd 00 00 	ld.w	0[r10],r10
 70004d4:	4a a5 2a 00 	addi	42, r10, r10
 70004d8:	0a d4 00 00 	st.h	r0, 0[r10]
 70004dc:	40 bd 00 05 	movhi	1280, r0, r10
 70004e0:	4a a1 00 00 	movea	0, r10, r10
 70004e4:	4a cd 00 00 	ld.w	0[r10],r10
 70004e8:	4a a5 42 00 	addi	66, r10, r10
 70004ec:	0a d4 00 00 	st.h	r0, 0[r10]
 70004f0:	40 bd 00 05 	movhi	1280, r0, r10
 70004f4:	4a a1 00 00 	movea	0, r10, r10
 70004f8:	4a cd 00 00 	ld.w	0[r10],r10
 70004fc:	4a a5 22 00 	addi	34, r10, r10
 7000500:	0a d4 00 00 	st.h	r0, 0[r10]
 7000504:	40 bd 00 05 	movhi	1280, r0, r10
 7000508:	4a a1 00 00 	movea	0, r10, r10
 700050c:	4a cd 00 00 	ld.w	0[r10],r10
 7000510:	4a a5 2e 00 	addi	46, r10, r10
 7000514:	0a d4 00 00 	st.h	r0, 0[r10]
 7000518:	40 bd 00 05 	movhi	1280, r0, r10
 700051c:	4a a1 00 00 	movea	0, r10, r10
 7000520:	4a cd 00 00 	ld.w	0[r10],r10
 7000524:	44 45       	add	4, r10
 7000526:	60 bd 00 05 	movhi	1280, r0, r11
 700052a:	6b a1 00 00 	movea	0, r11, r11
 700052e:	6b cd 00 00 	ld.w	0[r11],r11
 7000532:	6b c5 00 00 	ld.h	0[r11],r11
 7000536:	6b b5 ff ff 	andi	65535, r11, r11
 700053a:	6a d5 00 00 	st.h	r11, 0[r10]
 700053e:	1f 18       	jmp	[lp]

07000540 <_vbDisplayShow>:
 7000540:	40 bd 00 05 	movhi	1280, r0, r10
 7000544:	4a a1 00 00 	movea	0, r10, r10
 7000548:	4a cd 00 00 	ld.w	0[r10],r10
 700054c:	4a a5 24 00 	addi	36, r10, r10
 7000550:	60 a1 20 00 	movea	32, r0, r11
 7000554:	6a d5 00 00 	st.h	r11, 0[r10]
 7000558:	40 bd 00 05 	movhi	1280, r0, r10
 700055c:	4a a1 00 00 	movea	0, r10, r10
 7000560:	4a cd 00 00 	ld.w	0[r10],r10
 7000564:	4a a5 26 00 	addi	38, r10, r10
 7000568:	60 a1 40 00 	movea	64, r0, r11
 700056c:	6a d5 00 00 	st.h	r11, 0[r10]
 7000570:	40 bd 00 05 	movhi	1280, r0, r10
 7000574:	4a a1 00 00 	movea	0, r10, r10
 7000578:	4a cd 00 00 	ld.w	0[r10],r10
 700057c:	4a a5 28 00 	addi	40, r10, r10
 7000580:	60 a1 20 00 	movea	32, r0, r11
 7000584:	6a d5 00 00 	st.h	r11, 0[r10]
 7000588:	1f 18       	jmp	[lp]
	...

0700058c <_vbDisplayHide>:
 700058c:	40 bd 00 05 	movhi	1280, r0, r10
 7000590:	4a a1 00 00 	movea	0, r10, r10
 7000594:	4a cd 00 00 	ld.w	0[r10],r10
 7000598:	4a a5 24 00 	addi	36, r10, r10
 700059c:	0a d4 00 00 	st.h	r0, 0[r10]
 70005a0:	40 bd 00 05 	movhi	1280, r0, r10
 70005a4:	4a a1 00 00 	movea	0, r10, r10
 70005a8:	4a cd 00 00 	ld.w	0[r10],r10
 70005ac:	4a a5 26 00 	addi	38, r10, r10
 70005b0:	0a d4 00 00 	st.h	r0, 0[r10]
 70005b4:	40 bd 00 05 	movhi	1280, r0, r10
 70005b8:	4a a1 00 00 	movea	0, r10, r10
 70005bc:	4a cd 00 00 	ld.w	0[r10],r10
 70005c0:	4a a5 28 00 	addi	40, r10, r10
 70005c4:	0a d4 00 00 	st.h	r0, 0[r10]
 70005c8:	1f 18       	jmp	[lp]
	...

070005cc <_vbFXFadeIn>:
 70005cc:	63 a4 e8 ff 	addi	-24, sp, sp
 70005d0:	e3 df 14 00 	st.w	lp, 20[sp]
 70005d4:	46 01       	mov	r6, r10
 70005d6:	43 d5 18 00 	st.h	r10, 24[sp]
 70005da:	03 d0 13 00 	st.b	r0, 19[sp]
 70005de:	80 8a       	br	700065e <_vbFXFadeIn+0x92>
 70005e0:	43 c5 18 00 	ld.h	24[sp],r10
 70005e4:	4a b5 ff ff 	andi	65535, r10, r10
 70005e8:	ca 00       	mov	r10, r6
 70005ea:	40 bd 00 07 	movhi	1792, r0, r10
 70005ee:	4a a1 90 02 	movea	656, r10, r10
 70005f2:	00 ac 04 00 	jal	70005f6 <_vbFXFadeIn+0x2a>
 70005f6:	e4 47       	add	4, lp
 70005f8:	0a 18       	jmp	[r10]
 70005fa:	40 bd 00 05 	movhi	1280, r0, r10
 70005fe:	4a a1 00 00 	movea	0, r10, r10
 7000602:	4a cd 00 00 	ld.w	0[r10],r10
 7000606:	4a a5 24 00 	addi	36, r10, r10
 700060a:	63 c1 13 00 	ld.b	19[sp],r11
 700060e:	6b b5 ff 00 	andi	255, r11, r11
 7000612:	6a d5 00 00 	st.h	r11, 0[r10]
 7000616:	40 bd 00 05 	movhi	1280, r0, r10
 700061a:	4a a1 00 00 	movea	0, r10, r10
 700061e:	4a cd 00 00 	ld.w	0[r10],r10
 7000622:	6a a5 26 00 	addi	38, r10, r11
 7000626:	43 c1 13 00 	ld.b	19[sp],r10
 700062a:	4a b5 ff 00 	andi	255, r10, r10
 700062e:	4a 05       	add	r10, r10
 7000630:	4a b5 ff ff 	andi	65535, r10, r10
 7000634:	4b d5 00 00 	st.h	r10, 0[r11]
 7000638:	40 bd 00 05 	movhi	1280, r0, r10
 700063c:	4a a1 00 00 	movea	0, r10, r10
 7000640:	4a cd 00 00 	ld.w	0[r10],r10
 7000644:	4a a5 28 00 	addi	40, r10, r10
 7000648:	63 c1 13 00 	ld.b	19[sp],r11
 700064c:	6b b5 ff 00 	andi	255, r11, r11
 7000650:	6a d5 00 00 	st.h	r11, 0[r10]
 7000654:	43 c1 13 00 	ld.b	19[sp],r10
 7000658:	41 45       	add	1, r10
 700065a:	43 d1 13 00 	st.b	r10, 19[sp]
 700065e:	43 c1 13 00 	ld.b	19[sp],r10
 7000662:	6a b5 ff 00 	andi	255, r10, r11
 7000666:	40 a1 20 00 	movea	32, r0, r10
 700066a:	6a 0d       	cmp	r10, r11
 700066c:	74 87       	bnh	70005e0 <_vbFXFadeIn+0x14>
 700066e:	e3 cf 14 00 	ld.w	20[sp],lp
 7000672:	63 a4 18 00 	addi	24, sp, sp
 7000676:	1f 18       	jmp	[lp]

07000678 <_vbFXFadeOut>:
 7000678:	63 a4 e8 ff 	addi	-24, sp, sp
 700067c:	e3 df 14 00 	st.w	lp, 20[sp]
 7000680:	46 01       	mov	r6, r10
 7000682:	43 d5 18 00 	st.h	r10, 24[sp]
 7000686:	40 a1 20 00 	movea	32, r0, r10
 700068a:	43 d1 13 00 	st.b	r10, 19[sp]
 700068e:	88 8a       	br	7000716 <_vbFXFadeOut+0x9e>
 7000690:	43 c5 18 00 	ld.h	24[sp],r10
 7000694:	4a b5 ff ff 	andi	65535, r10, r10
 7000698:	ca 00       	mov	r10, r6
 700069a:	40 bd 00 07 	movhi	1792, r0, r10
 700069e:	4a a1 90 02 	movea	656, r10, r10
 70006a2:	00 ac 04 00 	jal	70006a6 <_vbFXFadeOut+0x2e>
 70006a6:	e4 47       	add	4, lp
 70006a8:	0a 18       	jmp	[r10]
 70006aa:	40 bd 00 05 	movhi	1280, r0, r10
 70006ae:	4a a1 00 00 	movea	0, r10, r10
 70006b2:	4a cd 00 00 	ld.w	0[r10],r10
 70006b6:	4a a5 24 00 	addi	36, r10, r10
 70006ba:	63 c1 13 00 	ld.b	19[sp],r11
 70006be:	78 51       	shl	24, r11
 70006c0:	78 5d       	sar	24, r11
 70006c2:	6b b5 ff ff 	andi	65535, r11, r11
 70006c6:	6a d5 00 00 	st.h	r11, 0[r10]
 70006ca:	40 bd 00 05 	movhi	1280, r0, r10
 70006ce:	4a a1 00 00 	movea	0, r10, r10
 70006d2:	4a cd 00 00 	ld.w	0[r10],r10
 70006d6:	6a a5 26 00 	addi	38, r10, r11
 70006da:	43 c1 13 00 	ld.b	19[sp],r10
 70006de:	58 51       	shl	24, r10
 70006e0:	58 5d       	sar	24, r10
 70006e2:	4a 05       	add	r10, r10
 70006e4:	4a b5 ff ff 	andi	65535, r10, r10
 70006e8:	4b d5 00 00 	st.h	r10, 0[r11]
 70006ec:	40 bd 00 05 	movhi	1280, r0, r10
 70006f0:	4a a1 00 00 	movea	0, r10, r10
 70006f4:	4a cd 00 00 	ld.w	0[r10],r10
 70006f8:	4a a5 28 00 	addi	40, r10, r10
 70006fc:	63 c1 13 00 	ld.b	19[sp],r11
 7000700:	78 51       	shl	24, r11
 7000702:	78 5d       	sar	24, r11
 7000704:	6b b5 ff ff 	andi	65535, r11, r11
 7000708:	6a d5 00 00 	st.h	r11, 0[r10]
 700070c:	43 c1 13 00 	ld.b	19[sp],r10
 7000710:	5f 45       	add	-1, r10
 7000712:	43 d1 13 00 	st.b	r10, 19[sp]
 7000716:	43 c1 13 00 	ld.b	19[sp],r10
 700071a:	58 51       	shl	24, r10
 700071c:	58 5d       	sar	24, r10
 700071e:	40 0d       	cmp	r0, r10
 7000720:	70 9d       	bge	7000690 <_vbFXFadeOut+0x18>
 7000722:	e3 cf 14 00 	ld.w	20[sp],lp
 7000726:	63 a4 18 00 	addi	24, sp, sp
 700072a:	1f 18       	jmp	[lp]

0700072c <_vbSetColTable>:
 700072c:	7c 44       	add	-4, sp
 700072e:	03 d0 03 00 	st.b	r0, 3[sp]
 7000732:	00 a8 06 01 	jr	7000838 <_vbSetColTable+0x10c>
 7000736:	40 bd 00 07 	movhi	1792, r0, r10
 700073a:	4a a1 74 40 	movea	16500, r10, r10
 700073e:	6a cd 00 00 	ld.w	0[r10],r11
 7000742:	43 c1 03 00 	ld.b	3[sp],r10
 7000746:	4a b5 ff 00 	andi	255, r10, r10
 700074a:	4a 05       	add	r10, r10
 700074c:	4b 05       	add	r11, r10
 700074e:	60 bd 00 07 	movhi	1792, r0, r11
 7000752:	8b a1 7c 40 	movea	16508, r11, r12
 7000756:	63 c1 03 00 	ld.b	3[sp],r11
 700075a:	6b b5 ff 00 	andi	255, r11, r11
 700075e:	6c 05       	add	r12, r11
 7000760:	6b c1 00 00 	ld.b	0[r11],r11
 7000764:	6b b5 ff 00 	andi	255, r11, r11
 7000768:	6a d5 00 00 	st.h	r11, 0[r10]
 700076c:	40 bd 00 07 	movhi	1792, r0, r10
 7000770:	4a a1 74 40 	movea	16500, r10, r10
 7000774:	6a cd 00 00 	ld.w	0[r10],r11
 7000778:	43 c1 03 00 	ld.b	3[sp],r10
 700077c:	4a b5 ff 00 	andi	255, r10, r10
 7000780:	4a a5 00 01 	addi	256, r10, r10
 7000784:	4a 05       	add	r10, r10
 7000786:	4b 05       	add	r11, r10
 7000788:	60 bd 00 07 	movhi	1792, r0, r11
 700078c:	8b a1 7c 40 	movea	16508, r11, r12
 7000790:	63 c1 03 00 	ld.b	3[sp],r11
 7000794:	6b b5 ff 00 	andi	255, r11, r11
 7000798:	6c 05       	add	r12, r11
 700079a:	6b c1 00 00 	ld.b	0[r11],r11
 700079e:	6b b5 ff 00 	andi	255, r11, r11
 70007a2:	6a d5 00 00 	st.h	r11, 0[r10]
 70007a6:	40 bd 00 07 	movhi	1792, r0, r10
 70007aa:	4a a1 74 40 	movea	16500, r10, r10
 70007ae:	6a cd 00 00 	ld.w	0[r10],r11
 70007b2:	43 c1 03 00 	ld.b	3[sp],r10
 70007b6:	4a b5 ff 00 	andi	255, r10, r10
 70007ba:	4a a5 80 00 	addi	128, r10, r10
 70007be:	4a 05       	add	r10, r10
 70007c0:	4b 05       	add	r11, r10
 70007c2:	63 c1 03 00 	ld.b	3[sp],r11
 70007c6:	6b b5 ff 00 	andi	255, r11, r11
 70007ca:	80 a1 7f 00 	movea	127, r0, r12
 70007ce:	ac 01       	mov	r12, r13
 70007d0:	ab 09       	sub	r11, r13
 70007d2:	6d 01       	mov	r13, r11
 70007d4:	80 bd 00 07 	movhi	1792, r0, r12
 70007d8:	8c a1 7c 40 	movea	16508, r12, r12
 70007dc:	6c 05       	add	r12, r11
 70007de:	6b c1 00 00 	ld.b	0[r11],r11
 70007e2:	6b b5 ff 00 	andi	255, r11, r11
 70007e6:	6a d5 00 00 	st.h	r11, 0[r10]
 70007ea:	40 bd 00 07 	movhi	1792, r0, r10
 70007ee:	4a a1 74 40 	movea	16500, r10, r10
 70007f2:	6a cd 00 00 	ld.w	0[r10],r11
 70007f6:	43 c1 03 00 	ld.b	3[sp],r10
 70007fa:	4a b5 ff 00 	andi	255, r10, r10
 70007fe:	4a a5 80 01 	addi	384, r10, r10
 7000802:	4a 05       	add	r10, r10
 7000804:	4b 05       	add	r11, r10
 7000806:	63 c1 03 00 	ld.b	3[sp],r11
 700080a:	6b b5 ff 00 	andi	255, r11, r11
 700080e:	80 a1 7f 00 	movea	127, r0, r12
 7000812:	ac 01       	mov	r12, r13
 7000814:	ab 09       	sub	r11, r13
 7000816:	6d 01       	mov	r13, r11
 7000818:	80 bd 00 07 	movhi	1792, r0, r12
 700081c:	8c a1 7c 40 	movea	16508, r12, r12
 7000820:	6c 05       	add	r12, r11
 7000822:	6b c1 00 00 	ld.b	0[r11],r11
 7000826:	6b b5 ff 00 	andi	255, r11, r11
 700082a:	6a d5 00 00 	st.h	r11, 0[r10]
 700082e:	43 c1 03 00 	ld.b	3[sp],r10
 7000832:	41 45       	add	1, r10
 7000834:	43 d1 03 00 	st.b	r10, 3[sp]
 7000838:	43 c1 03 00 	ld.b	3[sp],r10
 700083c:	58 51       	shl	24, r10
 700083e:	58 5d       	sar	24, r10
 7000840:	40 0d       	cmp	r0, r10
 7000842:	06 8c       	blt	7000848 <_vbSetColTable+0x11c>
 7000844:	ff ab f2 fe 	jr	7000736 <_vbSetColTable+0xa>
 7000848:	64 44       	add	4, sp
 700084a:	1f 18       	jmp	[lp]

0700084c <_affine_clr_param>:
 700084c:	74 44       	add	-12, sp
 700084e:	46 01       	mov	r6, r10
 7000850:	43 d1 0c 00 	st.b	r10, 12[sp]
 7000854:	43 c1 0c 00 	ld.b	12[sp],r10
 7000858:	4a b5 ff 00 	andi	255, r10, r10
 700085c:	44 51       	shl	4, r10
 700085e:	43 dd 04 00 	st.w	r10, 4[sp]
 7000862:	40 bd 00 07 	movhi	1792, r0, r10
 7000866:	4a a1 70 40 	movea	16496, r10, r10
 700086a:	6a cd 00 00 	ld.w	0[r10],r11
 700086e:	43 cd 04 00 	ld.w	4[sp],r10
 7000872:	49 45       	add	9, r10
 7000874:	4a 05       	add	r10, r10
 7000876:	4b 05       	add	r11, r10
 7000878:	4a c5 00 00 	ld.h	0[r10],r10
 700087c:	4a b5 ff ff 	andi	65535, r10, r10
 7000880:	4a 05       	add	r10, r10
 7000882:	60 bd 02 00 	movhi	2, r0, r11
 7000886:	4b 05       	add	r11, r10
 7000888:	43 dd 08 00 	st.w	r10, 8[sp]
 700088c:	03 dc 00 00 	st.w	r0, 0[sp]
 7000890:	1c 8a       	br	70008ac <_affine_clr_param+0x60>
 7000892:	43 cd 00 00 	ld.w	0[sp],r10
 7000896:	4a 05       	add	r10, r10
 7000898:	63 cd 08 00 	ld.w	8[sp],r11
 700089c:	4b 05       	add	r11, r10
 700089e:	0a d4 00 00 	st.h	r0, 0[r10]
 70008a2:	43 cd 00 00 	ld.w	0[sp],r10
 70008a6:	41 45       	add	1, r10
 70008a8:	43 dd 00 00 	st.w	r10, 0[sp]
 70008ac:	40 bd 00 07 	movhi	1792, r0, r10
 70008b0:	4a a1 70 40 	movea	16496, r10, r10
 70008b4:	6a cd 00 00 	ld.w	0[r10],r11
 70008b8:	43 cd 04 00 	ld.w	4[sp],r10
 70008bc:	48 45       	add	8, r10
 70008be:	4a 05       	add	r10, r10
 70008c0:	4b 05       	add	r11, r10
 70008c2:	4a c5 00 00 	ld.h	0[r10],r10
 70008c6:	4a b5 ff ff 	andi	65535, r10, r10
 70008ca:	43 51       	shl	3, r10
 70008cc:	63 cd 00 00 	ld.w	0[sp],r11
 70008d0:	4b 0d       	cmp	r11, r10
 70008d2:	c0 9f       	bgt	7000892 <_affine_clr_param+0x46>
 70008d4:	6c 44       	add	12, sp
 70008d6:	1f 18       	jmp	[lp]

070008d8 <_affine_scale>:
 70008d8:	63 a4 e4 ff 	addi	-28, sp, sp
 70008dc:	c6 01       	mov	r6, r14
 70008de:	a7 01       	mov	r7, r13
 70008e0:	88 01       	mov	r8, r12
 70008e2:	69 01       	mov	r9, r11
 70008e4:	43 cd 2c 00 	ld.w	44[sp],r10
 70008e8:	c3 d1 1c 00 	st.b	r14, 28[sp]
 70008ec:	a3 d5 20 00 	st.h	r13, 32[sp]
 70008f0:	83 d5 24 00 	st.h	r12, 36[sp]
 70008f4:	63 d5 28 00 	st.h	r11, 40[sp]
 70008f8:	43 d5 00 00 	st.h	r10, 0[sp]
 70008fc:	43 c1 1c 00 	ld.b	28[sp],r10
 7000900:	4a b5 ff 00 	andi	255, r10, r10
 7000904:	44 51       	shl	4, r10
 7000906:	43 dd 08 00 	st.w	r10, 8[sp]
 700090a:	40 bd 00 07 	movhi	1792, r0, r10
 700090e:	4a a1 70 40 	movea	16496, r10, r10
 7000912:	6a cd 00 00 	ld.w	0[r10],r11
 7000916:	43 cd 08 00 	ld.w	8[sp],r10
 700091a:	49 45       	add	9, r10
 700091c:	4a 05       	add	r10, r10
 700091e:	4b 05       	add	r11, r10
 7000920:	4a c5 00 00 	ld.h	0[r10],r10
 7000924:	4a b5 ff ff 	andi	65535, r10, r10
 7000928:	4a 05       	add	r10, r10
 700092a:	60 bd 02 00 	movhi	2, r0, r11
 700092e:	4b 05       	add	r11, r10
 7000930:	43 dd 0c 00 	st.w	r10, 12[sp]
 7000934:	63 cd 30 00 	ld.w	48[sp],r11
 7000938:	40 bd 00 44 	movhi	17408, r0, r10
 700093c:	4b f9 00 18 	mulf.s	r11, r10
 7000940:	4a f9 00 0c 	.long	0x0c00f94a
 7000944:	60 bd 04 00 	movhi	4, r0, r11
 7000948:	8b 01       	mov	r11, r12
 700094a:	8a 25       	div	r10, r12
 700094c:	4c 01       	mov	r12, r10
 700094e:	43 d5 14 00 	st.h	r10, 20[sp]
 7000952:	63 cd 34 00 	ld.w	52[sp],r11
 7000956:	40 bd 00 44 	movhi	17408, r0, r10
 700095a:	4b f9 00 18 	mulf.s	r11, r10
 700095e:	4a f9 00 0c 	.long	0x0c00f94a
 7000962:	60 bd 04 00 	movhi	4, r0, r11
 7000966:	ab 01       	mov	r11, r13
 7000968:	aa 25       	div	r10, r13
 700096a:	4d 01       	mov	r13, r10
 700096c:	43 d5 16 00 	st.h	r10, 22[sp]
 7000970:	43 c5 20 00 	ld.h	32[sp],r10
 7000974:	50 51       	shl	16, r10
 7000976:	50 5d       	sar	16, r10
 7000978:	4a f9 00 08 	.long	0x0800f94a
 700097c:	63 c5 28 00 	ld.h	40[sp],r11
 7000980:	6b b5 ff ff 	andi	65535, r11, r11
 7000984:	8b f9 00 08 	.long	0x0800f98b
 7000988:	63 cd 30 00 	ld.w	48[sp],r11
 700098c:	8b f9 00 18 	mulf.s	r11, r12
 7000990:	60 bd 00 c0 	movhi	-16384, r0, r11
 7000994:	ac 01       	mov	r12, r13
 7000996:	ab f9 00 1c 	divf.s	r11, r13
 700099a:	6d 01       	mov	r13, r11
 700099c:	4b f9 00 10 	addf.s	r11, r10
 70009a0:	63 cd 30 00 	ld.w	48[sp],r11
 70009a4:	4b f9 00 1c 	divf.s	r11, r10
 70009a8:	60 bd 00 41 	movhi	16640, r0, r11
 70009ac:	4b f9 00 18 	mulf.s	r11, r10
 70009b0:	4a f9 00 0c 	.long	0x0c00f94a
 70009b4:	4a 3d       	not	r10, r10
 70009b6:	41 45       	add	1, r10
 70009b8:	43 d5 12 00 	st.h	r10, 18[sp]
 70009bc:	43 c5 24 00 	ld.h	36[sp],r10
 70009c0:	50 51       	shl	16, r10
 70009c2:	50 5d       	sar	16, r10
 70009c4:	4a f9 00 08 	.long	0x0800f94a
 70009c8:	63 c5 00 00 	ld.h	0[sp],r11
 70009cc:	6b b5 ff ff 	andi	65535, r11, r11
 70009d0:	8b f9 00 08 	.long	0x0800f98b
 70009d4:	63 cd 34 00 	ld.w	52[sp],r11
 70009d8:	8b f9 00 18 	mulf.s	r11, r12
 70009dc:	60 bd 00 c0 	movhi	-16384, r0, r11
 70009e0:	ac 01       	mov	r12, r13
 70009e2:	ab f9 00 1c 	divf.s	r11, r13
 70009e6:	6d 01       	mov	r13, r11
 70009e8:	4b f9 00 10 	addf.s	r11, r10
 70009ec:	63 cd 34 00 	ld.w	52[sp],r11
 70009f0:	4b f9 00 1c 	divf.s	r11, r10
 70009f4:	60 bd 00 44 	movhi	17408, r0, r11
 70009f8:	4b f9 00 18 	mulf.s	r11, r10
 70009fc:	4a f9 00 0c 	.long	0x0c00f94a
 7000a00:	4a 3d       	not	r10, r10
 7000a02:	41 45       	add	1, r10
 7000a04:	43 dd 18 00 	st.w	r10, 24[sp]
 7000a08:	03 dc 04 00 	st.w	r0, 4[sp]
 7000a0c:	88 8a       	br	7000a94 <_affine_scale+0x1bc>
 7000a0e:	43 cd 04 00 	ld.w	4[sp],r10
 7000a12:	4a 05       	add	r10, r10
 7000a14:	63 cd 0c 00 	ld.w	12[sp],r11
 7000a18:	4b 05       	add	r11, r10
 7000a1a:	63 c5 12 00 	ld.h	18[sp],r11
 7000a1e:	6a d5 00 00 	st.h	r11, 0[r10]
 7000a22:	43 cd 04 00 	ld.w	4[sp],r10
 7000a26:	41 45       	add	1, r10
 7000a28:	43 dd 04 00 	st.w	r10, 4[sp]
 7000a2c:	43 cd 04 00 	ld.w	4[sp],r10
 7000a30:	41 45       	add	1, r10
 7000a32:	43 dd 04 00 	st.w	r10, 4[sp]
 7000a36:	43 cd 04 00 	ld.w	4[sp],r10
 7000a3a:	4a 05       	add	r10, r10
 7000a3c:	63 cd 0c 00 	ld.w	12[sp],r11
 7000a40:	4b 05       	add	r11, r10
 7000a42:	63 cd 18 00 	ld.w	24[sp],r11
 7000a46:	66 5d       	sar	6, r11
 7000a48:	70 51       	shl	16, r11
 7000a4a:	70 5d       	sar	16, r11
 7000a4c:	6a d5 00 00 	st.h	r11, 0[r10]
 7000a50:	43 cd 04 00 	ld.w	4[sp],r10
 7000a54:	41 45       	add	1, r10
 7000a56:	43 dd 04 00 	st.w	r10, 4[sp]
 7000a5a:	43 cd 04 00 	ld.w	4[sp],r10
 7000a5e:	4a 05       	add	r10, r10
 7000a60:	63 cd 0c 00 	ld.w	12[sp],r11
 7000a64:	4b 05       	add	r11, r10
 7000a66:	63 c5 14 00 	ld.h	20[sp],r11
 7000a6a:	6a d5 00 00 	st.h	r11, 0[r10]
 7000a6e:	43 cd 04 00 	ld.w	4[sp],r10
 7000a72:	41 45       	add	1, r10
 7000a74:	43 dd 04 00 	st.w	r10, 4[sp]
 7000a78:	43 cd 04 00 	ld.w	4[sp],r10
 7000a7c:	44 45       	add	4, r10
 7000a7e:	43 dd 04 00 	st.w	r10, 4[sp]
 7000a82:	43 c5 16 00 	ld.h	22[sp],r10
 7000a86:	50 51       	shl	16, r10
 7000a88:	50 5d       	sar	16, r10
 7000a8a:	63 cd 18 00 	ld.w	24[sp],r11
 7000a8e:	4b 05       	add	r11, r10
 7000a90:	43 dd 18 00 	st.w	r10, 24[sp]
 7000a94:	40 bd 00 07 	movhi	1792, r0, r10
 7000a98:	4a a1 70 40 	movea	16496, r10, r10
 7000a9c:	6a cd 00 00 	ld.w	0[r10],r11
 7000aa0:	43 cd 08 00 	ld.w	8[sp],r10
 7000aa4:	48 45       	add	8, r10
 7000aa6:	4a 05       	add	r10, r10
 7000aa8:	4b 05       	add	r11, r10
 7000aaa:	4a c5 00 00 	ld.h	0[r10],r10
 7000aae:	4a b5 ff ff 	andi	65535, r10, r10
 7000ab2:	43 51       	shl	3, r10
 7000ab4:	63 cd 04 00 	ld.w	4[sp],r11
 7000ab8:	4b 0d       	cmp	r11, r10
 7000aba:	54 9f       	bgt	7000a0e <_affine_scale+0x136>
 7000abc:	63 a4 1c 00 	addi	28, sp, sp
 7000ac0:	1f 18       	jmp	[lp]
	...

07000ac4 <_affine_fast_scale>:
 7000ac4:	63 a4 ec ff 	addi	-20, sp, sp
 7000ac8:	46 01       	mov	r6, r10
 7000aca:	e3 dc 18 00 	st.w	r7, 24[sp]
 7000ace:	43 d1 14 00 	st.b	r10, 20[sp]
 7000ad2:	43 c1 14 00 	ld.b	20[sp],r10
 7000ad6:	4a b5 ff 00 	andi	255, r10, r10
 7000ada:	44 51       	shl	4, r10
 7000adc:	43 dd 04 00 	st.w	r10, 4[sp]
 7000ae0:	40 bd 00 07 	movhi	1792, r0, r10
 7000ae4:	4a a1 70 40 	movea	16496, r10, r10
 7000ae8:	6a cd 00 00 	ld.w	0[r10],r11
 7000aec:	43 cd 04 00 	ld.w	4[sp],r10
 7000af0:	49 45       	add	9, r10
 7000af2:	4a 05       	add	r10, r10
 7000af4:	4b 05       	add	r11, r10
 7000af6:	4a c5 00 00 	ld.h	0[r10],r10
 7000afa:	4a b5 ff ff 	andi	65535, r10, r10
 7000afe:	4a 05       	add	r10, r10
 7000b00:	60 bd 02 00 	movhi	2, r0, r11
 7000b04:	4b 05       	add	r11, r10
 7000b06:	43 dd 08 00 	st.w	r10, 8[sp]
 7000b0a:	63 cd 18 00 	ld.w	24[sp],r11
 7000b0e:	40 bd 00 44 	movhi	17408, r0, r10
 7000b12:	4b f9 00 18 	mulf.s	r11, r10
 7000b16:	4a f9 00 0c 	.long	0x0c00f94a
 7000b1a:	60 bd 04 00 	movhi	4, r0, r11
 7000b1e:	8b 01       	mov	r11, r12
 7000b20:	8a 25       	div	r10, r12
 7000b22:	4c 01       	mov	r12, r10
 7000b24:	43 d5 0e 00 	st.h	r10, 14[sp]
 7000b28:	43 c5 0e 00 	ld.h	14[sp],r10
 7000b2c:	43 d5 0c 00 	st.h	r10, 12[sp]
 7000b30:	03 dc 10 00 	st.w	r0, 16[sp]
 7000b34:	03 dc 00 00 	st.w	r0, 0[sp]
 7000b38:	84 8a       	br	7000bbc <_affine_fast_scale+0xf8>
 7000b3a:	43 cd 00 00 	ld.w	0[sp],r10
 7000b3e:	4a 05       	add	r10, r10
 7000b40:	63 cd 08 00 	ld.w	8[sp],r11
 7000b44:	4b 05       	add	r11, r10
 7000b46:	0a d4 00 00 	st.h	r0, 0[r10]
 7000b4a:	43 cd 00 00 	ld.w	0[sp],r10
 7000b4e:	41 45       	add	1, r10
 7000b50:	43 dd 00 00 	st.w	r10, 0[sp]
 7000b54:	43 cd 00 00 	ld.w	0[sp],r10
 7000b58:	41 45       	add	1, r10
 7000b5a:	43 dd 00 00 	st.w	r10, 0[sp]
 7000b5e:	43 cd 00 00 	ld.w	0[sp],r10
 7000b62:	4a 05       	add	r10, r10
 7000b64:	63 cd 08 00 	ld.w	8[sp],r11
 7000b68:	4b 05       	add	r11, r10
 7000b6a:	63 cd 10 00 	ld.w	16[sp],r11
 7000b6e:	66 5d       	sar	6, r11
 7000b70:	70 51       	shl	16, r11
 7000b72:	70 5d       	sar	16, r11
 7000b74:	6a d5 00 00 	st.h	r11, 0[r10]
 7000b78:	43 cd 00 00 	ld.w	0[sp],r10
 7000b7c:	41 45       	add	1, r10
 7000b7e:	43 dd 00 00 	st.w	r10, 0[sp]
 7000b82:	43 cd 00 00 	ld.w	0[sp],r10
 7000b86:	4a 05       	add	r10, r10
 7000b88:	63 cd 08 00 	ld.w	8[sp],r11
 7000b8c:	4b 05       	add	r11, r10
 7000b8e:	63 c5 0c 00 	ld.h	12[sp],r11
 7000b92:	6a d5 00 00 	st.h	r11, 0[r10]
 7000b96:	43 cd 00 00 	ld.w	0[sp],r10
 7000b9a:	41 45       	add	1, r10
 7000b9c:	43 dd 00 00 	st.w	r10, 0[sp]
 7000ba0:	43 cd 00 00 	ld.w	0[sp],r10
 7000ba4:	44 45       	add	4, r10
 7000ba6:	43 dd 00 00 	st.w	r10, 0[sp]
 7000baa:	43 c5 0e 00 	ld.h	14[sp],r10
 7000bae:	50 51       	shl	16, r10
 7000bb0:	50 5d       	sar	16, r10
 7000bb2:	63 cd 10 00 	ld.w	16[sp],r11
 7000bb6:	4b 05       	add	r11, r10
 7000bb8:	43 dd 10 00 	st.w	r10, 16[sp]
 7000bbc:	40 bd 00 07 	movhi	1792, r0, r10
 7000bc0:	4a a1 70 40 	movea	16496, r10, r10
 7000bc4:	6a cd 00 00 	ld.w	0[r10],r11
 7000bc8:	43 cd 04 00 	ld.w	4[sp],r10
 7000bcc:	48 45       	add	8, r10
 7000bce:	4a 05       	add	r10, r10
 7000bd0:	4b 05       	add	r11, r10
 7000bd2:	4a c5 00 00 	ld.h	0[r10],r10
 7000bd6:	4a b5 ff ff 	andi	65535, r10, r10
 7000bda:	43 51       	shl	3, r10
 7000bdc:	63 cd 00 00 	ld.w	0[sp],r11
 7000be0:	4b 0d       	cmp	r11, r10
 7000be2:	58 9f       	bgt	7000b3a <_affine_fast_scale+0x76>
 7000be4:	63 a4 14 00 	addi	20, sp, sp
 7000be8:	1f 18       	jmp	[lp]
	...

07000bec <_set_intlevel>:
 7000bec:	46 01       	mov	r6, r10
 7000bee:	43 d1 00 00 	st.b	r10, 0[sp]
 7000bf2:	43 c1 00 00 	ld.b	0[sp],r10
 7000bf6:	a5 74       	stsr	psw, r5
 7000bf8:	c0 bc f1 ff 	movhi	-15, r0, r6
 7000bfc:	c6 a0 ff ff 	movea	-1, r6, r6
 7000c00:	c5 34       	and	r5, r6
 7000c02:	aa 00       	mov	r10, r5
 7000c04:	a5 b4 0f 00 	andi	15, r5, r5
 7000c08:	b0 50       	shl	16, r5
 7000c0a:	a6 30       	or	r6, r5
 7000c0c:	a5 70       	ldsr	r5, psw
 7000c0e:	1f 18       	jmp	[lp]

07000c10 <_get_intlevel>:
 7000c10:	7c 44       	add	-4, sp
 7000c12:	a5 74       	stsr	psw, r5
 7000c14:	b0 54       	shr	16, r5
 7000c16:	a5 b4 0f 00 	andi	15, r5, r5
 7000c1a:	45 01       	mov	r5, r10
 7000c1c:	43 dd 00 00 	st.w	r10, 0[sp]
 7000c20:	43 cd 00 00 	ld.w	0[sp],r10
 7000c24:	64 44       	add	4, sp
 7000c26:	1f 18       	jmp	[lp]

07000c28 <_vbReadPad>:
 7000c28:	40 bd 00 07 	movhi	1792, r0, r10
 7000c2c:	4a a1 2c 41 	movea	16684, r10, r10
 7000c30:	4a cd 00 00 	ld.w	0[r10],r10
 7000c34:	4a a5 28 00 	addi	40, r10, r10
 7000c38:	60 a1 84 ff 	movea	-124, r0, r11
 7000c3c:	6a d1 00 00 	st.b	r11, 0[r10]
 7000c40:	40 bd 00 07 	movhi	1792, r0, r10
 7000c44:	4a a1 2c 41 	movea	16684, r10, r10
 7000c48:	4a cd 00 00 	ld.w	0[r10],r10
 7000c4c:	4a c1 28 00 	ld.b	40[r10],r10
 7000c50:	4a b5 ff 00 	andi	255, r10, r10
 7000c54:	4a b5 02 00 	andi	2, r10, r10
 7000c58:	40 0d       	cmp	r0, r10
 7000c5a:	e6 95       	bne	7000c40 <_vbReadPad+0x18>
 7000c5c:	40 bd 00 07 	movhi	1792, r0, r10
 7000c60:	4a a1 2c 41 	movea	16684, r10, r10
 7000c64:	4a cd 00 00 	ld.w	0[r10],r10
 7000c68:	4a c1 14 00 	ld.b	20[r10],r10
 7000c6c:	4a b5 ff 00 	andi	255, r10, r10
 7000c70:	48 51       	shl	8, r10
 7000c72:	60 bd 00 07 	movhi	1792, r0, r11
 7000c76:	6b a1 2c 41 	movea	16684, r11, r11
 7000c7a:	6b cd 00 00 	ld.w	0[r11],r11
 7000c7e:	6b c1 10 00 	ld.b	16[r11],r11
 7000c82:	8b b5 ff 00 	andi	255, r11, r12
 7000c86:	6a 01       	mov	r10, r11
 7000c88:	4c 01       	mov	r12, r10
 7000c8a:	4b 31       	or	r11, r10
 7000c8c:	4a b5 ff ff 	andi	65535, r10, r10
 7000c90:	1f 18       	jmp	[lp]
	...

07000c94 <_vbPadKeyDown>:
 7000c94:	63 a4 e8 ff 	addi	-24, sp, sp
 7000c98:	e3 df 14 00 	st.w	lp, 20[sp]
 7000c9c:	40 bd 00 07 	movhi	1792, r0, r10
 7000ca0:	4a a1 28 0c 	movea	3112, r10, r10
 7000ca4:	00 ac 04 00 	jal	7000ca8 <_vbPadKeyDown+0x14>
 7000ca8:	e4 47       	add	4, lp
 7000caa:	0a 18       	jmp	[r10]
 7000cac:	4a b5 ff ff 	andi	65535, r10, r10
 7000cb0:	7c 41       	mov	-4, r11
 7000cb2:	4b 35       	and	r11, r10
 7000cb4:	43 d5 10 00 	st.h	r10, 16[sp]
 7000cb8:	40 bd 00 05 	movhi	1280, r0, r10
 7000cbc:	4a a1 0c 00 	movea	12, r10, r10
 7000cc0:	4a c5 00 00 	ld.h	0[r10],r10
 7000cc4:	4a b5 ff ff 	andi	65535, r10, r10
 7000cc8:	4a 3d       	not	r10, r10
 7000cca:	6a 01       	mov	r10, r11
 7000ccc:	43 c5 10 00 	ld.h	16[sp],r10
 7000cd0:	4b 35       	and	r11, r10
 7000cd2:	43 d5 12 00 	st.h	r10, 18[sp]
 7000cd6:	40 bd 00 05 	movhi	1280, r0, r10
 7000cda:	4a a1 0c 00 	movea	12, r10, r10
 7000cde:	63 c5 10 00 	ld.h	16[sp],r11
 7000ce2:	6a d5 00 00 	st.h	r11, 0[r10]
 7000ce6:	43 c5 12 00 	ld.h	18[sp],r10
 7000cea:	4a b5 ff ff 	andi	65535, r10, r10
 7000cee:	e3 cf 14 00 	ld.w	20[sp],lp
 7000cf2:	63 a4 18 00 	addi	24, sp, sp
 7000cf6:	1f 18       	jmp	[lp]

07000cf8 <_vbPadKeyUp>:
 7000cf8:	63 a4 e8 ff 	addi	-24, sp, sp
 7000cfc:	e3 df 14 00 	st.w	lp, 20[sp]
 7000d00:	40 bd 00 07 	movhi	1792, r0, r10
 7000d04:	4a a1 28 0c 	movea	3112, r10, r10
 7000d08:	00 ac 04 00 	jal	7000d0c <_vbPadKeyUp+0x14>
 7000d0c:	e4 47       	add	4, lp
 7000d0e:	0a 18       	jmp	[r10]
 7000d10:	4a b5 ff ff 	andi	65535, r10, r10
 7000d14:	7c 41       	mov	-4, r11
 7000d16:	4b 35       	and	r11, r10
 7000d18:	43 d5 10 00 	st.h	r10, 16[sp]
 7000d1c:	40 bd 00 05 	movhi	1280, r0, r10
 7000d20:	4a a1 0e 00 	movea	14, r10, r10
 7000d24:	4a c5 00 00 	ld.h	0[r10],r10
 7000d28:	4a b5 ff ff 	andi	65535, r10, r10
 7000d2c:	63 c5 10 00 	ld.h	16[sp],r11
 7000d30:	6b 3d       	not	r11, r11
 7000d32:	4b 35       	and	r11, r10
 7000d34:	43 d5 12 00 	st.h	r10, 18[sp]
 7000d38:	40 bd 00 05 	movhi	1280, r0, r10
 7000d3c:	4a a1 0e 00 	movea	14, r10, r10
 7000d40:	63 c5 10 00 	ld.h	16[sp],r11
 7000d44:	6a d5 00 00 	st.h	r11, 0[r10]
 7000d48:	43 c5 12 00 	ld.h	18[sp],r10
 7000d4c:	4a b5 ff ff 	andi	65535, r10, r10
 7000d50:	e3 cf 14 00 	ld.w	20[sp],lp
 7000d54:	63 a4 18 00 	addi	24, sp, sp
 7000d58:	1f 18       	jmp	[lp]
	...

07000d5c <_copymem>:
 7000d5c:	7c 44       	add	-4, sp
 7000d5e:	c3 dc 04 00 	st.w	r6, 4[sp]
 7000d62:	e3 dc 08 00 	st.w	r7, 8[sp]
 7000d66:	48 01       	mov	r8, r10
 7000d68:	43 d5 0c 00 	st.h	r10, 12[sp]
 7000d6c:	03 d4 02 00 	st.h	r0, 2[sp]
 7000d70:	34 8a       	br	7000da4 <_copymem+0x48>
 7000d72:	43 cd 08 00 	ld.w	8[sp],r10
 7000d76:	4a c1 00 00 	ld.b	0[r10],r10
 7000d7a:	6a b5 ff 00 	andi	255, r10, r11
 7000d7e:	43 cd 04 00 	ld.w	4[sp],r10
 7000d82:	6a d1 00 00 	st.b	r11, 0[r10]
 7000d86:	43 cd 04 00 	ld.w	4[sp],r10
 7000d8a:	41 45       	add	1, r10
 7000d8c:	43 dd 04 00 	st.w	r10, 4[sp]
 7000d90:	43 cd 08 00 	ld.w	8[sp],r10
 7000d94:	41 45       	add	1, r10
 7000d96:	43 dd 08 00 	st.w	r10, 8[sp]
 7000d9a:	43 c5 02 00 	ld.h	2[sp],r10
 7000d9e:	41 45       	add	1, r10
 7000da0:	43 d5 02 00 	st.h	r10, 2[sp]
 7000da4:	43 c5 02 00 	ld.h	2[sp],r10
 7000da8:	6a b5 ff ff 	andi	65535, r10, r11
 7000dac:	43 c5 0c 00 	ld.h	12[sp],r10
 7000db0:	4a b5 ff ff 	andi	65535, r10, r10
 7000db4:	6a 0d       	cmp	r10, r11
 7000db6:	bc 83       	bc	7000d72 <_copymem+0x16>
 7000db8:	64 44       	add	4, sp
 7000dba:	1f 18       	jmp	[lp]

07000dbc <_setmem>:
 7000dbc:	7c 44       	add	-4, sp
 7000dbe:	c3 dc 04 00 	st.w	r6, 4[sp]
 7000dc2:	67 01       	mov	r7, r11
 7000dc4:	48 01       	mov	r8, r10
 7000dc6:	63 d1 08 00 	st.b	r11, 8[sp]
 7000dca:	43 d5 0c 00 	st.h	r10, 12[sp]
 7000dce:	03 d4 02 00 	st.h	r0, 2[sp]
 7000dd2:	22 8a       	br	7000df4 <_setmem+0x38>
 7000dd4:	43 cd 04 00 	ld.w	4[sp],r10
 7000dd8:	63 c1 08 00 	ld.b	8[sp],r11
 7000ddc:	6a d1 00 00 	st.b	r11, 0[r10]
 7000de0:	43 cd 04 00 	ld.w	4[sp],r10
 7000de4:	41 45       	add	1, r10
 7000de6:	43 dd 04 00 	st.w	r10, 4[sp]
 7000dea:	43 c5 02 00 	ld.h	2[sp],r10
 7000dee:	41 45       	add	1, r10
 7000df0:	43 d5 02 00 	st.h	r10, 2[sp]
 7000df4:	43 c5 02 00 	ld.h	2[sp],r10
 7000df8:	6a b5 ff ff 	andi	65535, r10, r11
 7000dfc:	43 c5 0c 00 	ld.h	12[sp],r10
 7000e00:	4a b5 ff ff 	andi	65535, r10, r10
 7000e04:	6a 0d       	cmp	r10, r11
 7000e06:	ce 83       	bc	7000dd4 <_setmem+0x18>
 7000e08:	64 44       	add	4, sp
 7000e0a:	1f 18       	jmp	[lp]

07000e0c <_addmem>:
 7000e0c:	7c 44       	add	-4, sp
 7000e0e:	c3 dc 04 00 	st.w	r6, 4[sp]
 7000e12:	e3 dc 08 00 	st.w	r7, 8[sp]
 7000e16:	68 01       	mov	r8, r11
 7000e18:	49 01       	mov	r9, r10
 7000e1a:	63 d5 0c 00 	st.h	r11, 12[sp]
 7000e1e:	43 d1 10 00 	st.b	r10, 16[sp]
 7000e22:	03 d4 02 00 	st.h	r0, 2[sp]
 7000e26:	3e 8a       	br	7000e64 <_addmem+0x58>
 7000e28:	43 cd 08 00 	ld.w	8[sp],r10
 7000e2c:	4a c1 00 00 	ld.b	0[r10],r10
 7000e30:	6a b5 ff 00 	andi	255, r10, r11
 7000e34:	43 c1 10 00 	ld.b	16[sp],r10
 7000e38:	4b 05       	add	r11, r10
 7000e3a:	6a b5 ff 00 	andi	255, r10, r11
 7000e3e:	43 cd 04 00 	ld.w	4[sp],r10
 7000e42:	6a d1 00 00 	st.b	r11, 0[r10]
 7000e46:	43 cd 04 00 	ld.w	4[sp],r10
 7000e4a:	41 45       	add	1, r10
 7000e4c:	43 dd 04 00 	st.w	r10, 4[sp]
 7000e50:	43 cd 08 00 	ld.w	8[sp],r10
 7000e54:	41 45       	add	1, r10
 7000e56:	43 dd 08 00 	st.w	r10, 8[sp]
 7000e5a:	43 c5 02 00 	ld.h	2[sp],r10
 7000e5e:	41 45       	add	1, r10
 7000e60:	43 d5 02 00 	st.h	r10, 2[sp]
 7000e64:	43 c5 02 00 	ld.h	2[sp],r10
 7000e68:	6a b5 ff ff 	andi	65535, r10, r11
 7000e6c:	43 c5 0c 00 	ld.h	12[sp],r10
 7000e70:	4a b5 ff ff 	andi	65535, r10, r10
 7000e74:	6a 0d       	cmp	r10, r11
 7000e76:	b2 83       	bc	7000e28 <_addmem+0x1c>
 7000e78:	64 44       	add	4, sp
 7000e7a:	1f 18       	jmp	[lp]

07000e7c <_itoa>:
 7000e7c:	7c 44       	add	-4, sp
 7000e7e:	c3 dc 04 00 	st.w	r6, 4[sp]
 7000e82:	67 01       	mov	r7, r11
 7000e84:	48 01       	mov	r8, r10
 7000e86:	63 d1 08 00 	st.b	r11, 8[sp]
 7000e8a:	43 d1 0c 00 	st.b	r10, 12[sp]
 7000e8e:	03 dc 00 00 	st.w	r0, 0[sp]
 7000e92:	5e 8a       	br	7000ef0 <_itoa+0x74>
 7000e94:	69 41       	mov	9, r11
 7000e96:	43 cd 00 00 	ld.w	0[sp],r10
 7000e9a:	8b 01       	mov	r11, r12
 7000e9c:	8a 09       	sub	r10, r12
 7000e9e:	4c 01       	mov	r12, r10
 7000ea0:	63 c1 08 00 	ld.b	8[sp],r11
 7000ea4:	6b b5 ff 00 	andi	255, r11, r11
 7000ea8:	83 cd 04 00 	ld.w	4[sp],r12
 7000eac:	8b 2d       	divu	r11, r12
 7000eae:	7e 01       	mov	r30, r11
 7000eb0:	80 bd 00 07 	movhi	1792, r0, r12
 7000eb4:	8c a1 3c 41 	movea	16700, r12, r12
 7000eb8:	6c 05       	add	r12, r11
 7000eba:	6b c1 00 00 	ld.b	0[r11],r11
 7000ebe:	78 51       	shl	24, r11
 7000ec0:	78 5d       	sar	24, r11
 7000ec2:	80 bd 00 05 	movhi	1280, r0, r12
 7000ec6:	8c a1 40 00 	movea	64, r12, r12
 7000eca:	4c 05       	add	r12, r10
 7000ecc:	6a d1 00 00 	st.b	r11, 0[r10]
 7000ed0:	43 c1 08 00 	ld.b	8[sp],r10
 7000ed4:	4a b5 ff 00 	andi	255, r10, r10
 7000ed8:	63 cd 04 00 	ld.w	4[sp],r11
 7000edc:	8b 01       	mov	r11, r12
 7000ede:	8a 2d       	divu	r10, r12
 7000ee0:	4c 01       	mov	r12, r10
 7000ee2:	43 dd 04 00 	st.w	r10, 4[sp]
 7000ee6:	43 cd 00 00 	ld.w	0[sp],r10
 7000eea:	41 45       	add	1, r10
 7000eec:	43 dd 00 00 	st.w	r10, 0[sp]
 7000ef0:	43 cd 00 00 	ld.w	0[sp],r10
 7000ef4:	49 4d       	cmp	9, r10
 7000ef6:	9e 8f       	ble	7000e94 <_itoa+0x18>
 7000ef8:	03 dc 00 00 	st.w	r0, 0[sp]
 7000efc:	0c 8a       	br	7000f08 <_itoa+0x8c>
 7000efe:	43 cd 00 00 	ld.w	0[sp],r10
 7000f02:	41 45       	add	1, r10
 7000f04:	43 dd 00 00 	st.w	r10, 0[sp]
 7000f08:	43 cd 00 00 	ld.w	0[sp],r10
 7000f0c:	60 bd 00 05 	movhi	1280, r0, r11
 7000f10:	6b a1 40 00 	movea	64, r11, r11
 7000f14:	4b 05       	add	r11, r10
 7000f16:	4a c1 00 00 	ld.b	0[r10],r10
 7000f1a:	58 51       	shl	24, r10
 7000f1c:	6a 01       	mov	r10, r11
 7000f1e:	78 5d       	sar	24, r11
 7000f20:	40 a1 30 00 	movea	48, r0, r10
 7000f24:	6a 0d       	cmp	r10, r11
 7000f26:	d8 85       	be	7000efe <_itoa+0x82>
 7000f28:	43 c1 0c 00 	ld.b	12[sp],r10
 7000f2c:	4a b5 ff 00 	andi	255, r10, r10
 7000f30:	6a 41       	mov	10, r11
 7000f32:	6a 09       	sub	r10, r11
 7000f34:	43 cd 00 00 	ld.w	0[sp],r10
 7000f38:	6a 0d       	cmp	r10, r11
 7000f3a:	16 9e       	bgt	7000f50 <_itoa+0xd4>
 7000f3c:	43 c1 0c 00 	ld.b	12[sp],r10
 7000f40:	4a b5 ff 00 	andi	255, r10, r10
 7000f44:	6a 41       	mov	10, r11
 7000f46:	8b 01       	mov	r11, r12
 7000f48:	8a 09       	sub	r10, r12
 7000f4a:	4c 01       	mov	r12, r10
 7000f4c:	43 dd 00 00 	st.w	r10, 0[sp]
 7000f50:	40 bd 00 05 	movhi	1280, r0, r10
 7000f54:	4a a1 40 00 	movea	64, r10, r10
 7000f58:	0a d0 0a 00 	st.b	r0, 10[r10]
 7000f5c:	43 cd 00 00 	ld.w	0[sp],r10
 7000f60:	60 bd 00 05 	movhi	1280, r0, r11
 7000f64:	6b a1 40 00 	movea	64, r11, r11
 7000f68:	4b 05       	add	r11, r10
 7000f6a:	64 44       	add	4, sp
 7000f6c:	1f 18       	jmp	[lp]
	...

07000f70 <_cls>:
 7000f70:	63 a4 ec ff 	addi	-20, sp, sp
 7000f74:	e3 df 10 00 	st.w	lp, 16[sp]
 7000f78:	c0 bc 02 00 	movhi	2, r0, r6
 7000f7c:	e0 40       	mov	0, r7
 7000f7e:	00 a1 00 20 	movea	8192, r0, r8
 7000f82:	40 bd 00 07 	movhi	1792, r0, r10
 7000f86:	4a a1 bc 0d 	movea	3516, r10, r10
 7000f8a:	00 ac 04 00 	jal	7000f8e <_cls+0x1e>
 7000f8e:	e4 47       	add	4, lp
 7000f90:	0a 18       	jmp	[r10]
 7000f92:	e3 cf 10 00 	ld.w	16[sp],lp
 7000f96:	63 a4 14 00 	addi	20, sp, sp
 7000f9a:	1f 18       	jmp	[lp]

07000f9c <_vbTextOut>:
 7000f9c:	7c 44       	add	-4, sp
 7000f9e:	86 01       	mov	r6, r12
 7000fa0:	67 01       	mov	r7, r11
 7000fa2:	48 01       	mov	r8, r10
 7000fa4:	23 dd 10 00 	st.w	r9, 16[sp]
 7000fa8:	83 d5 04 00 	st.h	r12, 4[sp]
 7000fac:	63 d5 08 00 	st.h	r11, 8[sp]
 7000fb0:	43 d5 0c 00 	st.h	r10, 12[sp]
 7000fb4:	03 d4 00 00 	st.h	r0, 0[sp]
 7000fb8:	43 c5 0c 00 	ld.h	12[sp],r10
 7000fbc:	46 51       	shl	6, r10
 7000fbe:	6a 01       	mov	r10, r11
 7000fc0:	43 c5 08 00 	ld.h	8[sp],r10
 7000fc4:	4b 05       	add	r11, r10
 7000fc6:	43 d5 02 00 	st.h	r10, 2[sp]
 7000fca:	5c 8a       	br	7001026 <_vbTextOut+0x8a>
 7000fcc:	40 bd 00 07 	movhi	1792, r0, r10
 7000fd0:	4a a1 6c 40 	movea	16492, r10, r10
 7000fd4:	6a cd 00 00 	ld.w	0[r10],r11
 7000fd8:	43 c5 04 00 	ld.h	4[sp],r10
 7000fdc:	4a b5 ff ff 	andi	65535, r10, r10
 7000fe0:	4c 51       	shl	12, r10
 7000fe2:	83 c5 02 00 	ld.h	2[sp],r12
 7000fe6:	8c b5 ff ff 	andi	65535, r12, r12
 7000fea:	8a 05       	add	r10, r12
 7000fec:	43 c5 00 00 	ld.h	0[sp],r10
 7000ff0:	4a b5 ff ff 	andi	65535, r10, r10
 7000ff4:	4c 05       	add	r12, r10
 7000ff6:	4a 05       	add	r10, r10
 7000ff8:	4b 05       	add	r11, r10
 7000ffa:	63 c5 00 00 	ld.h	0[sp],r11
 7000ffe:	6b b5 ff ff 	andi	65535, r11, r11
 7001002:	83 cd 10 00 	ld.w	16[sp],r12
 7001006:	6c 05       	add	r12, r11
 7001008:	6b c1 00 00 	ld.b	0[r11],r11
 700100c:	78 51       	shl	24, r11
 700100e:	78 5d       	sar	24, r11
 7001010:	6b a5 00 06 	addi	1536, r11, r11
 7001014:	6b b5 ff ff 	andi	65535, r11, r11
 7001018:	6a d5 00 00 	st.h	r11, 0[r10]
 700101c:	43 c5 00 00 	ld.h	0[sp],r10
 7001020:	41 45       	add	1, r10
 7001022:	43 d5 00 00 	st.h	r10, 0[sp]
 7001026:	43 c5 00 00 	ld.h	0[sp],r10
 700102a:	4a b5 ff ff 	andi	65535, r10, r10
 700102e:	63 cd 10 00 	ld.w	16[sp],r11
 7001032:	4b 05       	add	r11, r10
 7001034:	4a c1 00 00 	ld.b	0[r10],r10
 7001038:	58 51       	shl	24, r10
 700103a:	58 5d       	sar	24, r10
 700103c:	40 0d       	cmp	r0, r10
 700103e:	8e 95       	bne	7000fcc <_vbTextOut+0x30>
 7001040:	64 44       	add	4, sp
 7001042:	1f 18       	jmp	[lp]

07001044 <_vbPrint>:
 7001044:	74 44       	add	-12, sp
 7001046:	a6 01       	mov	r6, r13
 7001048:	87 01       	mov	r7, r12
 700104a:	68 01       	mov	r8, r11
 700104c:	23 dd 18 00 	st.w	r9, 24[sp]
 7001050:	43 cd 1c 00 	ld.w	28[sp],r10
 7001054:	a3 d1 0c 00 	st.b	r13, 12[sp]
 7001058:	83 d5 10 00 	st.h	r12, 16[sp]
 700105c:	63 d5 14 00 	st.h	r11, 20[sp]
 7001060:	43 d5 00 00 	st.h	r10, 0[sp]
 7001064:	03 d4 06 00 	st.h	r0, 6[sp]
 7001068:	03 d4 08 00 	st.h	r0, 8[sp]
 700106c:	43 c5 10 00 	ld.h	16[sp],r10
 7001070:	43 d5 0a 00 	st.h	r10, 10[sp]
 7001074:	00 a8 24 01 	jr	7001198 <_vbPrint+0x154>
 7001078:	43 c5 14 00 	ld.h	20[sp],r10
 700107c:	46 51       	shl	6, r10
 700107e:	6a 01       	mov	r10, r11
 7001080:	43 c5 10 00 	ld.h	16[sp],r10
 7001084:	4b 05       	add	r11, r10
 7001086:	43 d5 08 00 	st.h	r10, 8[sp]
 700108a:	43 c5 06 00 	ld.h	6[sp],r10
 700108e:	4a b5 ff ff 	andi	65535, r10, r10
 7001092:	63 cd 18 00 	ld.w	24[sp],r11
 7001096:	4b 05       	add	r11, r10
 7001098:	4a c1 00 00 	ld.b	0[r10],r10
 700109c:	58 51       	shl	24, r10
 700109e:	8a 01       	mov	r10, r12
 70010a0:	98 5d       	sar	24, r12
 70010a2:	47 41       	mov	7, r10
 70010a4:	66 41       	mov	6, r11
 70010a6:	ac 01       	mov	r12, r13
 70010a8:	aa 09       	sub	r10, r13
 70010aa:	4d 01       	mov	r13, r10
 70010ac:	4b 0d       	cmp	r11, r10
 70010ae:	54 96       	bh	7001102 <_vbPrint+0xbe>
 70010b0:	41 51       	shl	1, r10
 70010b2:	60 bd 00 07 	movhi	1792, r0, r11
 70010b6:	6b a1 c8 10 	movea	4296, r11, r11
 70010ba:	4b 05       	add	r11, r10
 70010bc:	4a c5 00 00 	ld.h	0[r10],r10
 70010c0:	50 51       	shl	16, r10
 70010c2:	50 5d       	sar	16, r10
 70010c4:	4b 05       	add	r11, r10
 70010c6:	0a 18       	jmp	[r10]
 70010c8:	c4 00       	mov	gp, r6
 70010ca:	3a 00       	mov	r26, r1
 70010cc:	0e 00       	mov	r14, r0
 70010ce:	26 00       	mov	r6, r1
 70010d0:	3a 00       	mov	r26, r1
 70010d2:	3a 00       	mov	r26, r1
 70010d4:	c4 00       	mov	gp, r6
 70010d6:	43 c5 10 00 	ld.h	16[sp],r10
 70010da:	4a b5 ff ff 	andi	65535, r10, r10
 70010de:	42 55       	shr	2, r10
 70010e0:	4a b5 ff ff 	andi	65535, r10, r10
 70010e4:	41 45       	add	1, r10
 70010e6:	42 51       	shl	2, r10
 70010e8:	43 d5 10 00 	st.h	r10, 16[sp]
 70010ec:	a2 8a       	br	700118e <_vbPrint+0x14a>
 70010ee:	43 c5 14 00 	ld.h	20[sp],r10
 70010f2:	41 45       	add	1, r10
 70010f4:	43 d5 14 00 	st.h	r10, 20[sp]
 70010f8:	43 c5 0a 00 	ld.h	10[sp],r10
 70010fc:	43 d5 10 00 	st.h	r10, 16[sp]
 7001100:	8e 8a       	br	700118e <_vbPrint+0x14a>
 7001102:	40 bd 00 07 	movhi	1792, r0, r10
 7001106:	4a a1 6c 40 	movea	16492, r10, r10
 700110a:	6a cd 00 00 	ld.w	0[r10],r11
 700110e:	43 c1 0c 00 	ld.b	12[sp],r10
 7001112:	4a b5 ff 00 	andi	255, r10, r10
 7001116:	4c 51       	shl	12, r10
 7001118:	83 c5 08 00 	ld.h	8[sp],r12
 700111c:	8c b5 ff ff 	andi	65535, r12, r12
 7001120:	4c 05       	add	r12, r10
 7001122:	4a 05       	add	r10, r10
 7001124:	6a 05       	add	r10, r11
 7001126:	43 c5 06 00 	ld.h	6[sp],r10
 700112a:	4a b5 ff ff 	andi	65535, r10, r10
 700112e:	83 cd 18 00 	ld.w	24[sp],r12
 7001132:	4c 05       	add	r12, r10
 7001134:	4a c1 00 00 	ld.b	0[r10],r10
 7001138:	58 51       	shl	24, r10
 700113a:	8a 01       	mov	r10, r12
 700113c:	98 5d       	sar	24, r12
 700113e:	43 c5 00 00 	ld.h	0[sp],r10
 7001142:	4a b5 ff ff 	andi	65535, r10, r10
 7001146:	4e 51       	shl	14, r10
 7001148:	8c a5 00 07 	addi	1792, r12, r12
 700114c:	4c 31       	or	r12, r10
 700114e:	4a b5 ff ff 	andi	65535, r10, r10
 7001152:	4b d5 00 00 	st.h	r10, 0[r11]
 7001156:	43 c5 10 00 	ld.h	16[sp],r10
 700115a:	6a b5 ff ff 	andi	65535, r10, r11
 700115e:	40 a1 3f 00 	movea	63, r0, r10
 7001162:	6a 0d       	cmp	r10, r11
 7001164:	4b 49       	setf	h, r10
 7001166:	4a b5 ff 00 	andi	255, r10, r10
 700116a:	63 c5 10 00 	ld.h	16[sp],r11
 700116e:	61 45       	add	1, r11
 7001170:	63 d5 10 00 	st.h	r11, 16[sp]
 7001174:	40 0d       	cmp	r0, r10
 7001176:	18 84       	be	700118e <_vbPrint+0x14a>
 7001178:	43 c5 0a 00 	ld.h	10[sp],r10
 700117c:	43 d5 10 00 	st.h	r10, 16[sp]
 7001180:	43 c5 14 00 	ld.h	20[sp],r10
 7001184:	41 45       	add	1, r10
 7001186:	43 d5 14 00 	st.h	r10, 20[sp]
 700118a:	04 8a       	br	700118e <_vbPrint+0x14a>
 700118c:	00 9a       	nop	
 700118e:	43 c5 06 00 	ld.h	6[sp],r10
 7001192:	41 45       	add	1, r10
 7001194:	43 d5 06 00 	st.h	r10, 6[sp]
 7001198:	43 c5 06 00 	ld.h	6[sp],r10
 700119c:	4a b5 ff ff 	andi	65535, r10, r10
 70011a0:	63 cd 18 00 	ld.w	24[sp],r11
 70011a4:	4b 05       	add	r11, r10
 70011a6:	4a c1 00 00 	ld.b	0[r10],r10
 70011aa:	58 51       	shl	24, r10
 70011ac:	58 5d       	sar	24, r10
 70011ae:	40 0d       	cmp	r0, r10
 70011b0:	06 84       	be	70011b6 <_vbPrint+0x172>
 70011b2:	ff ab c6 fe 	jr	7001078 <_vbPrint+0x34>
 70011b6:	6c 44       	add	12, sp
 70011b8:	1f 18       	jmp	[lp]
	...

070011bc <_vbSetObject>:
 70011bc:	78 44       	add	-8, sp
 70011be:	e6 01       	mov	r6, r15
 70011c0:	c7 01       	mov	r7, r14
 70011c2:	a8 01       	mov	r8, r13
 70011c4:	89 01       	mov	r9, r12
 70011c6:	63 cd 18 00 	ld.w	24[sp],r11
 70011ca:	43 cd 1c 00 	ld.w	28[sp],r10
 70011ce:	e3 d5 08 00 	st.h	r15, 8[sp]
 70011d2:	c3 d1 0c 00 	st.b	r14, 12[sp]
 70011d6:	a3 d5 10 00 	st.h	r13, 16[sp]
 70011da:	83 d5 14 00 	st.h	r12, 20[sp]
 70011de:	63 d5 04 00 	st.h	r11, 4[sp]
 70011e2:	43 d5 00 00 	st.h	r10, 0[sp]
 70011e6:	43 c5 08 00 	ld.h	8[sp],r10
 70011ea:	42 51       	shl	2, r10
 70011ec:	43 d5 08 00 	st.h	r10, 8[sp]
 70011f0:	40 bd 00 07 	movhi	1792, r0, r10
 70011f4:	4a a1 78 40 	movea	16504, r10, r10
 70011f8:	6a cd 00 00 	ld.w	0[r10],r11
 70011fc:	43 c5 08 00 	ld.h	8[sp],r10
 7001200:	4a b5 ff ff 	andi	65535, r10, r10
 7001204:	4a 05       	add	r10, r10
 7001206:	4b 05       	add	r11, r10
 7001208:	63 c5 10 00 	ld.h	16[sp],r11
 700120c:	6b b5 ff ff 	andi	65535, r11, r11
 7001210:	6a d5 00 00 	st.h	r11, 0[r10]
 7001214:	40 bd 00 07 	movhi	1792, r0, r10
 7001218:	4a a1 78 40 	movea	16504, r10, r10
 700121c:	6a cd 00 00 	ld.w	0[r10],r11
 7001220:	43 c5 08 00 	ld.h	8[sp],r10
 7001224:	4a b5 ff ff 	andi	65535, r10, r10
 7001228:	41 45       	add	1, r10
 700122a:	4a 05       	add	r10, r10
 700122c:	6a 05       	add	r10, r11
 700122e:	43 c1 0c 00 	ld.b	12[sp],r10
 7001232:	4a b5 ff 00 	andi	255, r10, r10
 7001236:	48 51       	shl	8, r10
 7001238:	8a 01       	mov	r10, r12
 700123a:	43 c5 14 00 	ld.h	20[sp],r10
 700123e:	4c 31       	or	r12, r10
 7001240:	4a b5 ff ff 	andi	65535, r10, r10
 7001244:	4b d5 00 00 	st.h	r10, 0[r11]
 7001248:	40 bd 00 07 	movhi	1792, r0, r10
 700124c:	4a a1 78 40 	movea	16504, r10, r10
 7001250:	6a cd 00 00 	ld.w	0[r10],r11
 7001254:	43 c5 08 00 	ld.h	8[sp],r10
 7001258:	4a b5 ff ff 	andi	65535, r10, r10
 700125c:	42 45       	add	2, r10
 700125e:	4a 05       	add	r10, r10
 7001260:	4b 05       	add	r11, r10
 7001262:	63 c5 04 00 	ld.h	4[sp],r11
 7001266:	6b b5 ff ff 	andi	65535, r11, r11
 700126a:	6a d5 00 00 	st.h	r11, 0[r10]
 700126e:	40 bd 00 07 	movhi	1792, r0, r10
 7001272:	4a a1 78 40 	movea	16504, r10, r10
 7001276:	6a cd 00 00 	ld.w	0[r10],r11
 700127a:	43 c5 08 00 	ld.h	8[sp],r10
 700127e:	4a b5 ff ff 	andi	65535, r10, r10
 7001282:	43 45       	add	3, r10
 7001284:	4a 05       	add	r10, r10
 7001286:	6a 05       	add	r10, r11
 7001288:	43 c1 0c 00 	ld.b	12[sp],r10
 700128c:	4a b5 ff 00 	andi	255, r10, r10
 7001290:	4a b5 3c 00 	andi	60, r10, r10
 7001294:	8a 01       	mov	r10, r12
 7001296:	8a 51       	shl	10, r12
 7001298:	43 c5 00 00 	ld.h	0[sp],r10
 700129c:	4a b5 ff 07 	andi	2047, r10, r10
 70012a0:	4c 31       	or	r12, r10
 70012a2:	4a b5 ff ff 	andi	65535, r10, r10
 70012a6:	4b d5 00 00 	st.h	r10, 0[r11]
 70012aa:	68 44       	add	8, sp
 70012ac:	1f 18       	jmp	[lp]
	...

070012b0 <_randseed>:
 70012b0:	70 44       	add	-16, sp
 70012b2:	41 41       	mov	1, r10
 70012b4:	43 dd 00 00 	st.w	r10, 0[sp]
 70012b8:	03 dc 08 00 	st.w	r0, 8[sp]
 70012bc:	41 41       	mov	1, r10
 70012be:	43 dd 0c 00 	st.w	r10, 12[sp]
 70012c2:	72 8a       	br	7001334 <_randseed+0x84>
 70012c4:	40 bd 00 05 	movhi	1280, r0, r10
 70012c8:	4a a1 00 00 	movea	0, r10, r10
 70012cc:	4a cd 00 00 	ld.w	0[r10],r10
 70012d0:	4a a5 30 00 	addi	48, r10, r10
 70012d4:	4a c5 00 00 	ld.h	0[r10],r10
 70012d8:	4a b5 ff ff 	andi	65535, r10, r10
 70012dc:	43 dd 04 00 	st.w	r10, 4[sp]
 70012e0:	43 cd 00 00 	ld.w	0[sp],r10
 70012e4:	40 0d       	cmp	r0, r10
 70012e6:	08 94       	bne	70012ee <_randseed+0x3e>
 70012e8:	41 41       	mov	1, r10
 70012ea:	43 dd 00 00 	st.w	r10, 0[sp]
 70012ee:	63 cd 04 00 	ld.w	4[sp],r11
 70012f2:	43 cd 0c 00 	ld.w	12[sp],r10
 70012f6:	6a 21       	mul	r10, r11
 70012f8:	83 cd 0c 00 	ld.w	12[sp],r12
 70012fc:	43 cd 00 00 	ld.w	0[sp],r10
 7001300:	8a 25       	div	r10, r12
 7001302:	5e 01       	mov	r30, r10
 7001304:	4b 05       	add	r11, r10
 7001306:	63 cd 00 00 	ld.w	0[sp],r11
 700130a:	4b 05       	add	r11, r10
 700130c:	43 dd 00 00 	st.w	r10, 0[sp]
 7001310:	63 cd 04 00 	ld.w	4[sp],r11
 7001314:	43 cd 08 00 	ld.w	8[sp],r10
 7001318:	6a 0d       	cmp	r10, r11
 700131a:	0e 94       	bne	7001328 <_randseed+0x78>
 700131c:	43 cd 0c 00 	ld.w	12[sp],r10
 7001320:	41 45       	add	1, r10
 7001322:	43 dd 0c 00 	st.w	r10, 12[sp]
 7001326:	06 8a       	br	700132c <_randseed+0x7c>
 7001328:	03 dc 0c 00 	st.w	r0, 12[sp]
 700132c:	43 cd 04 00 	ld.w	4[sp],r10
 7001330:	43 dd 08 00 	st.w	r10, 8[sp]
 7001334:	63 cd 0c 00 	ld.w	12[sp],r11
 7001338:	40 a1 2f 75 	movea	29999, r0, r10
 700133c:	6a 0d       	cmp	r10, r11
 700133e:	86 8f       	ble	70012c4 <_randseed+0x14>
 7001340:	43 cd 00 00 	ld.w	0[sp],r10
 7001344:	63 a4 10 00 	addi	16, sp, sp
 7001348:	1f 18       	jmp	[lp]
	...

0700134c <_randnum>:
 700134c:	c3 dc 00 00 	st.w	r6, 0[sp]
 7001350:	e3 dc 04 00 	st.w	r7, 4[sp]
 7001354:	63 cd 00 00 	ld.w	0[sp],r11
 7001358:	43 cd 04 00 	ld.w	4[sp],r10
 700135c:	6a 25       	div	r10, r11
 700135e:	5e 01       	mov	r30, r10
 7001360:	1f 18       	jmp	[lp]
	...

07001364 <_vbSetWorld>:
 7001364:	63 a4 e4 ff 	addi	-28, sp, sp
 7001368:	66 02       	mov	r6, r19
 700136a:	47 02       	mov	r7, r18
 700136c:	28 02       	mov	r8, r17
 700136e:	09 02       	mov	r9, r16
 7001370:	e3 cd 2c 00 	ld.w	44[sp],r15
 7001374:	c3 cd 30 00 	ld.w	48[sp],r14
 7001378:	a3 cd 34 00 	ld.w	52[sp],r13
 700137c:	83 cd 38 00 	ld.w	56[sp],r12
 7001380:	63 cd 3c 00 	ld.w	60[sp],r11
 7001384:	43 cd 40 00 	ld.w	64[sp],r10
 7001388:	63 d6 1c 00 	st.h	r19, 28[sp]
 700138c:	43 d6 20 00 	st.h	r18, 32[sp]
 7001390:	23 d6 24 00 	st.h	r17, 36[sp]
 7001394:	03 d6 28 00 	st.h	r16, 40[sp]
 7001398:	e3 d5 14 00 	st.h	r15, 20[sp]
 700139c:	c3 d5 10 00 	st.h	r14, 16[sp]
 70013a0:	a3 d5 0c 00 	st.h	r13, 12[sp]
 70013a4:	83 d5 08 00 	st.h	r12, 8[sp]
 70013a8:	63 d5 04 00 	st.h	r11, 4[sp]
 70013ac:	43 d5 00 00 	st.h	r10, 0[sp]
 70013b0:	43 c5 1c 00 	ld.h	28[sp],r10
 70013b4:	44 51       	shl	4, r10
 70013b6:	43 d5 1a 00 	st.h	r10, 26[sp]
 70013ba:	40 bd 00 07 	movhi	1792, r0, r10
 70013be:	4a a1 70 40 	movea	16496, r10, r10
 70013c2:	6a cd 00 00 	ld.w	0[r10],r11
 70013c6:	43 c5 1a 00 	ld.h	26[sp],r10
 70013ca:	4a b5 ff ff 	andi	65535, r10, r10
 70013ce:	4a 05       	add	r10, r10
 70013d0:	4b 05       	add	r11, r10
 70013d2:	63 c5 20 00 	ld.h	32[sp],r11
 70013d6:	6a d5 00 00 	st.h	r11, 0[r10]
 70013da:	43 c5 1a 00 	ld.h	26[sp],r10
 70013de:	41 45       	add	1, r10
 70013e0:	43 d5 1a 00 	st.h	r10, 26[sp]
 70013e4:	40 bd 00 07 	movhi	1792, r0, r10
 70013e8:	4a a1 70 40 	movea	16496, r10, r10
 70013ec:	6a cd 00 00 	ld.w	0[r10],r11
 70013f0:	43 c5 1a 00 	ld.h	26[sp],r10
 70013f4:	4a b5 ff ff 	andi	65535, r10, r10
 70013f8:	4a 05       	add	r10, r10
 70013fa:	4b 05       	add	r11, r10
 70013fc:	63 c5 24 00 	ld.h	36[sp],r11
 7001400:	6a d5 00 00 	st.h	r11, 0[r10]
 7001404:	43 c5 1a 00 	ld.h	26[sp],r10
 7001408:	41 45       	add	1, r10
 700140a:	43 d5 1a 00 	st.h	r10, 26[sp]
 700140e:	40 bd 00 07 	movhi	1792, r0, r10
 7001412:	4a a1 70 40 	movea	16496, r10, r10
 7001416:	6a cd 00 00 	ld.w	0[r10],r11
 700141a:	43 c5 1a 00 	ld.h	26[sp],r10
 700141e:	4a b5 ff ff 	andi	65535, r10, r10
 7001422:	4a 05       	add	r10, r10
 7001424:	4b 05       	add	r11, r10
 7001426:	63 c5 28 00 	ld.h	40[sp],r11
 700142a:	6b b5 ff ff 	andi	65535, r11, r11
 700142e:	6a d5 00 00 	st.h	r11, 0[r10]
 7001432:	43 c5 1a 00 	ld.h	26[sp],r10
 7001436:	41 45       	add	1, r10
 7001438:	43 d5 1a 00 	st.h	r10, 26[sp]
 700143c:	40 bd 00 07 	movhi	1792, r0, r10
 7001440:	4a a1 70 40 	movea	16496, r10, r10
 7001444:	6a cd 00 00 	ld.w	0[r10],r11
 7001448:	43 c5 1a 00 	ld.h	26[sp],r10
 700144c:	4a b5 ff ff 	andi	65535, r10, r10
 7001450:	4a 05       	add	r10, r10
 7001452:	4b 05       	add	r11, r10
 7001454:	63 c5 14 00 	ld.h	20[sp],r11
 7001458:	6a d5 00 00 	st.h	r11, 0[r10]
 700145c:	43 c5 1a 00 	ld.h	26[sp],r10
 7001460:	41 45       	add	1, r10
 7001462:	43 d5 1a 00 	st.h	r10, 26[sp]
 7001466:	40 bd 00 07 	movhi	1792, r0, r10
 700146a:	4a a1 70 40 	movea	16496, r10, r10
 700146e:	6a cd 00 00 	ld.w	0[r10],r11
 7001472:	43 c5 1a 00 	ld.h	26[sp],r10
 7001476:	4a b5 ff ff 	andi	65535, r10, r10
 700147a:	4a 05       	add	r10, r10
 700147c:	4b 05       	add	r11, r10
 700147e:	63 c5 10 00 	ld.h	16[sp],r11
 7001482:	6a d5 00 00 	st.h	r11, 0[r10]
 7001486:	43 c5 1a 00 	ld.h	26[sp],r10
 700148a:	41 45       	add	1, r10
 700148c:	43 d5 1a 00 	st.h	r10, 26[sp]
 7001490:	40 bd 00 07 	movhi	1792, r0, r10
 7001494:	4a a1 70 40 	movea	16496, r10, r10
 7001498:	6a cd 00 00 	ld.w	0[r10],r11
 700149c:	43 c5 1a 00 	ld.h	26[sp],r10
 70014a0:	4a b5 ff ff 	andi	65535, r10, r10
 70014a4:	4a 05       	add	r10, r10
 70014a6:	4b 05       	add	r11, r10
 70014a8:	63 c5 0c 00 	ld.h	12[sp],r11
 70014ac:	6b b5 ff ff 	andi	65535, r11, r11
 70014b0:	6a d5 00 00 	st.h	r11, 0[r10]
 70014b4:	43 c5 1a 00 	ld.h	26[sp],r10
 70014b8:	41 45       	add	1, r10
 70014ba:	43 d5 1a 00 	st.h	r10, 26[sp]
 70014be:	40 bd 00 07 	movhi	1792, r0, r10
 70014c2:	4a a1 70 40 	movea	16496, r10, r10
 70014c6:	6a cd 00 00 	ld.w	0[r10],r11
 70014ca:	43 c5 1a 00 	ld.h	26[sp],r10
 70014ce:	4a b5 ff ff 	andi	65535, r10, r10
 70014d2:	4a 05       	add	r10, r10
 70014d4:	4b 05       	add	r11, r10
 70014d6:	63 c5 08 00 	ld.h	8[sp],r11
 70014da:	6a d5 00 00 	st.h	r11, 0[r10]
 70014de:	43 c5 1a 00 	ld.h	26[sp],r10
 70014e2:	41 45       	add	1, r10
 70014e4:	43 d5 1a 00 	st.h	r10, 26[sp]
 70014e8:	40 bd 00 07 	movhi	1792, r0, r10
 70014ec:	4a a1 70 40 	movea	16496, r10, r10
 70014f0:	6a cd 00 00 	ld.w	0[r10],r11
 70014f4:	43 c5 1a 00 	ld.h	26[sp],r10
 70014f8:	4a b5 ff ff 	andi	65535, r10, r10
 70014fc:	4a 05       	add	r10, r10
 70014fe:	4b 05       	add	r11, r10
 7001500:	63 c5 04 00 	ld.h	4[sp],r11
 7001504:	6a d5 00 00 	st.h	r11, 0[r10]
 7001508:	43 c5 1a 00 	ld.h	26[sp],r10
 700150c:	41 45       	add	1, r10
 700150e:	43 d5 1a 00 	st.h	r10, 26[sp]
 7001512:	40 bd 00 07 	movhi	1792, r0, r10
 7001516:	4a a1 70 40 	movea	16496, r10, r10
 700151a:	6a cd 00 00 	ld.w	0[r10],r11
 700151e:	43 c5 1a 00 	ld.h	26[sp],r10
 7001522:	4a b5 ff ff 	andi	65535, r10, r10
 7001526:	4a 05       	add	r10, r10
 7001528:	4b 05       	add	r11, r10
 700152a:	63 c5 00 00 	ld.h	0[sp],r11
 700152e:	6a d5 00 00 	st.h	r11, 0[r10]
 7001532:	63 a4 1c 00 	addi	28, sp, sp
 7001536:	1f 18       	jmp	[lp]

07001538 <_timer_enable>:
 7001538:	c3 dc 00 00 	st.w	r6, 0[sp]
 700153c:	43 cd 00 00 	ld.w	0[sp],r10
 7001540:	40 0d       	cmp	r0, r10
 7001542:	28 84       	be	700156a <_timer_enable+0x32>
 7001544:	40 bd 00 05 	movhi	1280, r0, r10
 7001548:	4a a1 10 00 	movea	16, r10, r10
 700154c:	4a c1 00 00 	ld.b	0[r10],r10
 7001550:	4a b5 ff 00 	andi	255, r10, r10
 7001554:	4a b1 01 00 	ori	1, r10, r10
 7001558:	6a b5 ff 00 	andi	255, r10, r11
 700155c:	40 bd 00 05 	movhi	1280, r0, r10
 7001560:	4a a1 10 00 	movea	16, r10, r10
 7001564:	6a d1 00 00 	st.b	r11, 0[r10]
 7001568:	22 8a       	br	700158a <_timer_enable+0x52>
 700156a:	40 bd 00 05 	movhi	1280, r0, r10
 700156e:	4a a1 10 00 	movea	16, r10, r10
 7001572:	4a c1 00 00 	ld.b	0[r10],r10
 7001576:	4a b5 ff 00 	andi	255, r10, r10
 700157a:	4a b5 fe 00 	andi	254, r10, r10
 700157e:	60 bd 00 05 	movhi	1280, r0, r11
 7001582:	6b a1 10 00 	movea	16, r11, r11
 7001586:	4b d1 00 00 	st.b	r10, 0[r11]
 700158a:	40 bd 00 07 	movhi	1792, r0, r10
 700158e:	4a a1 2c 41 	movea	16684, r10, r10
 7001592:	4a cd 00 00 	ld.w	0[r10],r10
 7001596:	4a a5 20 00 	addi	32, r10, r10
 700159a:	60 bd 00 05 	movhi	1280, r0, r11
 700159e:	6b a1 10 00 	movea	16, r11, r11
 70015a2:	6b c1 00 00 	ld.b	0[r11],r11
 70015a6:	6b b5 ff 00 	andi	255, r11, r11
 70015aa:	6a d1 00 00 	st.b	r11, 0[r10]
 70015ae:	1f 18       	jmp	[lp]

070015b0 <_timer_get>:
 70015b0:	40 bd 00 07 	movhi	1792, r0, r10
 70015b4:	4a a1 2c 41 	movea	16684, r10, r10
 70015b8:	4a cd 00 00 	ld.w	0[r10],r10
 70015bc:	4a c1 18 00 	ld.b	24[r10],r10
 70015c0:	6a b5 ff 00 	andi	255, r10, r11
 70015c4:	40 bd 00 07 	movhi	1792, r0, r10
 70015c8:	4a a1 2c 41 	movea	16684, r10, r10
 70015cc:	4a cd 00 00 	ld.w	0[r10],r10
 70015d0:	4a c1 1c 00 	ld.b	28[r10],r10
 70015d4:	4a b5 ff 00 	andi	255, r10, r10
 70015d8:	48 51       	shl	8, r10
 70015da:	4b 31       	or	r11, r10
 70015dc:	4a b5 ff ff 	andi	65535, r10, r10
 70015e0:	1f 18       	jmp	[lp]
	...

070015e4 <_timer_set>:
 70015e4:	46 01       	mov	r6, r10
 70015e6:	43 d5 00 00 	st.h	r10, 0[sp]
 70015ea:	40 bd 00 07 	movhi	1792, r0, r10
 70015ee:	4a a1 2c 41 	movea	16684, r10, r10
 70015f2:	4a cd 00 00 	ld.w	0[r10],r10
 70015f6:	4a a5 18 00 	addi	24, r10, r10
 70015fa:	63 c5 00 00 	ld.h	0[sp],r11
 70015fe:	6b b5 ff 00 	andi	255, r11, r11
 7001602:	6a d1 00 00 	st.b	r11, 0[r10]
 7001606:	40 bd 00 07 	movhi	1792, r0, r10
 700160a:	4a a1 2c 41 	movea	16684, r10, r10
 700160e:	4a cd 00 00 	ld.w	0[r10],r10
 7001612:	4a a5 1c 00 	addi	28, r10, r10
 7001616:	63 c5 00 00 	ld.h	0[sp],r11
 700161a:	6b b5 ff ff 	andi	65535, r11, r11
 700161e:	68 55       	shr	8, r11
 7001620:	6b b5 ff 00 	andi	255, r11, r11
 7001624:	6a d1 00 00 	st.b	r11, 0[r10]
 7001628:	1f 18       	jmp	[lp]
	...

0700162c <_timer_freq>:
 700162c:	c3 dc 00 00 	st.w	r6, 0[sp]
 7001630:	43 cd 00 00 	ld.w	0[sp],r10
 7001634:	40 0d       	cmp	r0, r10
 7001636:	28 84       	be	700165e <_timer_freq+0x32>
 7001638:	40 bd 00 05 	movhi	1280, r0, r10
 700163c:	4a a1 10 00 	movea	16, r10, r10
 7001640:	4a c1 00 00 	ld.b	0[r10],r10
 7001644:	4a b5 ff 00 	andi	255, r10, r10
 7001648:	4a b1 10 00 	ori	16, r10, r10
 700164c:	6a b5 ff 00 	andi	255, r10, r11
 7001650:	40 bd 00 05 	movhi	1280, r0, r10
 7001654:	4a a1 10 00 	movea	16, r10, r10
 7001658:	6a d1 00 00 	st.b	r11, 0[r10]
 700165c:	22 8a       	br	700167e <_timer_freq+0x52>
 700165e:	40 bd 00 05 	movhi	1280, r0, r10
 7001662:	4a a1 10 00 	movea	16, r10, r10
 7001666:	4a c1 00 00 	ld.b	0[r10],r10
 700166a:	4a b5 ff 00 	andi	255, r10, r10
 700166e:	4a b5 ef 00 	andi	239, r10, r10
 7001672:	60 bd 00 05 	movhi	1280, r0, r11
 7001676:	6b a1 10 00 	movea	16, r11, r11
 700167a:	4b d1 00 00 	st.b	r10, 0[r11]
 700167e:	40 bd 00 07 	movhi	1792, r0, r10
 7001682:	4a a1 2c 41 	movea	16684, r10, r10
 7001686:	4a cd 00 00 	ld.w	0[r10],r10
 700168a:	4a a5 20 00 	addi	32, r10, r10
 700168e:	60 bd 00 05 	movhi	1280, r0, r11
 7001692:	6b a1 10 00 	movea	16, r11, r11
 7001696:	6b c1 00 00 	ld.b	0[r11],r11
 700169a:	6b b5 ff 00 	andi	255, r11, r11
 700169e:	6a d1 00 00 	st.b	r11, 0[r10]
 70016a2:	1f 18       	jmp	[lp]

070016a4 <_timer_int>:
 70016a4:	c3 dc 00 00 	st.w	r6, 0[sp]
 70016a8:	43 cd 00 00 	ld.w	0[sp],r10
 70016ac:	40 0d       	cmp	r0, r10
 70016ae:	28 84       	be	70016d6 <_timer_int+0x32>
 70016b0:	40 bd 00 05 	movhi	1280, r0, r10
 70016b4:	4a a1 10 00 	movea	16, r10, r10
 70016b8:	4a c1 00 00 	ld.b	0[r10],r10
 70016bc:	4a b5 ff 00 	andi	255, r10, r10
 70016c0:	4a b1 08 00 	ori	8, r10, r10
 70016c4:	6a b5 ff 00 	andi	255, r10, r11
 70016c8:	40 bd 00 05 	movhi	1280, r0, r10
 70016cc:	4a a1 10 00 	movea	16, r10, r10
 70016d0:	6a d1 00 00 	st.b	r11, 0[r10]
 70016d4:	22 8a       	br	70016f6 <_timer_int+0x52>
 70016d6:	40 bd 00 05 	movhi	1280, r0, r10
 70016da:	4a a1 10 00 	movea	16, r10, r10
 70016de:	4a c1 00 00 	ld.b	0[r10],r10
 70016e2:	4a b5 ff 00 	andi	255, r10, r10
 70016e6:	4a b5 f7 00 	andi	247, r10, r10
 70016ea:	60 bd 00 05 	movhi	1280, r0, r11
 70016ee:	6b a1 10 00 	movea	16, r11, r11
 70016f2:	4b d1 00 00 	st.b	r10, 0[r11]
 70016f6:	40 bd 00 07 	movhi	1792, r0, r10
 70016fa:	4a a1 2c 41 	movea	16684, r10, r10
 70016fe:	4a cd 00 00 	ld.w	0[r10],r10
 7001702:	4a a5 20 00 	addi	32, r10, r10
 7001706:	60 bd 00 05 	movhi	1280, r0, r11
 700170a:	6b a1 10 00 	movea	16, r11, r11
 700170e:	6b c1 00 00 	ld.b	0[r11],r11
 7001712:	6b b5 ff 00 	andi	255, r11, r11
 7001716:	6a d1 00 00 	st.b	r11, 0[r10]
 700171a:	1f 18       	jmp	[lp]

0700171c <_timer_getstat>:
 700171c:	40 bd 00 07 	movhi	1792, r0, r10
 7001720:	4a a1 2c 41 	movea	16684, r10, r10
 7001724:	4a cd 00 00 	ld.w	0[r10],r10
 7001728:	4a c1 20 00 	ld.b	32[r10],r10
 700172c:	4a b5 ff 00 	andi	255, r10, r10
 7001730:	4a b5 02 00 	andi	2, r10, r10
 7001734:	40 0d       	cmp	r0, r10
 7001736:	4a 49       	setf	nz, r10
 7001738:	1f 18       	jmp	[lp]
	...

0700173c <_timer_clearstat>:
 700173c:	40 bd 00 07 	movhi	1792, r0, r10
 7001740:	4a a1 2c 41 	movea	16684, r10, r10
 7001744:	4a cd 00 00 	ld.w	0[r10],r10
 7001748:	4a a5 20 00 	addi	32, r10, r10
 700174c:	60 bd 00 05 	movhi	1280, r0, r11
 7001750:	6b a1 10 00 	movea	16, r11, r11
 7001754:	6b c1 00 00 	ld.b	0[r11],r11
 7001758:	6b b5 ff 00 	andi	255, r11, r11
 700175c:	6b b1 04 00 	ori	4, r11, r11
 7001760:	6b b5 ff 00 	andi	255, r11, r11
 7001764:	6a d1 00 00 	st.b	r11, 0[r10]
 7001768:	1f 18       	jmp	[lp]
	...

0700176c <_g3d_copyVector3d>:
 700176c:	c3 dc 00 00 	st.w	r6, 0[sp]
 7001770:	e3 dc 04 00 	st.w	r7, 4[sp]
 7001774:	43 cd 00 00 	ld.w	0[sp],r10
 7001778:	6a cd 00 00 	ld.w	0[r10],r11
 700177c:	43 cd 04 00 	ld.w	4[sp],r10
 7001780:	6a dd 00 00 	st.w	r11, 0[r10]
 7001784:	43 cd 00 00 	ld.w	0[sp],r10
 7001788:	6a cd 04 00 	ld.w	4[r10],r11
 700178c:	43 cd 04 00 	ld.w	4[sp],r10
 7001790:	6a dd 04 00 	st.w	r11, 4[r10]
 7001794:	43 cd 00 00 	ld.w	0[sp],r10
 7001798:	6a cd 08 00 	ld.w	8[r10],r11
 700179c:	43 cd 04 00 	ld.w	4[sp],r10
 70017a0:	6a dd 08 00 	st.w	r11, 8[r10]
 70017a4:	43 cd 00 00 	ld.w	0[sp],r10
 70017a8:	6a cd 0c 00 	ld.w	12[r10],r11
 70017ac:	43 cd 04 00 	ld.w	4[sp],r10
 70017b0:	6a dd 0c 00 	st.w	r11, 12[r10]
 70017b4:	43 cd 00 00 	ld.w	0[sp],r10
 70017b8:	6a cd 10 00 	ld.w	16[r10],r11
 70017bc:	43 cd 04 00 	ld.w	4[sp],r10
 70017c0:	6a dd 10 00 	st.w	r11, 16[r10]
 70017c4:	1f 18       	jmp	[lp]
	...

070017c8 <_g3d_scale>:
 70017c8:	63 a4 ec ff 	addi	-20, sp, sp
 70017cc:	e3 df 10 00 	st.w	lp, 16[sp]
 70017d0:	c3 dc 14 00 	st.w	r6, 20[sp]
 70017d4:	e3 dc 18 00 	st.w	r7, 24[sp]
 70017d8:	03 dd 1c 00 	st.w	r8, 28[sp]
 70017dc:	43 cd 14 00 	ld.w	20[sp],r10
 70017e0:	4a cd 00 00 	ld.w	0[r10],r10
 70017e4:	41 4d       	cmp	1, r10
 70017e6:	34 94       	bne	700181a <_g3d_scale+0x52>
 70017e8:	43 cd 14 00 	ld.w	20[sp],r10
 70017ec:	4a cd 04 00 	ld.w	4[r10],r10
 70017f0:	41 4d       	cmp	1, r10
 70017f2:	28 94       	bne	700181a <_g3d_scale+0x52>
 70017f4:	43 cd 14 00 	ld.w	20[sp],r10
 70017f8:	4a cd 08 00 	ld.w	8[r10],r10
 70017fc:	41 4d       	cmp	1, r10
 70017fe:	1c 94       	bne	700181a <_g3d_scale+0x52>
 7001800:	c3 cc 18 00 	ld.w	24[sp],r6
 7001804:	e3 cc 1c 00 	ld.w	28[sp],r7
 7001808:	40 bd 00 07 	movhi	1792, r0, r10
 700180c:	4a a1 6c 17 	movea	5996, r10, r10
 7001810:	00 ac 04 00 	jal	7001814 <_g3d_scale+0x4c>
 7001814:	e4 47       	add	4, lp
 7001816:	0a 18       	jmp	[r10]
 7001818:	a4 8a       	br	70018bc <_g3d_scale+0xf4>
 700181a:	43 cd 18 00 	ld.w	24[sp],r10
 700181e:	aa cd 00 00 	ld.w	0[r10],r13
 7001822:	43 cd 14 00 	ld.w	20[sp],r10
 7001826:	4a cd 00 00 	ld.w	0[r10],r10
 700182a:	63 cd 18 00 	ld.w	24[sp],r11
 700182e:	8b cd 00 00 	ld.w	0[r11],r12
 7001832:	63 cd 14 00 	ld.w	20[sp],r11
 7001836:	6b cd 00 00 	ld.w	0[r11],r11
 700183a:	4d 21       	mul	r13, r10
 700183c:	43 5d       	sar	3, r10
 700183e:	6c 21       	mul	r12, r11
 7001840:	62 5d       	sar	2, r11
 7001842:	6b b5 01 00 	andi	1, r11, r11
 7001846:	4b 05       	add	r11, r10
 7001848:	63 cd 1c 00 	ld.w	28[sp],r11
 700184c:	4b dd 00 00 	st.w	r10, 0[r11]
 7001850:	43 cd 18 00 	ld.w	24[sp],r10
 7001854:	aa cd 04 00 	ld.w	4[r10],r13
 7001858:	43 cd 14 00 	ld.w	20[sp],r10
 700185c:	4a cd 04 00 	ld.w	4[r10],r10
 7001860:	63 cd 18 00 	ld.w	24[sp],r11
 7001864:	8b cd 04 00 	ld.w	4[r11],r12
 7001868:	63 cd 14 00 	ld.w	20[sp],r11
 700186c:	6b cd 04 00 	ld.w	4[r11],r11
 7001870:	4d 21       	mul	r13, r10
 7001872:	43 5d       	sar	3, r10
 7001874:	6c 21       	mul	r12, r11
 7001876:	62 5d       	sar	2, r11
 7001878:	6b b5 01 00 	andi	1, r11, r11
 700187c:	4b 05       	add	r11, r10
 700187e:	63 cd 1c 00 	ld.w	28[sp],r11
 7001882:	4b dd 04 00 	st.w	r10, 4[r11]
 7001886:	43 cd 18 00 	ld.w	24[sp],r10
 700188a:	aa cd 08 00 	ld.w	8[r10],r13
 700188e:	43 cd 14 00 	ld.w	20[sp],r10
 7001892:	4a cd 08 00 	ld.w	8[r10],r10
 7001896:	63 cd 18 00 	ld.w	24[sp],r11
 700189a:	8b cd 08 00 	ld.w	8[r11],r12
 700189e:	63 cd 14 00 	ld.w	20[sp],r11
 70018a2:	6b cd 08 00 	ld.w	8[r11],r11
 70018a6:	4d 21       	mul	r13, r10
 70018a8:	43 5d       	sar	3, r10
 70018aa:	6c 21       	mul	r12, r11
 70018ac:	62 5d       	sar	2, r11
 70018ae:	6b b5 01 00 	andi	1, r11, r11
 70018b2:	4b 05       	add	r11, r10
 70018b4:	63 cd 1c 00 	ld.w	28[sp],r11
 70018b8:	4b dd 08 00 	st.w	r10, 8[r11]
 70018bc:	e3 cf 10 00 	ld.w	16[sp],lp
 70018c0:	63 a4 14 00 	addi	20, sp, sp
 70018c4:	1f 18       	jmp	[lp]
	...

070018c8 <_g3d_rotateXAxis>:
 70018c8:	c3 dc 00 00 	st.w	r6, 0[sp]
 70018cc:	e3 dc 04 00 	st.w	r7, 4[sp]
 70018d0:	03 dd 08 00 	st.w	r8, 8[sp]
 70018d4:	43 cd 04 00 	ld.w	4[sp],r10
 70018d8:	6a cd 00 00 	ld.w	0[r10],r11
 70018dc:	43 cd 08 00 	ld.w	8[sp],r10
 70018e0:	6a dd 00 00 	st.w	r11, 0[r10]
 70018e4:	63 cd 00 00 	ld.w	0[sp],r11
 70018e8:	43 cd 00 00 	ld.w	0[sp],r10
 70018ec:	c3 cd 04 00 	ld.w	4[sp],r14
 70018f0:	e3 cd 04 00 	ld.w	4[sp],r15
 70018f4:	03 ce 08 00 	ld.w	8[sp],r16
 70018f8:	80 bd 00 07 	movhi	1792, r0, r12
 70018fc:	8c a1 50 41 	movea	16720, r12, r12
 7001900:	62 51       	shl	2, r11
 7001902:	2c 02       	mov	r12, r17
 7001904:	2b 06       	add	r11, r17
 7001906:	60 bd 00 07 	movhi	1792, r0, r11
 700190a:	6b a1 f0 46 	movea	18160, r11, r11
 700190e:	42 51       	shl	2, r10
 7001910:	4b 02       	mov	r11, r18
 7001912:	4a 06       	add	r10, r18
 7001914:	ee cc 04 00 	ld.w	4[r14],r7
 7001918:	0f cd 08 00 	ld.w	8[r15],r8
 700191c:	51 cd 00 00 	ld.w	0[r17],r10
 7001920:	72 cd 00 00 	ld.w	0[r18],r11
 7001924:	88 01       	mov	r8, r12
 7001926:	8a 21       	mul	r10, r12
 7001928:	83 5d       	sar	3, r12
 700192a:	a7 01       	mov	r7, r13
 700192c:	ab 21       	mul	r11, r13
 700192e:	a3 5d       	sar	3, r13
 7001930:	ac 05       	add	r12, r13
 7001932:	b0 dd 08 00 	st.w	r13, 8[r16]
 7001936:	6b 3d       	not	r11, r11
 7001938:	6b a5 01 00 	addi	1, r11, r11
 700193c:	88 01       	mov	r8, r12
 700193e:	8b 21       	mul	r11, r12
 7001940:	83 5d       	sar	3, r12
 7001942:	aa 01       	mov	r10, r13
 7001944:	a7 21       	mul	r7, r13
 7001946:	a3 5d       	sar	3, r13
 7001948:	ac 05       	add	r12, r13
 700194a:	b0 dd 04 00 	st.w	r13, 4[r16]
 700194e:	1f 18       	jmp	[lp]

07001950 <_g3d_rotateYAxis>:
 7001950:	c3 dc 00 00 	st.w	r6, 0[sp]
 7001954:	e3 dc 04 00 	st.w	r7, 4[sp]
 7001958:	03 dd 08 00 	st.w	r8, 8[sp]
 700195c:	43 cd 04 00 	ld.w	4[sp],r10
 7001960:	6a cd 04 00 	ld.w	4[r10],r11
 7001964:	43 cd 08 00 	ld.w	8[sp],r10
 7001968:	6a dd 04 00 	st.w	r11, 4[r10]
 700196c:	63 cd 00 00 	ld.w	0[sp],r11
 7001970:	43 cd 00 00 	ld.w	0[sp],r10
 7001974:	c3 cd 04 00 	ld.w	4[sp],r14
 7001978:	e3 cd 04 00 	ld.w	4[sp],r15
 700197c:	03 ce 08 00 	ld.w	8[sp],r16
 7001980:	80 bd 00 07 	movhi	1792, r0, r12
 7001984:	8c a1 50 41 	movea	16720, r12, r12
 7001988:	62 51       	shl	2, r11
 700198a:	2c 02       	mov	r12, r17
 700198c:	2b 06       	add	r11, r17
 700198e:	60 bd 00 07 	movhi	1792, r0, r11
 7001992:	6b a1 f0 46 	movea	18160, r11, r11
 7001996:	42 51       	shl	2, r10
 7001998:	4b 02       	mov	r11, r18
 700199a:	4a 06       	add	r10, r18
 700199c:	ee cc 08 00 	ld.w	8[r14],r7
 70019a0:	0f cd 00 00 	ld.w	0[r15],r8
 70019a4:	51 cd 00 00 	ld.w	0[r17],r10
 70019a8:	72 cd 00 00 	ld.w	0[r18],r11
 70019ac:	88 01       	mov	r8, r12
 70019ae:	8a 21       	mul	r10, r12
 70019b0:	83 5d       	sar	3, r12
 70019b2:	a7 01       	mov	r7, r13
 70019b4:	ab 21       	mul	r11, r13
 70019b6:	a3 5d       	sar	3, r13
 70019b8:	ac 05       	add	r12, r13
 70019ba:	b0 dd 00 00 	st.w	r13, 0[r16]
 70019be:	6b 3d       	not	r11, r11
 70019c0:	6b a5 01 00 	addi	1, r11, r11
 70019c4:	88 01       	mov	r8, r12
 70019c6:	8b 21       	mul	r11, r12
 70019c8:	83 5d       	sar	3, r12
 70019ca:	aa 01       	mov	r10, r13
 70019cc:	a7 21       	mul	r7, r13
 70019ce:	a3 5d       	sar	3, r13
 70019d0:	ac 05       	add	r12, r13
 70019d2:	b0 dd 08 00 	st.w	r13, 8[r16]
 70019d6:	1f 18       	jmp	[lp]

070019d8 <_g3d_rotateZAxis>:
 70019d8:	c3 dc 00 00 	st.w	r6, 0[sp]
 70019dc:	e3 dc 04 00 	st.w	r7, 4[sp]
 70019e0:	03 dd 08 00 	st.w	r8, 8[sp]
 70019e4:	43 cd 04 00 	ld.w	4[sp],r10
 70019e8:	6a cd 08 00 	ld.w	8[r10],r11
 70019ec:	43 cd 08 00 	ld.w	8[sp],r10
 70019f0:	6a dd 08 00 	st.w	r11, 8[r10]
 70019f4:	63 cd 00 00 	ld.w	0[sp],r11
 70019f8:	43 cd 00 00 	ld.w	0[sp],r10
 70019fc:	c3 cd 04 00 	ld.w	4[sp],r14
 7001a00:	e3 cd 04 00 	ld.w	4[sp],r15
 7001a04:	03 ce 08 00 	ld.w	8[sp],r16
 7001a08:	80 bd 00 07 	movhi	1792, r0, r12
 7001a0c:	8c a1 50 41 	movea	16720, r12, r12
 7001a10:	62 51       	shl	2, r11
 7001a12:	2c 02       	mov	r12, r17
 7001a14:	2b 06       	add	r11, r17
 7001a16:	60 bd 00 07 	movhi	1792, r0, r11
 7001a1a:	6b a1 f0 46 	movea	18160, r11, r11
 7001a1e:	42 51       	shl	2, r10
 7001a20:	4b 02       	mov	r11, r18
 7001a22:	4a 06       	add	r10, r18
 7001a24:	ee cc 04 00 	ld.w	4[r14],r7
 7001a28:	0f cd 00 00 	ld.w	0[r15],r8
 7001a2c:	51 cd 00 00 	ld.w	0[r17],r10
 7001a30:	72 cd 00 00 	ld.w	0[r18],r11
 7001a34:	88 01       	mov	r8, r12
 7001a36:	8a 21       	mul	r10, r12
 7001a38:	83 5d       	sar	3, r12
 7001a3a:	a7 01       	mov	r7, r13
 7001a3c:	ab 21       	mul	r11, r13
 7001a3e:	a3 5d       	sar	3, r13
 7001a40:	ac 05       	add	r12, r13
 7001a42:	b0 dd 00 00 	st.w	r13, 0[r16]
 7001a46:	6b 3d       	not	r11, r11
 7001a48:	6b a5 01 00 	addi	1, r11, r11
 7001a4c:	88 01       	mov	r8, r12
 7001a4e:	8b 21       	mul	r11, r12
 7001a50:	83 5d       	sar	3, r12
 7001a52:	aa 01       	mov	r10, r13
 7001a54:	a7 21       	mul	r7, r13
 7001a56:	a3 5d       	sar	3, r13
 7001a58:	ac 05       	add	r12, r13
 7001a5a:	b0 dd 04 00 	st.w	r13, 4[r16]
 7001a5e:	1f 18       	jmp	[lp]

07001a60 <_g3d_rotateAllAxis>:
 7001a60:	63 a4 d8 ff 	addi	-40, sp, sp
 7001a64:	e3 df 24 00 	st.w	lp, 36[sp]
 7001a68:	c3 dc 28 00 	st.w	r6, 40[sp]
 7001a6c:	e3 dc 2c 00 	st.w	r7, 44[sp]
 7001a70:	03 dd 30 00 	st.w	r8, 48[sp]
 7001a74:	23 dd 34 00 	st.w	r9, 52[sp]
 7001a78:	43 cd 28 00 	ld.w	40[sp],r10
 7001a7c:	40 0d       	cmp	r0, r10
 7001a7e:	2e 94       	bne	7001aac <_g3d_rotateAllAxis+0x4c>
 7001a80:	43 cd 2c 00 	ld.w	44[sp],r10
 7001a84:	40 0d       	cmp	r0, r10
 7001a86:	26 94       	bne	7001aac <_g3d_rotateAllAxis+0x4c>
 7001a88:	43 cd 30 00 	ld.w	48[sp],r10
 7001a8c:	40 0d       	cmp	r0, r10
 7001a8e:	1e 94       	bne	7001aac <_g3d_rotateAllAxis+0x4c>
 7001a90:	c3 cc 34 00 	ld.w	52[sp],r6
 7001a94:	e3 cc 38 00 	ld.w	56[sp],r7
 7001a98:	40 bd 00 07 	movhi	1792, r0, r10
 7001a9c:	4a a1 6c 17 	movea	5996, r10, r10
 7001aa0:	00 ac 04 00 	jal	7001aa4 <_g3d_rotateAllAxis+0x44>
 7001aa4:	e4 47       	add	4, lp
 7001aa6:	0a 18       	jmp	[r10]
 7001aa8:	00 a8 34 01 	jr	7001bdc <_g3d_rotateAllAxis+0x17c>
 7001aac:	43 cd 28 00 	ld.w	40[sp],r10
 7001ab0:	40 0d       	cmp	r0, r10
 7001ab2:	0e 9c       	bge	7001ac0 <_g3d_rotateAllAxis+0x60>
 7001ab4:	43 cd 28 00 	ld.w	40[sp],r10
 7001ab8:	4a a5 67 01 	addi	359, r10, r10
 7001abc:	43 dd 28 00 	st.w	r10, 40[sp]
 7001ac0:	43 cd 2c 00 	ld.w	44[sp],r10
 7001ac4:	40 0d       	cmp	r0, r10
 7001ac6:	0e 9c       	bge	7001ad4 <_g3d_rotateAllAxis+0x74>
 7001ac8:	43 cd 2c 00 	ld.w	44[sp],r10
 7001acc:	4a a5 67 01 	addi	359, r10, r10
 7001ad0:	43 dd 2c 00 	st.w	r10, 44[sp]
 7001ad4:	43 cd 30 00 	ld.w	48[sp],r10
 7001ad8:	40 0d       	cmp	r0, r10
 7001ada:	0e 9c       	bge	7001ae8 <_g3d_rotateAllAxis+0x88>
 7001adc:	43 cd 30 00 	ld.w	48[sp],r10
 7001ae0:	4a a5 67 01 	addi	359, r10, r10
 7001ae4:	43 dd 30 00 	st.w	r10, 48[sp]
 7001ae8:	43 a5 10 00 	addi	16, sp, r10
 7001aec:	c3 cc 34 00 	ld.w	52[sp],r6
 7001af0:	ea 00       	mov	r10, r7
 7001af2:	40 bd 00 07 	movhi	1792, r0, r10
 7001af6:	4a a1 6c 17 	movea	5996, r10, r10
 7001afa:	00 ac 04 00 	jal	7001afe <_g3d_rotateAllAxis+0x9e>
 7001afe:	e4 47       	add	4, lp
 7001b00:	0a 18       	jmp	[r10]
 7001b02:	43 cd 28 00 	ld.w	40[sp],r10
 7001b06:	40 0d       	cmp	r0, r10
 7001b08:	3a 84       	be	7001b42 <_g3d_rotateAllAxis+0xe2>
 7001b0a:	43 a5 10 00 	addi	16, sp, r10
 7001b0e:	c3 cc 28 00 	ld.w	40[sp],r6
 7001b12:	ea 00       	mov	r10, r7
 7001b14:	03 cd 38 00 	ld.w	56[sp],r8
 7001b18:	40 bd 00 07 	movhi	1792, r0, r10
 7001b1c:	4a a1 c8 18 	movea	6344, r10, r10
 7001b20:	00 ac 04 00 	jal	7001b24 <_g3d_rotateAllAxis+0xc4>
 7001b24:	e4 47       	add	4, lp
 7001b26:	0a 18       	jmp	[r10]
 7001b28:	43 a5 10 00 	addi	16, sp, r10
 7001b2c:	c3 cc 38 00 	ld.w	56[sp],r6
 7001b30:	ea 00       	mov	r10, r7
 7001b32:	40 bd 00 07 	movhi	1792, r0, r10
 7001b36:	4a a1 6c 17 	movea	5996, r10, r10
 7001b3a:	00 ac 04 00 	jal	7001b3e <_g3d_rotateAllAxis+0xde>
 7001b3e:	e4 47       	add	4, lp
 7001b40:	0a 18       	jmp	[r10]
 7001b42:	43 cd 2c 00 	ld.w	44[sp],r10
 7001b46:	40 0d       	cmp	r0, r10
 7001b48:	3a 84       	be	7001b82 <_g3d_rotateAllAxis+0x122>
 7001b4a:	43 a5 10 00 	addi	16, sp, r10
 7001b4e:	c3 cc 2c 00 	ld.w	44[sp],r6
 7001b52:	ea 00       	mov	r10, r7
 7001b54:	03 cd 38 00 	ld.w	56[sp],r8
 7001b58:	40 bd 00 07 	movhi	1792, r0, r10
 7001b5c:	4a a1 50 19 	movea	6480, r10, r10
 7001b60:	00 ac 04 00 	jal	7001b64 <_g3d_rotateAllAxis+0x104>
 7001b64:	e4 47       	add	4, lp
 7001b66:	0a 18       	jmp	[r10]
 7001b68:	43 a5 10 00 	addi	16, sp, r10
 7001b6c:	c3 cc 38 00 	ld.w	56[sp],r6
 7001b70:	ea 00       	mov	r10, r7
 7001b72:	40 bd 00 07 	movhi	1792, r0, r10
 7001b76:	4a a1 6c 17 	movea	5996, r10, r10
 7001b7a:	00 ac 04 00 	jal	7001b7e <_g3d_rotateAllAxis+0x11e>
 7001b7e:	e4 47       	add	4, lp
 7001b80:	0a 18       	jmp	[r10]
 7001b82:	43 cd 30 00 	ld.w	48[sp],r10
 7001b86:	40 0d       	cmp	r0, r10
 7001b88:	3a 84       	be	7001bc2 <_g3d_rotateAllAxis+0x162>
 7001b8a:	43 a5 10 00 	addi	16, sp, r10
 7001b8e:	c3 cc 30 00 	ld.w	48[sp],r6
 7001b92:	ea 00       	mov	r10, r7
 7001b94:	03 cd 38 00 	ld.w	56[sp],r8
 7001b98:	40 bd 00 07 	movhi	1792, r0, r10
 7001b9c:	4a a1 d8 19 	movea	6616, r10, r10
 7001ba0:	00 ac 04 00 	jal	7001ba4 <_g3d_rotateAllAxis+0x144>
 7001ba4:	e4 47       	add	4, lp
 7001ba6:	0a 18       	jmp	[r10]
 7001ba8:	43 a5 10 00 	addi	16, sp, r10
 7001bac:	c3 cc 38 00 	ld.w	56[sp],r6
 7001bb0:	ea 00       	mov	r10, r7
 7001bb2:	40 bd 00 07 	movhi	1792, r0, r10
 7001bb6:	4a a1 6c 17 	movea	5996, r10, r10
 7001bba:	00 ac 04 00 	jal	7001bbe <_g3d_rotateAllAxis+0x15e>
 7001bbe:	e4 47       	add	4, lp
 7001bc0:	0a 18       	jmp	[r10]
 7001bc2:	43 a5 10 00 	addi	16, sp, r10
 7001bc6:	ca 00       	mov	r10, r6
 7001bc8:	e3 cc 38 00 	ld.w	56[sp],r7
 7001bcc:	40 bd 00 07 	movhi	1792, r0, r10
 7001bd0:	4a a1 6c 17 	movea	5996, r10, r10
 7001bd4:	00 ac 04 00 	jal	7001bd8 <_g3d_rotateAllAxis+0x178>
 7001bd8:	e4 47       	add	4, lp
 7001bda:	0a 18       	jmp	[r10]
 7001bdc:	e3 cf 24 00 	ld.w	36[sp],lp
 7001be0:	63 a4 28 00 	addi	40, sp, sp
 7001be4:	1f 18       	jmp	[lp]
	...

07001be8 <_g3d_translate>:
 7001be8:	c3 dc 00 00 	st.w	r6, 0[sp]
 7001bec:	e3 dc 04 00 	st.w	r7, 4[sp]
 7001bf0:	03 dd 08 00 	st.w	r8, 8[sp]
 7001bf4:	23 dd 0c 00 	st.w	r9, 12[sp]
 7001bf8:	43 cd 0c 00 	ld.w	12[sp],r10
 7001bfc:	6a cd 00 00 	ld.w	0[r10],r11
 7001c00:	43 cd 00 00 	ld.w	0[sp],r10
 7001c04:	6a 05       	add	r10, r11
 7001c06:	43 cd 10 00 	ld.w	16[sp],r10
 7001c0a:	6a dd 00 00 	st.w	r11, 0[r10]
 7001c0e:	43 cd 0c 00 	ld.w	12[sp],r10
 7001c12:	6a cd 04 00 	ld.w	4[r10],r11
 7001c16:	43 cd 04 00 	ld.w	4[sp],r10
 7001c1a:	6a 05       	add	r10, r11
 7001c1c:	43 cd 10 00 	ld.w	16[sp],r10
 7001c20:	6a dd 04 00 	st.w	r11, 4[r10]
 7001c24:	43 cd 0c 00 	ld.w	12[sp],r10
 7001c28:	6a cd 08 00 	ld.w	8[r10],r11
 7001c2c:	43 cd 08 00 	ld.w	8[sp],r10
 7001c30:	6a 05       	add	r10, r11
 7001c32:	43 cd 10 00 	ld.w	16[sp],r10
 7001c36:	6a dd 08 00 	st.w	r11, 8[r10]
 7001c3a:	1f 18       	jmp	[lp]

07001c3c <_g3d_cameraRotateAllAxis>:
 7001c3c:	63 a4 e8 ff 	addi	-24, sp, sp
 7001c40:	e3 df 14 00 	st.w	lp, 20[sp]
 7001c44:	c3 dc 18 00 	st.w	r6, 24[sp]
 7001c48:	e3 dc 1c 00 	st.w	r7, 28[sp]
 7001c4c:	03 dd 20 00 	st.w	r8, 32[sp]
 7001c50:	23 dd 24 00 	st.w	r9, 36[sp]
 7001c54:	43 cd 18 00 	ld.w	24[sp],r10
 7001c58:	4a 3d       	not	r10, r10
 7001c5a:	41 45       	add	1, r10
 7001c5c:	43 dd 18 00 	st.w	r10, 24[sp]
 7001c60:	43 cd 1c 00 	ld.w	28[sp],r10
 7001c64:	4a 3d       	not	r10, r10
 7001c66:	41 45       	add	1, r10
 7001c68:	43 dd 1c 00 	st.w	r10, 28[sp]
 7001c6c:	43 cd 20 00 	ld.w	32[sp],r10
 7001c70:	4a 3d       	not	r10, r10
 7001c72:	41 45       	add	1, r10
 7001c74:	43 dd 20 00 	st.w	r10, 32[sp]
 7001c78:	43 cd 28 00 	ld.w	40[sp],r10
 7001c7c:	43 dd 10 00 	st.w	r10, 16[sp]
 7001c80:	c3 cc 18 00 	ld.w	24[sp],r6
 7001c84:	e3 cc 1c 00 	ld.w	28[sp],r7
 7001c88:	03 cd 20 00 	ld.w	32[sp],r8
 7001c8c:	23 cd 24 00 	ld.w	36[sp],r9
 7001c90:	40 bd 00 07 	movhi	1792, r0, r10
 7001c94:	4a a1 60 1a 	movea	6752, r10, r10
 7001c98:	00 ac 04 00 	jal	7001c9c <_g3d_cameraRotateAllAxis+0x60>
 7001c9c:	e4 47       	add	4, lp
 7001c9e:	0a 18       	jmp	[r10]
 7001ca0:	e3 cf 14 00 	ld.w	20[sp],lp
 7001ca4:	63 a4 18 00 	addi	24, sp, sp
 7001ca8:	1f 18       	jmp	[lp]
	...

07001cac <_g3d_cameraTranslate>:
 7001cac:	c3 dc 00 00 	st.w	r6, 0[sp]
 7001cb0:	e3 dc 04 00 	st.w	r7, 4[sp]
 7001cb4:	03 dd 08 00 	st.w	r8, 8[sp]
 7001cb8:	23 dd 0c 00 	st.w	r9, 12[sp]
 7001cbc:	43 cd 0c 00 	ld.w	12[sp],r10
 7001cc0:	6a cd 00 00 	ld.w	0[r10],r11
 7001cc4:	43 cd 00 00 	ld.w	0[sp],r10
 7001cc8:	6a 09       	sub	r10, r11
 7001cca:	43 cd 10 00 	ld.w	16[sp],r10
 7001cce:	6a dd 00 00 	st.w	r11, 0[r10]
 7001cd2:	43 cd 0c 00 	ld.w	12[sp],r10
 7001cd6:	6a cd 04 00 	ld.w	4[r10],r11
 7001cda:	43 cd 04 00 	ld.w	4[sp],r10
 7001cde:	6a 09       	sub	r10, r11
 7001ce0:	43 cd 10 00 	ld.w	16[sp],r10
 7001ce4:	6a dd 04 00 	st.w	r11, 4[r10]
 7001ce8:	43 cd 0c 00 	ld.w	12[sp],r10
 7001cec:	6a cd 08 00 	ld.w	8[r10],r11
 7001cf0:	43 cd 08 00 	ld.w	8[sp],r10
 7001cf4:	6a 09       	sub	r10, r11
 7001cf6:	43 cd 10 00 	ld.w	16[sp],r10
 7001cfa:	6a dd 08 00 	st.w	r11, 8[r10]
 7001cfe:	1f 18       	jmp	[lp]

07001d00 <_g3d_renderVector3d>:
 7001d00:	63 a4 d4 ff 	addi	-44, sp, sp
 7001d04:	e3 df 28 00 	st.w	lp, 40[sp]
 7001d08:	c3 dc 2c 00 	st.w	r6, 44[sp]
 7001d0c:	e3 dc 30 00 	st.w	r7, 48[sp]
 7001d10:	03 dd 34 00 	st.w	r8, 52[sp]
 7001d14:	49 01       	mov	r9, r10
 7001d16:	43 d1 38 00 	st.b	r10, 56[sp]
 7001d1a:	43 cd 2c 00 	ld.w	44[sp],r10
 7001d1e:	6a a5 9c 00 	addi	156, r10, r11
 7001d22:	43 a5 14 00 	addi	20, sp, r10
 7001d26:	cb 00       	mov	r11, r6
 7001d28:	e3 cc 30 00 	ld.w	48[sp],r7
 7001d2c:	0a 01       	mov	r10, r8
 7001d2e:	40 bd 00 07 	movhi	1792, r0, r10
 7001d32:	4a a1 c8 17 	movea	6088, r10, r10
 7001d36:	00 ac 04 00 	jal	7001d3a <_g3d_renderVector3d+0x3a>
 7001d3a:	e4 47       	add	4, lp
 7001d3c:	0a 18       	jmp	[r10]
 7001d3e:	43 a5 14 00 	addi	20, sp, r10
 7001d42:	ca 00       	mov	r10, r6
 7001d44:	e3 cc 34 00 	ld.w	52[sp],r7
 7001d48:	40 bd 00 07 	movhi	1792, r0, r10
 7001d4c:	4a a1 6c 17 	movea	5996, r10, r10
 7001d50:	00 ac 04 00 	jal	7001d54 <_g3d_renderVector3d+0x54>
 7001d54:	e4 47       	add	4, lp
 7001d56:	0a 18       	jmp	[r10]
 7001d58:	43 cd 2c 00 	ld.w	44[sp],r10
 7001d5c:	8a cd 4c 00 	ld.w	76[r10],r12
 7001d60:	43 cd 2c 00 	ld.w	44[sp],r10
 7001d64:	6a cd 50 00 	ld.w	80[r10],r11
 7001d68:	43 cd 2c 00 	ld.w	44[sp],r10
 7001d6c:	4a cd 54 00 	ld.w	84[r10],r10
 7001d70:	a3 a5 14 00 	addi	20, sp, r13
 7001d74:	a3 dd 10 00 	st.w	r13, 16[sp]
 7001d78:	cc 00       	mov	r12, r6
 7001d7a:	eb 00       	mov	r11, r7
 7001d7c:	0a 01       	mov	r10, r8
 7001d7e:	23 cd 34 00 	ld.w	52[sp],r9
 7001d82:	40 bd 00 07 	movhi	1792, r0, r10
 7001d86:	4a a1 60 1a 	movea	6752, r10, r10
 7001d8a:	00 ac 04 00 	jal	7001d8e <_g3d_renderVector3d+0x8e>
 7001d8e:	e4 47       	add	4, lp
 7001d90:	0a 18       	jmp	[r10]
 7001d92:	43 a5 14 00 	addi	20, sp, r10
 7001d96:	ca 00       	mov	r10, r6
 7001d98:	e3 cc 34 00 	ld.w	52[sp],r7
 7001d9c:	40 bd 00 07 	movhi	1792, r0, r10
 7001da0:	4a a1 6c 17 	movea	5996, r10, r10
 7001da4:	00 ac 04 00 	jal	7001da8 <_g3d_renderVector3d+0xa8>
 7001da8:	e4 47       	add	4, lp
 7001daa:	0a 18       	jmp	[r10]
 7001dac:	43 cd 2c 00 	ld.w	44[sp],r10
 7001db0:	8a cd 24 00 	ld.w	36[r10],r12
 7001db4:	43 cd 2c 00 	ld.w	44[sp],r10
 7001db8:	6a cd 28 00 	ld.w	40[r10],r11
 7001dbc:	43 cd 2c 00 	ld.w	44[sp],r10
 7001dc0:	4a cd 2c 00 	ld.w	44[r10],r10
 7001dc4:	a3 a5 14 00 	addi	20, sp, r13
 7001dc8:	a3 dd 10 00 	st.w	r13, 16[sp]
 7001dcc:	cc 00       	mov	r12, r6
 7001dce:	eb 00       	mov	r11, r7
 7001dd0:	0a 01       	mov	r10, r8
 7001dd2:	23 cd 34 00 	ld.w	52[sp],r9
 7001dd6:	40 bd 00 07 	movhi	1792, r0, r10
 7001dda:	4a a1 e8 1b 	movea	7144, r10, r10
 7001dde:	00 ac 04 00 	jal	7001de2 <_g3d_renderVector3d+0xe2>
 7001de2:	e4 47       	add	4, lp
 7001de4:	0a 18       	jmp	[r10]
 7001de6:	43 a5 14 00 	addi	20, sp, r10
 7001dea:	ca 00       	mov	r10, r6
 7001dec:	e3 cc 34 00 	ld.w	52[sp],r7
 7001df0:	40 bd 00 07 	movhi	1792, r0, r10
 7001df4:	4a a1 6c 17 	movea	5996, r10, r10
 7001df8:	00 ac 04 00 	jal	7001dfc <_g3d_renderVector3d+0xfc>
 7001dfc:	e4 47       	add	4, lp
 7001dfe:	0a 18       	jmp	[r10]
 7001e00:	40 bd 00 05 	movhi	1280, r0, r10
 7001e04:	4a a1 20 53 	movea	21280, r10, r10
 7001e08:	8a cd 00 00 	ld.w	0[r10],r12
 7001e0c:	40 bd 00 05 	movhi	1280, r0, r10
 7001e10:	4a a1 20 53 	movea	21280, r10, r10
 7001e14:	6a cd 04 00 	ld.w	4[r10],r11
 7001e18:	40 bd 00 05 	movhi	1280, r0, r10
 7001e1c:	4a a1 20 53 	movea	21280, r10, r10
 7001e20:	4a cd 08 00 	ld.w	8[r10],r10
 7001e24:	a3 a5 14 00 	addi	20, sp, r13
 7001e28:	a3 dd 10 00 	st.w	r13, 16[sp]
 7001e2c:	cc 00       	mov	r12, r6
 7001e2e:	eb 00       	mov	r11, r7
 7001e30:	0a 01       	mov	r10, r8
 7001e32:	23 cd 34 00 	ld.w	52[sp],r9
 7001e36:	40 bd 00 07 	movhi	1792, r0, r10
 7001e3a:	4a a1 ac 1c 	movea	7340, r10, r10
 7001e3e:	00 ac 04 00 	jal	7001e42 <_g3d_renderVector3d+0x142>
 7001e42:	e4 47       	add	4, lp
 7001e44:	0a 18       	jmp	[r10]
 7001e46:	43 a5 14 00 	addi	20, sp, r10
 7001e4a:	ca 00       	mov	r10, r6
 7001e4c:	e3 cc 34 00 	ld.w	52[sp],r7
 7001e50:	40 bd 00 07 	movhi	1792, r0, r10
 7001e54:	4a a1 6c 17 	movea	5996, r10, r10
 7001e58:	00 ac 04 00 	jal	7001e5c <_g3d_renderVector3d+0x15c>
 7001e5c:	e4 47       	add	4, lp
 7001e5e:	0a 18       	jmp	[r10]
 7001e60:	40 bd 00 05 	movhi	1280, r0, r10
 7001e64:	4a a1 20 53 	movea	21280, r10, r10
 7001e68:	4a cd 64 00 	ld.w	100[r10],r10
 7001e6c:	40 0d       	cmp	r0, r10
 7001e6e:	22 94       	bne	7001e90 <_g3d_renderVector3d+0x190>
 7001e70:	40 bd 00 05 	movhi	1280, r0, r10
 7001e74:	4a a1 20 53 	movea	21280, r10, r10
 7001e78:	4a cd 68 00 	ld.w	104[r10],r10
 7001e7c:	40 0d       	cmp	r0, r10
 7001e7e:	12 94       	bne	7001e90 <_g3d_renderVector3d+0x190>
 7001e80:	40 bd 00 05 	movhi	1280, r0, r10
 7001e84:	4a a1 20 53 	movea	21280, r10, r10
 7001e88:	4a cd 6c 00 	ld.w	108[r10],r10
 7001e8c:	40 0d       	cmp	r0, r10
 7001e8e:	62 84       	be	7001ef0 <_g3d_renderVector3d+0x1f0>
 7001e90:	40 bd 00 05 	movhi	1280, r0, r10
 7001e94:	4a a1 20 53 	movea	21280, r10, r10
 7001e98:	8a cd 64 00 	ld.w	100[r10],r12
 7001e9c:	40 bd 00 05 	movhi	1280, r0, r10
 7001ea0:	4a a1 20 53 	movea	21280, r10, r10
 7001ea4:	6a cd 68 00 	ld.w	104[r10],r11
 7001ea8:	40 bd 00 05 	movhi	1280, r0, r10
 7001eac:	4a a1 20 53 	movea	21280, r10, r10
 7001eb0:	4a cd 6c 00 	ld.w	108[r10],r10
 7001eb4:	a3 a5 14 00 	addi	20, sp, r13
 7001eb8:	a3 dd 10 00 	st.w	r13, 16[sp]
 7001ebc:	cc 00       	mov	r12, r6
 7001ebe:	eb 00       	mov	r11, r7
 7001ec0:	0a 01       	mov	r10, r8
 7001ec2:	23 cd 34 00 	ld.w	52[sp],r9
 7001ec6:	40 bd 00 07 	movhi	1792, r0, r10
 7001eca:	4a a1 3c 1c 	movea	7228, r10, r10
 7001ece:	00 ac 04 00 	jal	7001ed2 <_g3d_renderVector3d+0x1d2>
 7001ed2:	e4 47       	add	4, lp
 7001ed4:	0a 18       	jmp	[r10]
 7001ed6:	43 a5 14 00 	addi	20, sp, r10
 7001eda:	ca 00       	mov	r10, r6
 7001edc:	e3 cc 34 00 	ld.w	52[sp],r7
 7001ee0:	40 bd 00 07 	movhi	1792, r0, r10
 7001ee4:	4a a1 6c 17 	movea	5996, r10, r10
 7001ee8:	00 ac 04 00 	jal	7001eec <_g3d_renderVector3d+0x1ec>
 7001eec:	e4 47       	add	4, lp
 7001eee:	0a 18       	jmp	[r10]
 7001ef0:	43 c1 38 00 	ld.b	56[sp],r10
 7001ef4:	4a b5 ff 00 	andi	255, r10, r10
 7001ef8:	40 0d       	cmp	r0, r10
 7001efa:	dc 94       	bne	7001fd6 <_g3d_renderVector3d+0x2d6>
 7001efc:	43 cd 34 00 	ld.w	52[sp],r10
 7001f00:	6a cd 00 00 	ld.w	0[r10],r11
 7001f04:	43 cd 2c 00 	ld.w	44[sp],r10
 7001f08:	4a cd 08 00 	ld.w	8[r10],r10
 7001f0c:	6a 0d       	cmp	r10, r11
 7001f0e:	12 9c       	bge	7001f20 <_g3d_renderVector3d+0x220>
 7001f10:	43 cd 34 00 	ld.w	52[sp],r10
 7001f14:	6a cd 00 00 	ld.w	0[r10],r11
 7001f18:	43 cd 2c 00 	ld.w	44[sp],r10
 7001f1c:	6a dd 08 00 	st.w	r11, 8[r10]
 7001f20:	43 cd 34 00 	ld.w	52[sp],r10
 7001f24:	6a cd 00 00 	ld.w	0[r10],r11
 7001f28:	43 cd 2c 00 	ld.w	44[sp],r10
 7001f2c:	4a cd 14 00 	ld.w	20[r10],r10
 7001f30:	6a 0d       	cmp	r10, r11
 7001f32:	12 8e       	ble	7001f44 <_g3d_renderVector3d+0x244>
 7001f34:	43 cd 34 00 	ld.w	52[sp],r10
 7001f38:	6a cd 00 00 	ld.w	0[r10],r11
 7001f3c:	43 cd 2c 00 	ld.w	44[sp],r10
 7001f40:	6a dd 14 00 	st.w	r11, 20[r10]
 7001f44:	43 cd 34 00 	ld.w	52[sp],r10
 7001f48:	6a cd 04 00 	ld.w	4[r10],r11
 7001f4c:	43 cd 2c 00 	ld.w	44[sp],r10
 7001f50:	4a cd 0c 00 	ld.w	12[r10],r10
 7001f54:	6a 0d       	cmp	r10, r11
 7001f56:	12 9c       	bge	7001f68 <_g3d_renderVector3d+0x268>
 7001f58:	43 cd 34 00 	ld.w	52[sp],r10
 7001f5c:	6a cd 04 00 	ld.w	4[r10],r11
 7001f60:	43 cd 2c 00 	ld.w	44[sp],r10
 7001f64:	6a dd 0c 00 	st.w	r11, 12[r10]
 7001f68:	43 cd 34 00 	ld.w	52[sp],r10
 7001f6c:	6a cd 04 00 	ld.w	4[r10],r11
 7001f70:	43 cd 2c 00 	ld.w	44[sp],r10
 7001f74:	4a cd 18 00 	ld.w	24[r10],r10
 7001f78:	6a 0d       	cmp	r10, r11
 7001f7a:	12 8e       	ble	7001f8c <_g3d_renderVector3d+0x28c>
 7001f7c:	43 cd 34 00 	ld.w	52[sp],r10
 7001f80:	6a cd 04 00 	ld.w	4[r10],r11
 7001f84:	43 cd 2c 00 	ld.w	44[sp],r10
 7001f88:	6a dd 18 00 	st.w	r11, 24[r10]
 7001f8c:	43 cd 34 00 	ld.w	52[sp],r10
 7001f90:	6a cd 08 00 	ld.w	8[r10],r11
 7001f94:	43 cd 2c 00 	ld.w	44[sp],r10
 7001f98:	4a cd 10 00 	ld.w	16[r10],r10
 7001f9c:	6a 0d       	cmp	r10, r11
 7001f9e:	12 9c       	bge	7001fb0 <_g3d_renderVector3d+0x2b0>
 7001fa0:	43 cd 34 00 	ld.w	52[sp],r10
 7001fa4:	6a cd 08 00 	ld.w	8[r10],r11
 7001fa8:	43 cd 2c 00 	ld.w	44[sp],r10
 7001fac:	6a dd 10 00 	st.w	r11, 16[r10]
 7001fb0:	43 cd 34 00 	ld.w	52[sp],r10
 7001fb4:	6a cd 08 00 	ld.w	8[r10],r11
 7001fb8:	43 cd 2c 00 	ld.w	44[sp],r10
 7001fbc:	4a cd 1c 00 	ld.w	28[r10],r10
 7001fc0:	6a 0d       	cmp	r10, r11
 7001fc2:	76 8e       	ble	7002038 <_g3d_renderVector3d+0x338>
 7001fc4:	43 cd 34 00 	ld.w	52[sp],r10
 7001fc8:	6a cd 08 00 	ld.w	8[r10],r11
 7001fcc:	43 cd 2c 00 	ld.w	44[sp],r10
 7001fd0:	6a dd 1c 00 	st.w	r11, 28[r10]
 7001fd4:	66 8a       	br	700203a <_g3d_renderVector3d+0x33a>
 7001fd6:	43 cd 34 00 	ld.w	52[sp],r10
 7001fda:	6a cd 00 00 	ld.w	0[r10],r11
 7001fde:	43 cd 2c 00 	ld.w	44[sp],r10
 7001fe2:	6a dd 14 00 	st.w	r11, 20[r10]
 7001fe6:	43 cd 2c 00 	ld.w	44[sp],r10
 7001fea:	6a cd 14 00 	ld.w	20[r10],r11
 7001fee:	43 cd 2c 00 	ld.w	44[sp],r10
 7001ff2:	6a dd 08 00 	st.w	r11, 8[r10]
 7001ff6:	43 cd 34 00 	ld.w	52[sp],r10
 7001ffa:	6a cd 04 00 	ld.w	4[r10],r11
 7001ffe:	43 cd 2c 00 	ld.w	44[sp],r10
 7002002:	6a dd 18 00 	st.w	r11, 24[r10]
 7002006:	43 cd 2c 00 	ld.w	44[sp],r10
 700200a:	6a cd 18 00 	ld.w	24[r10],r11
 700200e:	43 cd 2c 00 	ld.w	44[sp],r10
 7002012:	6a dd 0c 00 	st.w	r11, 12[r10]
 7002016:	43 cd 34 00 	ld.w	52[sp],r10
 700201a:	6a cd 08 00 	ld.w	8[r10],r11
 700201e:	43 cd 2c 00 	ld.w	44[sp],r10
 7002022:	6a dd 1c 00 	st.w	r11, 28[r10]
 7002026:	43 cd 2c 00 	ld.w	44[sp],r10
 700202a:	6a cd 1c 00 	ld.w	28[r10],r11
 700202e:	43 cd 2c 00 	ld.w	44[sp],r10
 7002032:	6a dd 10 00 	st.w	r11, 16[r10]
 7002036:	04 8a       	br	700203a <_g3d_renderVector3d+0x33a>
 7002038:	00 9a       	nop	
 700203a:	e3 cf 28 00 	ld.w	40[sp],lp
 700203e:	63 a4 2c 00 	addi	44, sp, sp
 7002042:	1f 18       	jmp	[lp]

07002044 <_g3d_calculateProjection>:
 7002044:	c3 dc 00 00 	st.w	r6, 0[sp]
 7002048:	43 cd 00 00 	ld.w	0[sp],r10
 700204c:	4a a6 0c 00 	addi	12, r10, r18
 7002050:	43 cd 00 00 	ld.w	0[sp],r10
 7002054:	6a a6 10 00 	addi	16, r10, r19
 7002058:	c3 cd 00 00 	ld.w	0[sp],r14
 700205c:	e3 cd 00 00 	ld.w	0[sp],r15
 7002060:	03 ce 00 00 	ld.w	0[sp],r16
 7002064:	40 bd 00 05 	movhi	1280, r0, r10
 7002068:	2a a2 20 53 	movea	21280, r10, r17
 700206c:	ce cc 00 00 	ld.w	0[r14],r6
 7002070:	ef cc 04 00 	ld.w	4[r15],r7
 7002074:	10 cd 08 00 	ld.w	8[r16],r8
 7002078:	31 cd 8c 00 	ld.w	140[r17],r9
 700207c:	40 a1 c0 00 	movea	192, r0, r10
 7002080:	60 a1 70 00 	movea	112, r0, r11
 7002084:	80 a1 e0 00 	movea	224, r0, r12
 7002088:	43 51       	shl	3, r10
 700208a:	63 51       	shl	3, r11
 700208c:	c9 20       	mul	r9, r6
 700208e:	c2 5c       	sar	2, r6
 7002090:	a6 b5 01 00 	andi	1, r6, r13
 7002094:	c1 5c       	sar	1, r6
 7002096:	cd 04       	add	r13, r6
 7002098:	e9 20       	mul	r9, r7
 700209a:	e2 5c       	sar	2, r7
 700209c:	a7 b5 01 00 	andi	1, r7, r13
 70020a0:	e1 5c       	sar	1, r7
 70020a2:	ed 04       	add	r13, r7
 70020a4:	09 05       	add	r9, r8
 70020a6:	c3 50       	shl	3, r6
 70020a8:	c8 24       	div	r8, r6
 70020aa:	e3 50       	shl	3, r7
 70020ac:	e8 24       	div	r8, r7
 70020ae:	ca 04       	add	r10, r6
 70020b0:	eb 04       	add	r11, r7
 70020b2:	c2 5c       	sar	2, r6
 70020b4:	a6 b5 01 00 	andi	1, r6, r13
 70020b8:	c1 5c       	sar	1, r6
 70020ba:	cd 04       	add	r13, r6
 70020bc:	d2 dc 00 00 	st.w	r6, 0[r18]
 70020c0:	e2 5c       	sar	2, r7
 70020c2:	a7 b5 01 00 	andi	1, r7, r13
 70020c6:	e1 5c       	sar	1, r7
 70020c8:	ed 04       	add	r13, r7
 70020ca:	87 09       	sub	r7, r12
 70020cc:	93 dd 00 00 	st.w	r12, 0[r19]
 70020d0:	1f 18       	jmp	[lp]
	...

070020d4 <_g3d_drawObject>:
 70020d4:	63 a4 a4 ff 	addi	-92, sp, sp
 70020d8:	e3 df 58 00 	st.w	lp, 88[sp]
 70020dc:	c3 dc 5c 00 	st.w	r6, 92[sp]
 70020e0:	43 a5 24 00 	addi	36, sp, r10
 70020e4:	43 dd 4c 00 	st.w	r10, 76[sp]
 70020e8:	43 a5 10 00 	addi	16, sp, r10
 70020ec:	43 dd 50 00 	st.w	r10, 80[sp]
 70020f0:	c3 cc 5c 00 	ld.w	92[sp],r6
 70020f4:	40 bd 00 07 	movhi	1792, r0, r10
 70020f8:	4a a1 c8 24 	movea	9416, r10, r10
 70020fc:	00 ac 04 00 	jal	7002100 <_g3d_drawObject+0x2c>
 7002100:	e4 47       	add	4, lp
 7002102:	0a 18       	jmp	[r10]
 7002104:	43 cd 5c 00 	ld.w	92[sp],r10
 7002108:	4a c1 00 00 	ld.b	0[r10],r10
 700210c:	4a b5 ff 00 	andi	255, r10, r10
 7002110:	40 0d       	cmp	r0, r10
 7002112:	06 94       	bne	7002118 <_g3d_drawObject+0x44>
 7002114:	00 a8 a8 03 	jr	70024bc <_g3d_drawObject+0x3e8>
 7002118:	43 cd 5c 00 	ld.w	92[sp],r10
 700211c:	4a cd c4 00 	ld.w	196[r10],r10
 7002120:	4a cd 00 00 	ld.w	0[r10],r10
 7002124:	43 dd 38 00 	st.w	r10, 56[sp]
 7002128:	43 cd 5c 00 	ld.w	92[sp],r10
 700212c:	4a cd c4 00 	ld.w	196[r10],r10
 7002130:	4a cd 04 00 	ld.w	4[r10],r10
 7002134:	43 dd 3c 00 	st.w	r10, 60[sp]
 7002138:	43 cd 5c 00 	ld.w	92[sp],r10
 700213c:	4a cd c4 00 	ld.w	196[r10],r10
 7002140:	4a cd 08 00 	ld.w	8[r10],r10
 7002144:	43 dd 44 00 	st.w	r10, 68[sp]
 7002148:	03 dc 40 00 	st.w	r0, 64[sp]
 700214c:	03 dc 48 00 	st.w	r0, 72[sp]
 7002150:	22 40       	mov	2, r1
 7002152:	38 70       	ldsr	r1, chcw
 7002154:	40 bd 00 05 	movhi	1280, r0, r10
 7002158:	4a a1 20 00 	movea	32, r10, r10
 700215c:	6a cd 00 00 	ld.w	0[r10],r11
 7002160:	40 bd 00 05 	movhi	1280, r0, r10
 7002164:	4a a1 24 00 	movea	36, r10, r10
 7002168:	6a dd 00 00 	st.w	r11, 0[r10]
 700216c:	d0 8a       	br	700223c <_g3d_drawObject+0x168>
 700216e:	43 cd 5c 00 	ld.w	92[sp],r10
 7002172:	6a cd c4 00 	ld.w	196[r10],r11
 7002176:	43 cd 40 00 	ld.w	64[sp],r10
 700217a:	43 45       	add	3, r10
 700217c:	42 51       	shl	2, r10
 700217e:	4b 05       	add	r11, r10
 7002180:	4a cd 00 00 	ld.w	0[r10],r10
 7002184:	43 dd 24 00 	st.w	r10, 36[sp]
 7002188:	43 cd 5c 00 	ld.w	92[sp],r10
 700218c:	6a cd c4 00 	ld.w	196[r10],r11
 7002190:	43 cd 40 00 	ld.w	64[sp],r10
 7002194:	41 45       	add	1, r10
 7002196:	43 45       	add	3, r10
 7002198:	42 51       	shl	2, r10
 700219a:	4b 05       	add	r11, r10
 700219c:	4a cd 00 00 	ld.w	0[r10],r10
 70021a0:	43 dd 28 00 	st.w	r10, 40[sp]
 70021a4:	43 cd 5c 00 	ld.w	92[sp],r10
 70021a8:	6a cd c4 00 	ld.w	196[r10],r11
 70021ac:	43 cd 40 00 	ld.w	64[sp],r10
 70021b0:	42 45       	add	2, r10
 70021b2:	43 45       	add	3, r10
 70021b4:	42 51       	shl	2, r10
 70021b6:	4b 05       	add	r11, r10
 70021b8:	4a cd 00 00 	ld.w	0[r10],r10
 70021bc:	43 dd 2c 00 	st.w	r10, 44[sp]
 70021c0:	83 a5 24 00 	addi	36, sp, r12
 70021c4:	63 a5 10 00 	addi	16, sp, r11
 70021c8:	43 cd 40 00 	ld.w	64[sp],r10
 70021cc:	40 0d       	cmp	r0, r10
 70021ce:	42 49       	setf	z, r10
 70021d0:	c3 cc 5c 00 	ld.w	92[sp],r6
 70021d4:	ec 00       	mov	r12, r7
 70021d6:	0b 01       	mov	r11, r8
 70021d8:	2a 01       	mov	r10, r9
 70021da:	40 bd 00 07 	movhi	1792, r0, r10
 70021de:	4a a1 00 1d 	movea	7424, r10, r10
 70021e2:	00 ac 04 00 	jal	70021e6 <_g3d_drawObject+0x112>
 70021e6:	e4 47       	add	4, lp
 70021e8:	0a 18       	jmp	[r10]
 70021ea:	43 cd 48 00 	ld.w	72[sp],r10
 70021ee:	60 bd 00 05 	movhi	1280, r0, r11
 70021f2:	6b a1 00 05 	movea	1280, r11, r11
 70021f6:	42 51       	shl	2, r10
 70021f8:	8a 01       	mov	r10, r12
 70021fa:	82 51       	shl	2, r12
 70021fc:	4c 05       	add	r12, r10
 70021fe:	4b 05       	add	r11, r10
 7002200:	63 cd 10 00 	ld.w	16[sp],r11
 7002204:	6a dd 00 00 	st.w	r11, 0[r10]
 7002208:	63 cd 14 00 	ld.w	20[sp],r11
 700220c:	6a dd 04 00 	st.w	r11, 4[r10]
 7002210:	63 cd 18 00 	ld.w	24[sp],r11
 7002214:	6a dd 08 00 	st.w	r11, 8[r10]
 7002218:	63 cd 1c 00 	ld.w	28[sp],r11
 700221c:	6a dd 0c 00 	st.w	r11, 12[r10]
 7002220:	63 cd 20 00 	ld.w	32[sp],r11
 7002224:	6a dd 10 00 	st.w	r11, 16[r10]
 7002228:	43 cd 48 00 	ld.w	72[sp],r10
 700222c:	41 45       	add	1, r10
 700222e:	43 dd 48 00 	st.w	r10, 72[sp]
 7002232:	43 cd 40 00 	ld.w	64[sp],r10
 7002236:	43 45       	add	3, r10
 7002238:	43 dd 40 00 	st.w	r10, 64[sp]
 700223c:	63 cd 40 00 	ld.w	64[sp],r11
 7002240:	43 cd 38 00 	ld.w	56[sp],r10
 7002244:	6a 0d       	cmp	r10, r11
 7002246:	28 8d       	blt	700216e <_g3d_drawObject+0x9a>
 7002248:	40 bd 00 05 	movhi	1280, r0, r10
 700224c:	4a a1 20 00 	movea	32, r10, r10
 7002250:	6a cd 00 00 	ld.w	0[r10],r11
 7002254:	40 bd 00 05 	movhi	1280, r0, r10
 7002258:	4a a1 28 00 	movea	40, r10, r10
 700225c:	6a dd 00 00 	st.w	r11, 0[r10]
 7002260:	40 bd 00 05 	movhi	1280, r0, r10
 7002264:	4a a1 28 00 	movea	40, r10, r10
 7002268:	6a cd 00 00 	ld.w	0[r10],r11
 700226c:	40 bd 00 05 	movhi	1280, r0, r10
 7002270:	4a a1 24 00 	movea	36, r10, r10
 7002274:	4a cd 00 00 	ld.w	0[r10],r10
 7002278:	6a 09       	sub	r10, r11
 700227a:	40 bd 00 05 	movhi	1280, r0, r10
 700227e:	4a a1 30 00 	movea	48, r10, r10
 7002282:	4a cd 00 00 	ld.w	0[r10],r10
 7002286:	6a 05       	add	r10, r11
 7002288:	40 bd 00 05 	movhi	1280, r0, r10
 700228c:	4a a1 30 00 	movea	48, r10, r10
 7002290:	6a dd 00 00 	st.w	r11, 0[r10]
 7002294:	18 70       	ldsr	r0, chcw
 7002296:	00 a8 0e 02 	jr	70024a4 <_g3d_drawObject+0x3d0>
 700229a:	43 cd 5c 00 	ld.w	92[sp],r10
 700229e:	6a cd c4 00 	ld.w	196[r10],r11
 70022a2:	43 cd 40 00 	ld.w	64[sp],r10
 70022a6:	43 45       	add	3, r10
 70022a8:	42 51       	shl	2, r10
 70022aa:	4b 05       	add	r11, r10
 70022ac:	4a cd 00 00 	ld.w	0[r10],r10
 70022b0:	42 51       	shl	2, r10
 70022b2:	6a 01       	mov	r10, r11
 70022b4:	62 51       	shl	2, r11
 70022b6:	4b 05       	add	r11, r10
 70022b8:	60 bd 00 05 	movhi	1280, r0, r11
 70022bc:	6b a1 00 05 	movea	1280, r11, r11
 70022c0:	4b 05       	add	r11, r10
 70022c2:	43 dd 4c 00 	st.w	r10, 76[sp]
 70022c6:	41 41       	mov	1, r10
 70022c8:	43 dd 48 00 	st.w	r10, 72[sp]
 70022cc:	00 a8 be 01 	jr	700248a <_g3d_drawObject+0x3b6>
 70022d0:	43 cd 40 00 	ld.w	64[sp],r10
 70022d4:	41 45       	add	1, r10
 70022d6:	43 dd 40 00 	st.w	r10, 64[sp]
 70022da:	43 cd 5c 00 	ld.w	92[sp],r10
 70022de:	6a cd c4 00 	ld.w	196[r10],r11
 70022e2:	43 cd 40 00 	ld.w	64[sp],r10
 70022e6:	43 45       	add	3, r10
 70022e8:	42 51       	shl	2, r10
 70022ea:	4b 05       	add	r11, r10
 70022ec:	4a cd 00 00 	ld.w	0[r10],r10
 70022f0:	42 51       	shl	2, r10
 70022f2:	6a 01       	mov	r10, r11
 70022f4:	62 51       	shl	2, r11
 70022f6:	4b 05       	add	r11, r10
 70022f8:	60 bd 00 05 	movhi	1280, r0, r11
 70022fc:	6b a1 00 05 	movea	1280, r11, r11
 7002300:	4b 05       	add	r11, r10
 7002302:	43 dd 50 00 	st.w	r10, 80[sp]
 7002306:	43 cd 4c 00 	ld.w	76[sp],r10
 700230a:	6a cd 08 00 	ld.w	8[r10],r11
 700230e:	40 bd 00 05 	movhi	1280, r0, r10
 7002312:	4a a1 20 53 	movea	21280, r10, r10
 7002316:	4a cd 8c 00 	ld.w	140[r10],r10
 700231a:	6a 0d       	cmp	r10, r11
 700231c:	1e 9e       	bgt	700233a <_g3d_drawObject+0x266>
 700231e:	43 cd 50 00 	ld.w	80[sp],r10
 7002322:	6a cd 08 00 	ld.w	8[r10],r11
 7002326:	40 bd 00 05 	movhi	1280, r0, r10
 700232a:	4a a1 20 53 	movea	21280, r10, r10
 700232e:	4a cd 8c 00 	ld.w	140[r10],r10
 7002332:	6a 0d       	cmp	r10, r11
 7002334:	06 9e       	bgt	700233a <_g3d_drawObject+0x266>
 7002336:	00 a8 32 01 	jr	7002468 <_g3d_drawObject+0x394>
 700233a:	40 bd 00 05 	movhi	1280, r0, r10
 700233e:	4a a1 20 00 	movea	32, r10, r10
 7002342:	6a cd 00 00 	ld.w	0[r10],r11
 7002346:	40 bd 00 05 	movhi	1280, r0, r10
 700234a:	4a a1 24 00 	movea	36, r10, r10
 700234e:	6a dd 00 00 	st.w	r11, 0[r10]
 7002352:	c3 cc 4c 00 	ld.w	76[sp],r6
 7002356:	e3 cc 50 00 	ld.w	80[sp],r7
 700235a:	40 bd 00 07 	movhi	1792, r0, r10
 700235e:	4a a1 70 26 	movea	9840, r10, r10
 7002362:	00 ac 04 00 	jal	7002366 <_g3d_drawObject+0x292>
 7002366:	e4 47       	add	4, lp
 7002368:	0a 18       	jmp	[r10]
 700236a:	c3 cc 4c 00 	ld.w	76[sp],r6
 700236e:	40 bd 00 07 	movhi	1792, r0, r10
 7002372:	4a a1 44 20 	movea	8260, r10, r10
 7002376:	00 ac 04 00 	jal	700237a <_g3d_drawObject+0x2a6>
 700237a:	e4 47       	add	4, lp
 700237c:	0a 18       	jmp	[r10]
 700237e:	c3 cc 50 00 	ld.w	80[sp],r6
 7002382:	40 bd 00 07 	movhi	1792, r0, r10
 7002386:	4a a1 44 20 	movea	8260, r10, r10
 700238a:	00 ac 04 00 	jal	700238e <_g3d_drawObject+0x2ba>
 700238e:	e4 47       	add	4, lp
 7002390:	0a 18       	jmp	[r10]
 7002392:	40 bd 00 05 	movhi	1280, r0, r10
 7002396:	4a a1 20 00 	movea	32, r10, r10
 700239a:	6a cd 00 00 	ld.w	0[r10],r11
 700239e:	40 bd 00 05 	movhi	1280, r0, r10
 70023a2:	4a a1 28 00 	movea	40, r10, r10
 70023a6:	6a dd 00 00 	st.w	r11, 0[r10]
 70023aa:	40 bd 00 05 	movhi	1280, r0, r10
 70023ae:	4a a1 28 00 	movea	40, r10, r10
 70023b2:	6a cd 00 00 	ld.w	0[r10],r11
 70023b6:	40 bd 00 05 	movhi	1280, r0, r10
 70023ba:	4a a1 24 00 	movea	36, r10, r10
 70023be:	4a cd 00 00 	ld.w	0[r10],r10
 70023c2:	6a 09       	sub	r10, r11
 70023c4:	40 bd 00 05 	movhi	1280, r0, r10
 70023c8:	4a a1 34 00 	movea	52, r10, r10
 70023cc:	4a cd 00 00 	ld.w	0[r10],r10
 70023d0:	6a 05       	add	r10, r11
 70023d2:	40 bd 00 05 	movhi	1280, r0, r10
 70023d6:	4a a1 34 00 	movea	52, r10, r10
 70023da:	6a dd 00 00 	st.w	r11, 0[r10]
 70023de:	40 bd 00 05 	movhi	1280, r0, r10
 70023e2:	4a a1 20 00 	movea	32, r10, r10
 70023e6:	6a cd 00 00 	ld.w	0[r10],r11
 70023ea:	40 bd 00 05 	movhi	1280, r0, r10
 70023ee:	4a a1 24 00 	movea	36, r10, r10
 70023f2:	6a dd 00 00 	st.w	r11, 0[r10]
 70023f6:	43 cd 5c 00 	ld.w	92[sp],r10
 70023fa:	4a c1 02 00 	ld.b	2[r10],r10
 70023fe:	4a b5 ff 00 	andi	255, r10, r10
 7002402:	c3 cc 4c 00 	ld.w	76[sp],r6
 7002406:	e3 cc 50 00 	ld.w	80[sp],r7
 700240a:	0a 01       	mov	r10, r8
 700240c:	40 bd 00 07 	movhi	1792, r0, r10
 7002410:	4a a1 b4 29 	movea	10676, r10, r10
 7002414:	00 ac 04 00 	jal	7002418 <_g3d_drawObject+0x344>
 7002418:	e4 47       	add	4, lp
 700241a:	0a 18       	jmp	[r10]
 700241c:	40 bd 00 05 	movhi	1280, r0, r10
 7002420:	4a a1 20 00 	movea	32, r10, r10
 7002424:	6a cd 00 00 	ld.w	0[r10],r11
 7002428:	40 bd 00 05 	movhi	1280, r0, r10
 700242c:	4a a1 28 00 	movea	40, r10, r10
 7002430:	6a dd 00 00 	st.w	r11, 0[r10]
 7002434:	40 bd 00 05 	movhi	1280, r0, r10
 7002438:	4a a1 28 00 	movea	40, r10, r10
 700243c:	6a cd 00 00 	ld.w	0[r10],r11
 7002440:	40 bd 00 05 	movhi	1280, r0, r10
 7002444:	4a a1 24 00 	movea	36, r10, r10
 7002448:	4a cd 00 00 	ld.w	0[r10],r10
 700244c:	6a 09       	sub	r10, r11
 700244e:	40 bd 00 05 	movhi	1280, r0, r10
 7002452:	4a a1 2c 00 	movea	44, r10, r10
 7002456:	4a cd 00 00 	ld.w	0[r10],r10
 700245a:	6a 05       	add	r10, r11
 700245c:	40 bd 00 05 	movhi	1280, r0, r10
 7002460:	4a a1 2c 00 	movea	44, r10, r10
 7002464:	6a dd 00 00 	st.w	r11, 0[r10]
 7002468:	43 cd 50 00 	ld.w	80[sp],r10
 700246c:	43 dd 54 00 	st.w	r10, 84[sp]
 7002470:	43 cd 50 00 	ld.w	80[sp],r10
 7002474:	43 dd 4c 00 	st.w	r10, 76[sp]
 7002478:	43 cd 54 00 	ld.w	84[sp],r10
 700247c:	43 dd 50 00 	st.w	r10, 80[sp]
 7002480:	43 cd 48 00 	ld.w	72[sp],r10
 7002484:	41 45       	add	1, r10
 7002486:	43 dd 48 00 	st.w	r10, 72[sp]
 700248a:	63 cd 48 00 	ld.w	72[sp],r11
 700248e:	43 cd 44 00 	ld.w	68[sp],r10
 7002492:	6a 0d       	cmp	r10, r11
 7002494:	06 9c       	bge	700249a <_g3d_drawObject+0x3c6>
 7002496:	ff ab 3a fe 	jr	70022d0 <_g3d_drawObject+0x1fc>
 700249a:	43 cd 40 00 	ld.w	64[sp],r10
 700249e:	41 45       	add	1, r10
 70024a0:	43 dd 40 00 	st.w	r10, 64[sp]
 70024a4:	63 cd 3c 00 	ld.w	60[sp],r11
 70024a8:	43 cd 38 00 	ld.w	56[sp],r10
 70024ac:	6a 05       	add	r10, r11
 70024ae:	43 cd 40 00 	ld.w	64[sp],r10
 70024b2:	6a 0d       	cmp	r10, r11
 70024b4:	06 8e       	ble	70024ba <_g3d_drawObject+0x3e6>
 70024b6:	ff ab e4 fd 	jr	700229a <_g3d_drawObject+0x1c6>
 70024ba:	04 8a       	br	70024be <_g3d_drawObject+0x3ea>
 70024bc:	00 9a       	nop	
 70024be:	e3 cf 58 00 	ld.w	88[sp],lp
 70024c2:	63 a4 5c 00 	addi	92, sp, sp
 70024c6:	1f 18       	jmp	[lp]

070024c8 <_g3d_clipObject>:
 70024c8:	63 a4 c0 ff 	addi	-64, sp, sp
 70024cc:	e3 df 3c 00 	st.w	lp, 60[sp]
 70024d0:	c3 dc 40 00 	st.w	r6, 64[sp]
 70024d4:	43 cd 40 00 	ld.w	64[sp],r10
 70024d8:	4a cd 24 00 	ld.w	36[r10],r10
 70024dc:	43 dd 14 00 	st.w	r10, 20[sp]
 70024e0:	43 cd 40 00 	ld.w	64[sp],r10
 70024e4:	4a cd 28 00 	ld.w	40[r10],r10
 70024e8:	43 dd 18 00 	st.w	r10, 24[sp]
 70024ec:	43 cd 40 00 	ld.w	64[sp],r10
 70024f0:	4a cd 2c 00 	ld.w	44[r10],r10
 70024f4:	43 dd 1c 00 	st.w	r10, 28[sp]
 70024f8:	40 bd 00 05 	movhi	1280, r0, r10
 70024fc:	4a a1 20 53 	movea	21280, r10, r10
 7002500:	aa cd 00 00 	ld.w	0[r10],r13
 7002504:	40 bd 00 05 	movhi	1280, r0, r10
 7002508:	4a a1 20 53 	movea	21280, r10, r10
 700250c:	8a cd 04 00 	ld.w	4[r10],r12
 7002510:	40 bd 00 05 	movhi	1280, r0, r10
 7002514:	4a a1 20 53 	movea	21280, r10, r10
 7002518:	6a cd 08 00 	ld.w	8[r10],r11
 700251c:	43 a5 14 00 	addi	20, sp, r10
 7002520:	c3 a5 28 00 	addi	40, sp, r14
 7002524:	c3 dd 10 00 	st.w	r14, 16[sp]
 7002528:	cd 00       	mov	r13, r6
 700252a:	ec 00       	mov	r12, r7
 700252c:	0b 01       	mov	r11, r8
 700252e:	2a 01       	mov	r10, r9
 7002530:	40 bd 00 07 	movhi	1792, r0, r10
 7002534:	4a a1 ac 1c 	movea	7340, r10, r10
 7002538:	00 ac 04 00 	jal	700253c <_g3d_clipObject+0x74>
 700253c:	e4 47       	add	4, lp
 700253e:	0a 18       	jmp	[r10]
 7002540:	63 a5 28 00 	addi	40, sp, r11
 7002544:	43 a5 14 00 	addi	20, sp, r10
 7002548:	cb 00       	mov	r11, r6
 700254a:	ea 00       	mov	r10, r7
 700254c:	40 bd 00 07 	movhi	1792, r0, r10
 7002550:	4a a1 6c 17 	movea	5996, r10, r10
 7002554:	00 ac 04 00 	jal	7002558 <_g3d_clipObject+0x90>
 7002558:	e4 47       	add	4, lp
 700255a:	0a 18       	jmp	[r10]
 700255c:	40 bd 00 05 	movhi	1280, r0, r10
 7002560:	4a a1 20 53 	movea	21280, r10, r10
 7002564:	4a cd 64 00 	ld.w	100[r10],r10
 7002568:	40 0d       	cmp	r0, r10
 700256a:	22 94       	bne	700258c <_g3d_clipObject+0xc4>
 700256c:	40 bd 00 05 	movhi	1280, r0, r10
 7002570:	4a a1 20 53 	movea	21280, r10, r10
 7002574:	4a cd 68 00 	ld.w	104[r10],r10
 7002578:	40 0d       	cmp	r0, r10
 700257a:	12 94       	bne	700258c <_g3d_clipObject+0xc4>
 700257c:	40 bd 00 05 	movhi	1280, r0, r10
 7002580:	4a a1 20 53 	movea	21280, r10, r10
 7002584:	4a cd 6c 00 	ld.w	108[r10],r10
 7002588:	40 0d       	cmp	r0, r10
 700258a:	66 84       	be	70025f0 <_g3d_clipObject+0x128>
 700258c:	40 bd 00 05 	movhi	1280, r0, r10
 7002590:	4a a1 20 53 	movea	21280, r10, r10
 7002594:	aa cd 64 00 	ld.w	100[r10],r13
 7002598:	40 bd 00 05 	movhi	1280, r0, r10
 700259c:	4a a1 20 53 	movea	21280, r10, r10
 70025a0:	8a cd 68 00 	ld.w	104[r10],r12
 70025a4:	40 bd 00 05 	movhi	1280, r0, r10
 70025a8:	4a a1 20 53 	movea	21280, r10, r10
 70025ac:	6a cd 6c 00 	ld.w	108[r10],r11
 70025b0:	43 a5 14 00 	addi	20, sp, r10
 70025b4:	c3 a5 28 00 	addi	40, sp, r14
 70025b8:	c3 dd 10 00 	st.w	r14, 16[sp]
 70025bc:	cd 00       	mov	r13, r6
 70025be:	ec 00       	mov	r12, r7
 70025c0:	0b 01       	mov	r11, r8
 70025c2:	2a 01       	mov	r10, r9
 70025c4:	40 bd 00 07 	movhi	1792, r0, r10
 70025c8:	4a a1 3c 1c 	movea	7228, r10, r10
 70025cc:	00 ac 04 00 	jal	70025d0 <_g3d_clipObject+0x108>
 70025d0:	e4 47       	add	4, lp
 70025d2:	0a 18       	jmp	[r10]
 70025d4:	63 a5 28 00 	addi	40, sp, r11
 70025d8:	43 a5 14 00 	addi	20, sp, r10
 70025dc:	cb 00       	mov	r11, r6
 70025de:	ea 00       	mov	r10, r7
 70025e0:	40 bd 00 07 	movhi	1792, r0, r10
 70025e4:	4a a1 6c 17 	movea	5996, r10, r10
 70025e8:	00 ac 04 00 	jal	70025ec <_g3d_clipObject+0x124>
 70025ec:	e4 47       	add	4, lp
 70025ee:	0a 18       	jmp	[r10]
 70025f0:	43 a5 14 00 	addi	20, sp, r10
 70025f4:	ca 00       	mov	r10, r6
 70025f6:	40 bd 00 07 	movhi	1792, r0, r10
 70025fa:	4a a1 44 20 	movea	8260, r10, r10
 70025fe:	00 ac 04 00 	jal	7002602 <_g3d_clipObject+0x13a>
 7002602:	e4 47       	add	4, lp
 7002604:	0a 18       	jmp	[r10]
 7002606:	43 cd 40 00 	ld.w	64[sp],r10
 700260a:	61 41       	mov	1, r11
 700260c:	6a d1 00 00 	st.b	r11, 0[r10]
 7002610:	43 cd 20 00 	ld.w	32[sp],r10
 7002614:	40 0d       	cmp	r0, r10
 7002616:	0e 8c       	blt	7002624 <_g3d_clipObject+0x15c>
 7002618:	63 cd 20 00 	ld.w	32[sp],r11
 700261c:	40 a1 80 01 	movea	384, r0, r10
 7002620:	6a 0d       	cmp	r10, r11
 7002622:	0a 8e       	ble	700262c <_g3d_clipObject+0x164>
 7002624:	43 cd 40 00 	ld.w	64[sp],r10
 7002628:	0a d0 00 00 	st.b	r0, 0[r10]
 700262c:	43 cd 24 00 	ld.w	36[sp],r10
 7002630:	40 0d       	cmp	r0, r10
 7002632:	0e 8c       	blt	7002640 <_g3d_clipObject+0x178>
 7002634:	63 cd 24 00 	ld.w	36[sp],r11
 7002638:	40 a1 e0 00 	movea	224, r0, r10
 700263c:	6a 0d       	cmp	r10, r11
 700263e:	0a 8e       	ble	7002648 <_g3d_clipObject+0x180>
 7002640:	43 cd 40 00 	ld.w	64[sp],r10
 7002644:	0a d0 00 00 	st.b	r0, 0[r10]
 7002648:	63 cd 1c 00 	ld.w	28[sp],r11
 700264c:	40 bd 00 05 	movhi	1280, r0, r10
 7002650:	4a a1 20 53 	movea	21280, r10, r10
 7002654:	4a cd 8c 00 	ld.w	140[r10],r10
 7002658:	41 5d       	sar	1, r10
 700265a:	6a 0d       	cmp	r10, r11
 700265c:	0a 9c       	bge	7002666 <_g3d_clipObject+0x19e>
 700265e:	43 cd 40 00 	ld.w	64[sp],r10
 7002662:	0a d0 00 00 	st.b	r0, 0[r10]
 7002666:	e3 cf 3c 00 	ld.w	60[sp],lp
 700266a:	63 a4 40 00 	addi	64, sp, sp
 700266e:	1f 18       	jmp	[lp]

07002670 <_g3d_clipZAxis>:
 7002670:	63 a4 e4 ff 	addi	-28, sp, sp
 7002674:	c3 dc 1c 00 	st.w	r6, 28[sp]
 7002678:	e3 dc 20 00 	st.w	r7, 32[sp]
 700267c:	43 cd 1c 00 	ld.w	28[sp],r10
 7002680:	6a cd 08 00 	ld.w	8[r10],r11
 7002684:	40 bd 00 05 	movhi	1280, r0, r10
 7002688:	4a a1 20 53 	movea	21280, r10, r10
 700268c:	4a cd 8c 00 	ld.w	140[r10],r10
 7002690:	6a 0d       	cmp	r10, r11
 7002692:	1e 8e       	ble	70026b0 <_g3d_clipZAxis+0x40>
 7002694:	43 cd 20 00 	ld.w	32[sp],r10
 7002698:	6a cd 08 00 	ld.w	8[r10],r11
 700269c:	40 bd 00 05 	movhi	1280, r0, r10
 70026a0:	4a a1 20 53 	movea	21280, r10, r10
 70026a4:	4a cd 8c 00 	ld.w	140[r10],r10
 70026a8:	6a 0d       	cmp	r10, r11
 70026aa:	06 8e       	ble	70026b0 <_g3d_clipZAxis+0x40>
 70026ac:	00 a8 72 01 	jr	700281e <_g3d_clipZAxis+0x1ae>
 70026b0:	43 cd 1c 00 	ld.w	28[sp],r10
 70026b4:	6a cd 08 00 	ld.w	8[r10],r11
 70026b8:	40 bd 00 05 	movhi	1280, r0, r10
 70026bc:	4a a1 20 53 	movea	21280, r10, r10
 70026c0:	4a cd 8c 00 	ld.w	140[r10],r10
 70026c4:	6a 0d       	cmp	r10, r11
 70026c6:	1e 9c       	bge	70026e4 <_g3d_clipZAxis+0x74>
 70026c8:	43 cd 20 00 	ld.w	32[sp],r10
 70026cc:	6a cd 08 00 	ld.w	8[r10],r11
 70026d0:	40 bd 00 05 	movhi	1280, r0, r10
 70026d4:	4a a1 20 53 	movea	21280, r10, r10
 70026d8:	4a cd 8c 00 	ld.w	140[r10],r10
 70026dc:	6a 0d       	cmp	r10, r11
 70026de:	06 9c       	bge	70026e4 <_g3d_clipZAxis+0x74>
 70026e0:	00 a8 42 01 	jr	7002822 <_g3d_clipZAxis+0x1b2>
 70026e4:	43 cd 1c 00 	ld.w	28[sp],r10
 70026e8:	6a cd 08 00 	ld.w	8[r10],r11
 70026ec:	40 bd 00 05 	movhi	1280, r0, r10
 70026f0:	4a a1 20 53 	movea	21280, r10, r10
 70026f4:	4a cd 8c 00 	ld.w	140[r10],r10
 70026f8:	6a 0d       	cmp	r10, r11
 70026fa:	14 9c       	bge	700270e <_g3d_clipZAxis+0x9e>
 70026fc:	43 cd 1c 00 	ld.w	28[sp],r10
 7002700:	43 dd 14 00 	st.w	r10, 20[sp]
 7002704:	43 cd 20 00 	ld.w	32[sp],r10
 7002708:	43 dd 18 00 	st.w	r10, 24[sp]
 700270c:	12 8a       	br	700271e <_g3d_clipZAxis+0xae>
 700270e:	43 cd 20 00 	ld.w	32[sp],r10
 7002712:	43 dd 14 00 	st.w	r10, 20[sp]
 7002716:	43 cd 1c 00 	ld.w	28[sp],r10
 700271a:	43 dd 18 00 	st.w	r10, 24[sp]
 700271e:	43 cd 18 00 	ld.w	24[sp],r10
 7002722:	6a cd 08 00 	ld.w	8[r10],r11
 7002726:	43 cd 14 00 	ld.w	20[sp],r10
 700272a:	4a cd 08 00 	ld.w	8[r10],r10
 700272e:	8b 01       	mov	r11, r12
 7002730:	8a 09       	sub	r10, r12
 7002732:	4c 01       	mov	r12, r10
 7002734:	44 5d       	sar	4, r10
 7002736:	43 dd 00 00 	st.w	r10, 0[sp]
 700273a:	43 cd 18 00 	ld.w	24[sp],r10
 700273e:	6a cd 00 00 	ld.w	0[r10],r11
 7002742:	43 cd 14 00 	ld.w	20[sp],r10
 7002746:	4a cd 00 00 	ld.w	0[r10],r10
 700274a:	8b 01       	mov	r11, r12
 700274c:	8a 09       	sub	r10, r12
 700274e:	4c 01       	mov	r12, r10
 7002750:	44 5d       	sar	4, r10
 7002752:	43 dd 04 00 	st.w	r10, 4[sp]
 7002756:	43 cd 18 00 	ld.w	24[sp],r10
 700275a:	6a cd 04 00 	ld.w	4[r10],r11
 700275e:	43 cd 14 00 	ld.w	20[sp],r10
 7002762:	4a cd 04 00 	ld.w	4[r10],r10
 7002766:	8b 01       	mov	r11, r12
 7002768:	8a 09       	sub	r10, r12
 700276a:	4c 01       	mov	r12, r10
 700276c:	44 5d       	sar	4, r10
 700276e:	43 dd 08 00 	st.w	r10, 8[sp]
 7002772:	40 bd 00 05 	movhi	1280, r0, r10
 7002776:	4a a1 20 53 	movea	21280, r10, r10
 700277a:	6a cd 8c 00 	ld.w	140[r10],r11
 700277e:	43 cd 14 00 	ld.w	20[sp],r10
 7002782:	4a cd 08 00 	ld.w	8[r10],r10
 7002786:	8b 01       	mov	r11, r12
 7002788:	8a 09       	sub	r10, r12
 700278a:	4c 01       	mov	r12, r10
 700278c:	43 dd 0c 00 	st.w	r10, 12[sp]
 7002790:	43 cd 00 00 	ld.w	0[sp],r10
 7002794:	40 0d       	cmp	r0, r10
 7002796:	3a 8e       	ble	70027d0 <_g3d_clipZAxis+0x160>
 7002798:	1e 8a       	br	70027b6 <_g3d_clipZAxis+0x146>
 700279a:	63 cd 0c 00 	ld.w	12[sp],r11
 700279e:	43 cd 00 00 	ld.w	0[sp],r10
 70027a2:	8b 01       	mov	r11, r12
 70027a4:	8a 09       	sub	r10, r12
 70027a6:	4c 01       	mov	r12, r10
 70027a8:	43 dd 0c 00 	st.w	r10, 12[sp]
 70027ac:	43 cd 10 00 	ld.w	16[sp],r10
 70027b0:	41 45       	add	1, r10
 70027b2:	43 dd 10 00 	st.w	r10, 16[sp]
 70027b6:	43 cd 0c 00 	ld.w	12[sp],r10
 70027ba:	40 0d       	cmp	r0, r10
 70027bc:	de 9f       	bgt	700279a <_g3d_clipZAxis+0x12a>
 70027be:	43 cd 10 00 	ld.w	16[sp],r10
 70027c2:	40 0d       	cmp	r0, r10
 70027c4:	0c 8e       	ble	70027d0 <_g3d_clipZAxis+0x160>
 70027c6:	43 cd 10 00 	ld.w	16[sp],r10
 70027ca:	5f 45       	add	-1, r10
 70027cc:	43 dd 10 00 	st.w	r10, 16[sp]
 70027d0:	40 bd 00 05 	movhi	1280, r0, r10
 70027d4:	4a a1 20 53 	movea	21280, r10, r10
 70027d8:	6a cd 8c 00 	ld.w	140[r10],r11
 70027dc:	43 cd 14 00 	ld.w	20[sp],r10
 70027e0:	6a dd 08 00 	st.w	r11, 8[r10]
 70027e4:	43 cd 14 00 	ld.w	20[sp],r10
 70027e8:	6a cd 00 00 	ld.w	0[r10],r11
 70027ec:	83 cd 04 00 	ld.w	4[sp],r12
 70027f0:	43 cd 10 00 	ld.w	16[sp],r10
 70027f4:	4c 21       	mul	r12, r10
 70027f6:	6a 05       	add	r10, r11
 70027f8:	43 cd 14 00 	ld.w	20[sp],r10
 70027fc:	6a dd 00 00 	st.w	r11, 0[r10]
 7002800:	43 cd 14 00 	ld.w	20[sp],r10
 7002804:	6a cd 04 00 	ld.w	4[r10],r11
 7002808:	83 cd 08 00 	ld.w	8[sp],r12
 700280c:	43 cd 10 00 	ld.w	16[sp],r10
 7002810:	4c 21       	mul	r12, r10
 7002812:	6a 05       	add	r10, r11
 7002814:	43 cd 14 00 	ld.w	20[sp],r10
 7002818:	6a dd 04 00 	st.w	r11, 4[r10]
 700281c:	08 8a       	br	7002824 <_g3d_clipZAxis+0x1b4>
 700281e:	00 9a       	nop	
 7002820:	04 8a       	br	7002824 <_g3d_clipZAxis+0x1b4>
 7002822:	00 9a       	nop	
 7002824:	63 a4 1c 00 	addi	28, sp, sp
 7002828:	1f 18       	jmp	[lp]
	...

0700282c <_drawPoint>:
 700282c:	74 44       	add	-12, sp
 700282e:	c3 dc 0c 00 	st.w	r6, 12[sp]
 7002832:	e3 dc 10 00 	st.w	r7, 16[sp]
 7002836:	48 01       	mov	r8, r10
 7002838:	23 dd 18 00 	st.w	r9, 24[sp]
 700283c:	43 d1 14 00 	st.b	r10, 20[sp]
 7002840:	43 cd 10 00 	ld.w	16[sp],r10
 7002844:	40 0d       	cmp	r0, r10
 7002846:	06 9c       	bge	700284c <_drawPoint+0x20>
 7002848:	00 a8 48 01 	jr	7002990 <_drawPoint+0x164>
 700284c:	63 cd 10 00 	ld.w	16[sp],r11
 7002850:	40 a1 e0 00 	movea	224, r0, r10
 7002854:	6a 0d       	cmp	r10, r11
 7002856:	06 8e       	ble	700285c <_drawPoint+0x30>
 7002858:	00 a8 3c 01 	jr	7002994 <_drawPoint+0x168>
 700285c:	43 cd 0c 00 	ld.w	12[sp],r10
 7002860:	40 0d       	cmp	r0, r10
 7002862:	06 9c       	bge	7002868 <_drawPoint+0x3c>
 7002864:	00 a8 34 01 	jr	7002998 <_drawPoint+0x16c>
 7002868:	63 cd 0c 00 	ld.w	12[sp],r11
 700286c:	40 a1 80 01 	movea	384, r0, r10
 7002870:	6a 0d       	cmp	r10, r11
 7002872:	06 8e       	ble	7002878 <_drawPoint+0x4c>
 7002874:	00 a8 28 01 	jr	700299c <_drawPoint+0x170>
 7002878:	63 cd 18 00 	ld.w	24[sp],r11
 700287c:	40 a1 14 00 	movea	20, r0, r10
 7002880:	6a 0d       	cmp	r10, r11
 7002882:	0a 8e       	ble	700288c <_drawPoint+0x60>
 7002884:	40 a1 14 00 	movea	20, r0, r10
 7002888:	43 dd 18 00 	st.w	r10, 24[sp]
 700288c:	63 cd 0c 00 	ld.w	12[sp],r11
 7002890:	43 cd 18 00 	ld.w	24[sp],r10
 7002894:	8b 01       	mov	r11, r12
 7002896:	8a 09       	sub	r10, r12
 7002898:	4c 01       	mov	r12, r10
 700289a:	6a 01       	mov	r10, r11
 700289c:	64 51       	shl	4, r11
 700289e:	43 cd 10 00 	ld.w	16[sp],r10
 70028a2:	44 5d       	sar	4, r10
 70028a4:	4b 05       	add	r11, r10
 70028a6:	43 dd 00 00 	st.w	r10, 0[sp]
 70028aa:	43 cd 18 00 	ld.w	24[sp],r10
 70028ae:	6a 01       	mov	r10, r11
 70028b0:	65 51       	shl	5, r11
 70028b2:	43 cd 00 00 	ld.w	0[sp],r10
 70028b6:	4b 05       	add	r11, r10
 70028b8:	43 dd 04 00 	st.w	r10, 4[sp]
 70028bc:	63 cd 00 00 	ld.w	0[sp],r11
 70028c0:	40 a1 00 18 	movea	6144, r0, r10
 70028c4:	6a 0d       	cmp	r10, r11
 70028c6:	da 9e       	bgt	70029a0 <_drawPoint+0x174>
 70028c8:	43 cd 00 00 	ld.w	0[sp],r10
 70028cc:	40 0d       	cmp	r0, r10
 70028ce:	d6 8c       	blt	70029a4 <_drawPoint+0x178>
 70028d0:	63 cd 04 00 	ld.w	4[sp],r11
 70028d4:	40 a1 00 18 	movea	6144, r0, r10
 70028d8:	6a 0d       	cmp	r10, r11
 70028da:	ce 9e       	bgt	70029a8 <_drawPoint+0x17c>
 70028dc:	43 cd 04 00 	ld.w	4[sp],r10
 70028e0:	40 0d       	cmp	r0, r10
 70028e2:	ca 8c       	blt	70029ac <_drawPoint+0x180>
 70028e4:	43 c1 14 00 	ld.b	20[sp],r10
 70028e8:	4a b5 03 00 	andi	3, r10, r10
 70028ec:	43 d1 14 00 	st.b	r10, 20[sp]
 70028f0:	43 cd 10 00 	ld.w	16[sp],r10
 70028f4:	4a b5 0f 00 	andi	15, r10, r10
 70028f8:	4a 05       	add	r10, r10
 70028fa:	43 d1 0b 00 	st.b	r10, 11[sp]
 70028fe:	40 bd 00 05 	movhi	1280, r0, r10
 7002902:	4a a1 04 00 	movea	4, r10, r10
 7002906:	6a cd 00 00 	ld.w	0[r10],r11
 700290a:	43 cd 00 00 	ld.w	0[sp],r10
 700290e:	42 51       	shl	2, r10
 7002910:	6a 05       	add	r10, r11
 7002912:	40 bd 00 05 	movhi	1280, r0, r10
 7002916:	4a a1 04 00 	movea	4, r10, r10
 700291a:	8a cd 00 00 	ld.w	0[r10],r12
 700291e:	43 cd 00 00 	ld.w	0[sp],r10
 7002922:	42 51       	shl	2, r10
 7002924:	4c 05       	add	r12, r10
 7002926:	8a cd 00 00 	ld.w	0[r10],r12
 700292a:	43 c1 14 00 	ld.b	20[sp],r10
 700292e:	4a b5 ff 00 	andi	255, r10, r10
 7002932:	a3 c1 0b 00 	ld.b	11[sp],r13
 7002936:	ad b5 ff 00 	andi	255, r13, r13
 700293a:	4d 11       	shl	r13, r10
 700293c:	4c 31       	or	r12, r10
 700293e:	4b dd 00 00 	st.w	r10, 0[r11]
 7002942:	40 bd 00 05 	movhi	1280, r0, r10
 7002946:	4a a1 04 00 	movea	4, r10, r10
 700294a:	6a cd 00 00 	ld.w	0[r10],r11
 700294e:	43 cd 04 00 	ld.w	4[sp],r10
 7002952:	4a a5 00 40 	addi	16384, r10, r10
 7002956:	42 51       	shl	2, r10
 7002958:	6a 05       	add	r10, r11
 700295a:	40 bd 00 05 	movhi	1280, r0, r10
 700295e:	4a a1 04 00 	movea	4, r10, r10
 7002962:	8a cd 00 00 	ld.w	0[r10],r12
 7002966:	43 cd 04 00 	ld.w	4[sp],r10
 700296a:	4a a5 00 40 	addi	16384, r10, r10
 700296e:	42 51       	shl	2, r10
 7002970:	4c 05       	add	r12, r10
 7002972:	8a cd 00 00 	ld.w	0[r10],r12
 7002976:	43 c1 14 00 	ld.b	20[sp],r10
 700297a:	4a b5 ff 00 	andi	255, r10, r10
 700297e:	a3 c1 0b 00 	ld.b	11[sp],r13
 7002982:	ad b5 ff 00 	andi	255, r13, r13
 7002986:	4d 11       	shl	r13, r10
 7002988:	4c 31       	or	r12, r10
 700298a:	4b dd 00 00 	st.w	r10, 0[r11]
 700298e:	20 8a       	br	70029ae <_drawPoint+0x182>
 7002990:	00 9a       	nop	
 7002992:	1c 8a       	br	70029ae <_drawPoint+0x182>
 7002994:	00 9a       	nop	
 7002996:	18 8a       	br	70029ae <_drawPoint+0x182>
 7002998:	00 9a       	nop	
 700299a:	14 8a       	br	70029ae <_drawPoint+0x182>
 700299c:	00 9a       	nop	
 700299e:	10 8a       	br	70029ae <_drawPoint+0x182>
 70029a0:	00 9a       	nop	
 70029a2:	0c 8a       	br	70029ae <_drawPoint+0x182>
 70029a4:	00 9a       	nop	
 70029a6:	08 8a       	br	70029ae <_drawPoint+0x182>
 70029a8:	00 9a       	nop	
 70029aa:	04 8a       	br	70029ae <_drawPoint+0x182>
 70029ac:	00 9a       	nop	
 70029ae:	6c 44       	add	12, sp
 70029b0:	1f 18       	jmp	[lp]
	...

070029b4 <_g3d_drawLine>:
 70029b4:	63 a4 98 ff 	addi	-104, sp, sp
 70029b8:	e3 df 64 00 	st.w	lp, 100[sp]
 70029bc:	a3 de 60 00 	st.w	r21, 96[sp]
 70029c0:	c3 de 5c 00 	st.w	r22, 92[sp]
 70029c4:	e3 de 58 00 	st.w	r23, 88[sp]
 70029c8:	03 df 54 00 	st.w	r24, 84[sp]
 70029cc:	23 df 50 00 	st.w	r25, 80[sp]
 70029d0:	43 df 4c 00 	st.w	r26, 76[sp]
 70029d4:	63 df 48 00 	st.w	r27, 72[sp]
 70029d8:	83 df 44 00 	st.w	r28, 68[sp]
 70029dc:	a3 df 40 00 	st.w	r29, 64[sp]
 70029e0:	c3 dc 68 00 	st.w	r6, 104[sp]
 70029e4:	e3 dc 6c 00 	st.w	r7, 108[sp]
 70029e8:	48 01       	mov	r8, r10
 70029ea:	43 d1 70 00 	st.b	r10, 112[sp]
 70029ee:	43 cd 68 00 	ld.w	104[sp],r10
 70029f2:	4a cd 0c 00 	ld.w	12[r10],r10
 70029f6:	43 dd 34 00 	st.w	r10, 52[sp]
 70029fa:	43 cd 68 00 	ld.w	104[sp],r10
 70029fe:	4a cd 10 00 	ld.w	16[r10],r10
 7002a02:	43 dd 30 00 	st.w	r10, 48[sp]
 7002a06:	43 cd 6c 00 	ld.w	108[sp],r10
 7002a0a:	4a cd 0c 00 	ld.w	12[r10],r10
 7002a0e:	43 dd 38 00 	st.w	r10, 56[sp]
 7002a12:	43 cd 6c 00 	ld.w	108[sp],r10
 7002a16:	4a cd 10 00 	ld.w	16[r10],r10
 7002a1a:	43 dd 3c 00 	st.w	r10, 60[sp]
 7002a1e:	43 cd 34 00 	ld.w	52[sp],r10
 7002a22:	63 cd 38 00 	ld.w	56[sp],r11
 7002a26:	8b 01       	mov	r11, r12
 7002a28:	8a 09       	sub	r10, r12
 7002a2a:	4c 01       	mov	r12, r10
 7002a2c:	43 dd 28 00 	st.w	r10, 40[sp]
 7002a30:	43 cd 30 00 	ld.w	48[sp],r10
 7002a34:	63 cd 3c 00 	ld.w	60[sp],r11
 7002a38:	ab 01       	mov	r11, r13
 7002a3a:	aa 09       	sub	r10, r13
 7002a3c:	4d 01       	mov	r13, r10
 7002a3e:	43 dd 24 00 	st.w	r10, 36[sp]
 7002a42:	43 cd 68 00 	ld.w	104[sp],r10
 7002a46:	aa cd 08 00 	ld.w	8[r10],r13
 7002a4a:	43 cd 6c 00 	ld.w	108[sp],r10
 7002a4e:	4a cd 08 00 	ld.w	8[r10],r10
 7002a52:	63 cd 68 00 	ld.w	104[sp],r11
 7002a56:	8b cd 08 00 	ld.w	8[r11],r12
 7002a5a:	63 cd 6c 00 	ld.w	108[sp],r11
 7002a5e:	6b cd 08 00 	ld.w	8[r11],r11
 7002a62:	cd 01       	mov	r13, r14
 7002a64:	ca 09       	sub	r10, r14
 7002a66:	4e 01       	mov	r14, r10
 7002a68:	43 5d       	sar	3, r10
 7002a6a:	ac 01       	mov	r12, r13
 7002a6c:	ab 09       	sub	r11, r13
 7002a6e:	6d 01       	mov	r13, r11
 7002a70:	62 5d       	sar	2, r11
 7002a72:	6b b5 01 00 	andi	1, r11, r11
 7002a76:	4b 05       	add	r11, r10
 7002a78:	41 45       	add	1, r10
 7002a7a:	4a 3d       	not	r10, r10
 7002a7c:	43 dd 20 00 	st.w	r10, 32[sp]
 7002a80:	43 cd 28 00 	ld.w	40[sp],r10
 7002a84:	40 0d       	cmp	r0, r10
 7002a86:	06 9c       	bge	7002a8c <_g3d_drawLine+0xd8>
 7002a88:	5f 41       	mov	-1, r10
 7002a8a:	04 8a       	br	7002a8e <_g3d_drawLine+0xda>
 7002a8c:	41 41       	mov	1, r10
 7002a8e:	43 dd 1c 00 	st.w	r10, 28[sp]
 7002a92:	43 cd 24 00 	ld.w	36[sp],r10
 7002a96:	40 0d       	cmp	r0, r10
 7002a98:	06 9c       	bge	7002a9e <_g3d_drawLine+0xea>
 7002a9a:	5f 41       	mov	-1, r10
 7002a9c:	04 8a       	br	7002aa0 <_g3d_drawLine+0xec>
 7002a9e:	41 41       	mov	1, r10
 7002aa0:	43 dd 18 00 	st.w	r10, 24[sp]
 7002aa4:	43 cd 20 00 	ld.w	32[sp],r10
 7002aa8:	40 0d       	cmp	r0, r10
 7002aaa:	06 9c       	bge	7002ab0 <_g3d_drawLine+0xfc>
 7002aac:	5f 41       	mov	-1, r10
 7002aae:	04 8a       	br	7002ab2 <_g3d_drawLine+0xfe>
 7002ab0:	41 41       	mov	1, r10
 7002ab2:	43 dd 14 00 	st.w	r10, 20[sp]
 7002ab6:	43 cd 28 00 	ld.w	40[sp],r10
 7002aba:	40 0d       	cmp	r0, r10
 7002abc:	0e 9c       	bge	7002aca <_g3d_drawLine+0x116>
 7002abe:	43 cd 28 00 	ld.w	40[sp],r10
 7002ac2:	4a 3d       	not	r10, r10
 7002ac4:	41 45       	add	1, r10
 7002ac6:	43 dd 28 00 	st.w	r10, 40[sp]
 7002aca:	43 cd 24 00 	ld.w	36[sp],r10
 7002ace:	40 0d       	cmp	r0, r10
 7002ad0:	0e 9c       	bge	7002ade <_g3d_drawLine+0x12a>
 7002ad2:	43 cd 24 00 	ld.w	36[sp],r10
 7002ad6:	4a 3d       	not	r10, r10
 7002ad8:	41 45       	add	1, r10
 7002ada:	43 dd 24 00 	st.w	r10, 36[sp]
 7002ade:	43 cd 20 00 	ld.w	32[sp],r10
 7002ae2:	40 0d       	cmp	r0, r10
 7002ae4:	0e 9c       	bge	7002af2 <_g3d_drawLine+0x13e>
 7002ae6:	43 cd 20 00 	ld.w	32[sp],r10
 7002aea:	4a 3d       	not	r10, r10
 7002aec:	41 45       	add	1, r10
 7002aee:	43 dd 20 00 	st.w	r10, 32[sp]
 7002af2:	43 cd 24 00 	ld.w	36[sp],r10
 7002af6:	63 cd 28 00 	ld.w	40[sp],r11
 7002afa:	4b 0d       	cmp	r11, r10
 7002afc:	04 9c       	bge	7002b00 <_g3d_drawLine+0x14c>
 7002afe:	4b 01       	mov	r11, r10
 7002b00:	41 45       	add	1, r10
 7002b02:	43 dd 10 00 	st.w	r10, 16[sp]
 7002b06:	43 cd 68 00 	ld.w	104[sp],r10
 7002b0a:	4a cd 08 00 	ld.w	8[r10],r10
 7002b0e:	43 dd 2c 00 	st.w	r10, 44[sp]
 7002b12:	22 40       	mov	2, r1
 7002b14:	38 70       	ldsr	r1, chcw
 7002b16:	40 bd 00 05 	movhi	1280, r0, r10
 7002b1a:	ea a3 04 00 	movea	4, r10, lp
 7002b1e:	c3 cc 24 00 	ld.w	36[sp],r6
 7002b22:	e3 cc 28 00 	ld.w	40[sp],r7
 7002b26:	03 cd 0c 00 	ld.w	12[sp],r8
 7002b2a:	23 cd 14 00 	ld.w	20[sp],r9
 7002b2e:	43 cd 20 00 	ld.w	32[sp],r10
 7002b32:	63 cd 10 00 	ld.w	16[sp],r11
 7002b36:	83 cd 30 00 	ld.w	48[sp],r12
 7002b3a:	a3 cd 18 00 	ld.w	24[sp],r13
 7002b3e:	c3 cd 2c 00 	ld.w	44[sp],r14
 7002b42:	e3 cd 34 00 	ld.w	52[sp],r15
 7002b46:	03 ce 1c 00 	ld.w	28[sp],r16
 7002b4a:	23 ce 08 00 	ld.w	8[sp],r17
 7002b4e:	43 ce 04 00 	ld.w	4[sp],r18
 7002b52:	63 c2 03 00 	ld.b	3[sp],r19
 7002b56:	a0 a2 e0 00 	movea	224, r0, r21
 7002b5a:	c0 a2 80 01 	movea	384, r0, r22
 7002b5e:	e0 a2 14 00 	movea	20, r0, r23
 7002b62:	1f cf 00 00 	ld.w	0[lp],r24
 7002b66:	20 a3 00 40 	movea	16384, r0, r25
 7002b6a:	22 53       	shl	2, r25
 7002b6c:	e6 0c       	cmp	r6, r7
 7002b6e:	a4 8e       	ble	7002c12 <_dxltdy>
 7002b70:	07 01       	mov	r7, r8
 7002b72:	01 5d       	sar	1, r8
 7002b74:	87 03       	mov	r7, r28
 7002b76:	e0 0c       	cmp	r0, r7
 7002b78:	04 94       	bne	7002b7c <_nextLine1>
 7002b7a:	81 43       	mov	1, r28

07002b7c <_nextLine1>:
 7002b7c:	aa 03       	mov	r10, r29
 7002b7e:	a3 53       	shl	3, r29
 7002b80:	bc 27       	div	r28, r29
 7002b82:	3d 21       	mul	r29, r9

07002b84 <_lineLoop1Top>:
 7002b84:	60 0d       	cmp	r0, r11
 7002b86:	8c 8e       	ble	7002c12 <_dxltdy>
 7002b88:	6b a5 ff ff 	addi	-1, r11, r11
 7002b8c:	63 c3 70 00 	ld.b	112[sp],r27
 7002b90:	4e 03       	mov	r14, r26
 7002b92:	43 5f       	sar	3, r26
 7002b94:	48 5f       	sar	8, r26
 7002b96:	80 0d       	cmp	r0, r12
 7002b98:	68 8c       	blt	7002c00 <_endDrawPoint1>
 7002b9a:	ac 0e       	cmp	r12, r21
 7002b9c:	64 8c       	blt	7002c00 <_endDrawPoint1>
 7002b9e:	e0 0d       	cmp	r0, r15
 7002ba0:	60 8c       	blt	7002c00 <_endDrawPoint1>
 7002ba2:	cf 0e       	cmp	r15, r22
 7002ba4:	5c 8c       	blt	7002c00 <_endDrawPoint1>
 7002ba6:	fa 0e       	cmp	r26, r23
 7002ba8:	04 9e       	bgt	7002bac <_nextPoint1>
 7002baa:	57 03       	mov	r23, r26

07002bac <_nextPoint1>:
 7002bac:	2c 02       	mov	r12, r17
 7002bae:	24 5e       	sar	4, r17
 7002bb0:	8f 03       	mov	r15, r28
 7002bb2:	9a 0b       	sub	r26, r28
 7002bb4:	84 53       	shl	4, r28
 7002bb6:	3c 06       	add	r28, r17
 7002bb8:	5a 02       	mov	r26, r18
 7002bba:	45 52       	shl	5, r18
 7002bbc:	51 06       	add	r17, r18
 7002bbe:	80 a3 ff 17 	movea	6143, r0, r28
 7002bc2:	3c 0e       	cmp	r28, r17
 7002bc4:	3c 9c       	bge	7002c00 <_endDrawPoint1>
 7002bc6:	20 0e       	cmp	r0, r17
 7002bc8:	38 8c       	blt	7002c00 <_endDrawPoint1>
 7002bca:	5c 0e       	cmp	r28, r18
 7002bcc:	34 9c       	bge	7002c00 <_endDrawPoint1>
 7002bce:	40 0e       	cmp	r0, r18
 7002bd0:	30 8c       	blt	7002c00 <_endDrawPoint1>
 7002bd2:	7b b7 03 00 	andi	3, r27, r27
 7002bd6:	6c b6 0f 00 	andi	15, r12, r19
 7002bda:	61 52       	shl	1, r19
 7002bdc:	91 03       	mov	r17, r28
 7002bde:	82 53       	shl	2, r28
 7002be0:	98 07       	add	r24, r28
 7002be2:	bc cf 00 00 	ld.w	0[r28],r29
 7002be6:	73 13       	shl	r19, r27
 7002be8:	bb 33       	or	r27, r29
 7002bea:	bc df 00 00 	st.w	r29, 0[r28]
 7002bee:	92 03       	mov	r18, r28
 7002bf0:	82 53       	shl	2, r28
 7002bf2:	99 07       	add	r25, r28
 7002bf4:	98 07       	add	r24, r28
 7002bf6:	bc cf 00 00 	ld.w	0[r28],r29
 7002bfa:	bb 33       	or	r27, r29
 7002bfc:	bc df 00 00 	st.w	r29, 0[r28]

07002c00 <_endDrawPoint1>:
 7002c00:	06 05       	add	r6, r8
 7002c02:	e8 0c       	cmp	r8, r7
 7002c04:	06 9e       	bgt	7002c0a <_nextLine2>
 7002c06:	8d 05       	add	r13, r12
 7002c08:	07 09       	sub	r7, r8

07002c0a <_nextLine2>:
 7002c0a:	c9 05       	add	r9, r14
 7002c0c:	f0 05       	add	r16, r15
 7002c0e:	ff ab 76 ff 	jr	7002b84 <_lineLoop1Top>

07002c12 <_dxltdy>:
 7002c12:	06 01       	mov	r6, r8
 7002c14:	01 5d       	sar	1, r8
 7002c16:	86 03       	mov	r6, r28
 7002c18:	c0 0c       	cmp	r0, r6
 7002c1a:	04 94       	bne	7002c1e <_nextLine3>
 7002c1c:	81 43       	mov	1, r28

07002c1e <_nextLine3>:
 7002c1e:	aa 03       	mov	r10, r29
 7002c20:	a3 53       	shl	3, r29
 7002c22:	bc 27       	div	r28, r29
 7002c24:	3d 21       	mul	r29, r9

07002c26 <_lineLoop2Top>:
 7002c26:	60 0d       	cmp	r0, r11
 7002c28:	90 8e       	ble	7002cb8 <_end>
 7002c2a:	6b a5 ff ff 	addi	-1, r11, r11
 7002c2e:	63 c3 70 00 	ld.b	112[sp],r27
 7002c32:	4e 03       	mov	r14, r26
 7002c34:	43 5f       	sar	3, r26
 7002c36:	48 5f       	sar	8, r26
 7002c38:	80 0d       	cmp	r0, r12
 7002c3a:	6c 8c       	blt	7002ca6 <_endDrawPoint2>
 7002c3c:	ac 0e       	cmp	r12, r21
 7002c3e:	68 8c       	blt	7002ca6 <_endDrawPoint2>
 7002c40:	e0 0d       	cmp	r0, r15
 7002c42:	64 8c       	blt	7002ca6 <_endDrawPoint2>
 7002c44:	cf 0e       	cmp	r15, r22
 7002c46:	60 8c       	blt	7002ca6 <_endDrawPoint2>
 7002c48:	fa 0e       	cmp	r26, r23
 7002c4a:	04 9e       	bgt	7002c4e <_nextPoint2>
 7002c4c:	57 03       	mov	r23, r26

07002c4e <_nextPoint2>:
 7002c4e:	2c 02       	mov	r12, r17
 7002c50:	24 5e       	sar	4, r17
 7002c52:	8f 03       	mov	r15, r28
 7002c54:	9a 0b       	sub	r26, r28
 7002c56:	84 53       	shl	4, r28
 7002c58:	3c 06       	add	r28, r17
 7002c5a:	5a 02       	mov	r26, r18
 7002c5c:	45 52       	shl	5, r18
 7002c5e:	51 06       	add	r17, r18
 7002c60:	80 a3 00 18 	movea	6144, r0, r28
 7002c64:	3c 0e       	cmp	r28, r17
 7002c66:	40 9c       	bge	7002ca6 <_endDrawPoint2>
 7002c68:	20 0e       	cmp	r0, r17
 7002c6a:	3c 8c       	blt	7002ca6 <_endDrawPoint2>
 7002c6c:	80 a3 00 18 	movea	6144, r0, r28
 7002c70:	5c 0e       	cmp	r28, r18
 7002c72:	34 9c       	bge	7002ca6 <_endDrawPoint2>
 7002c74:	40 0e       	cmp	r0, r18
 7002c76:	30 8c       	blt	7002ca6 <_endDrawPoint2>
 7002c78:	7b b7 03 00 	andi	3, r27, r27
 7002c7c:	6c b6 0f 00 	andi	15, r12, r19
 7002c80:	61 52       	shl	1, r19
 7002c82:	91 03       	mov	r17, r28
 7002c84:	82 53       	shl	2, r28
 7002c86:	98 07       	add	r24, r28
 7002c88:	bc cf 00 00 	ld.w	0[r28],r29
 7002c8c:	73 13       	shl	r19, r27
 7002c8e:	bb 33       	or	r27, r29
 7002c90:	bc df 00 00 	st.w	r29, 0[r28]
 7002c94:	92 03       	mov	r18, r28
 7002c96:	82 53       	shl	2, r28
 7002c98:	99 07       	add	r25, r28
 7002c9a:	98 07       	add	r24, r28
 7002c9c:	bc cf 00 00 	ld.w	0[r28],r29
 7002ca0:	bb 33       	or	r27, r29
 7002ca2:	bc df 00 00 	st.w	r29, 0[r28]

07002ca6 <_endDrawPoint2>:
 7002ca6:	07 05       	add	r7, r8
 7002ca8:	c8 0c       	cmp	r8, r6
 7002caa:	06 9e       	bgt	7002cb0 <_nextLine4>
 7002cac:	f0 05       	add	r16, r15
 7002cae:	06 09       	sub	r6, r8

07002cb0 <_nextLine4>:
 7002cb0:	c9 05       	add	r9, r14
 7002cb2:	8d 05       	add	r13, r12
 7002cb4:	ff ab 72 ff 	jr	7002c26 <_lineLoop2Top>

07002cb8 <_end>:
 7002cb8:	18 70       	ldsr	r0, chcw
 7002cba:	e3 cf 64 00 	ld.w	100[sp],lp
 7002cbe:	a3 ce 60 00 	ld.w	96[sp],r21
 7002cc2:	c3 ce 5c 00 	ld.w	92[sp],r22
 7002cc6:	e3 ce 58 00 	ld.w	88[sp],r23
 7002cca:	03 cf 54 00 	ld.w	84[sp],r24
 7002cce:	23 cf 50 00 	ld.w	80[sp],r25
 7002cd2:	43 cf 4c 00 	ld.w	76[sp],r26
 7002cd6:	63 cf 48 00 	ld.w	72[sp],r27
 7002cda:	83 cf 44 00 	ld.w	68[sp],r28
 7002cde:	a3 cf 40 00 	ld.w	64[sp],r29
 7002ce2:	63 a4 68 00 	addi	104, sp, sp
 7002ce6:	1f 18       	jmp	[lp]

07002ce8 <_g3d_initObject>:
 7002ce8:	c3 dc 00 00 	st.w	r6, 0[sp]
 7002cec:	43 cd 00 00 	ld.w	0[sp],r10
 7002cf0:	0a dc 24 00 	st.w	r0, 36[r10]
 7002cf4:	43 cd 00 00 	ld.w	0[sp],r10
 7002cf8:	0a dc 28 00 	st.w	r0, 40[r10]
 7002cfc:	43 cd 00 00 	ld.w	0[sp],r10
 7002d00:	0a dc 2c 00 	st.w	r0, 44[r10]
 7002d04:	43 cd 00 00 	ld.w	0[sp],r10
 7002d08:	0a dc 38 00 	st.w	r0, 56[r10]
 7002d0c:	43 cd 00 00 	ld.w	0[sp],r10
 7002d10:	0a dc 3c 00 	st.w	r0, 60[r10]
 7002d14:	43 cd 00 00 	ld.w	0[sp],r10
 7002d18:	0a dc 40 00 	st.w	r0, 64[r10]
 7002d1c:	43 cd 00 00 	ld.w	0[sp],r10
 7002d20:	0a dc 4c 00 	st.w	r0, 76[r10]
 7002d24:	43 cd 00 00 	ld.w	0[sp],r10
 7002d28:	0a dc 50 00 	st.w	r0, 80[r10]
 7002d2c:	43 cd 00 00 	ld.w	0[sp],r10
 7002d30:	0a dc 54 00 	st.w	r0, 84[r10]
 7002d34:	43 cd 00 00 	ld.w	0[sp],r10
 7002d38:	0a dc 60 00 	st.w	r0, 96[r10]
 7002d3c:	43 cd 00 00 	ld.w	0[sp],r10
 7002d40:	0a dc 64 00 	st.w	r0, 100[r10]
 7002d44:	43 cd 00 00 	ld.w	0[sp],r10
 7002d48:	0a dc 68 00 	st.w	r0, 104[r10]
 7002d4c:	43 cd 00 00 	ld.w	0[sp],r10
 7002d50:	0a dc 74 00 	st.w	r0, 116[r10]
 7002d54:	43 cd 00 00 	ld.w	0[sp],r10
 7002d58:	0a dc 78 00 	st.w	r0, 120[r10]
 7002d5c:	43 cd 00 00 	ld.w	0[sp],r10
 7002d60:	0a dc 7c 00 	st.w	r0, 124[r10]
 7002d64:	43 cd 00 00 	ld.w	0[sp],r10
 7002d68:	0a dc 88 00 	st.w	r0, 136[r10]
 7002d6c:	43 cd 00 00 	ld.w	0[sp],r10
 7002d70:	0a dc 8c 00 	st.w	r0, 140[r10]
 7002d74:	43 cd 00 00 	ld.w	0[sp],r10
 7002d78:	0a dc 90 00 	st.w	r0, 144[r10]
 7002d7c:	43 cd 00 00 	ld.w	0[sp],r10
 7002d80:	68 41       	mov	8, r11
 7002d82:	6a dd 9c 00 	st.w	r11, 156[r10]
 7002d86:	43 cd 00 00 	ld.w	0[sp],r10
 7002d8a:	68 41       	mov	8, r11
 7002d8c:	6a dd a0 00 	st.w	r11, 160[r10]
 7002d90:	43 cd 00 00 	ld.w	0[sp],r10
 7002d94:	68 41       	mov	8, r11
 7002d96:	6a dd a4 00 	st.w	r11, 164[r10]
 7002d9a:	43 cd 00 00 	ld.w	0[sp],r10
 7002d9e:	0a dc b0 00 	st.w	r0, 176[r10]
 7002da2:	43 cd 00 00 	ld.w	0[sp],r10
 7002da6:	0a dc b4 00 	st.w	r0, 180[r10]
 7002daa:	43 cd 00 00 	ld.w	0[sp],r10
 7002dae:	0a dc b8 00 	st.w	r0, 184[r10]
 7002db2:	43 cd 00 00 	ld.w	0[sp],r10
 7002db6:	0a dc 20 00 	st.w	r0, 32[r10]
 7002dba:	43 cd 00 00 	ld.w	0[sp],r10
 7002dbe:	61 41       	mov	1, r11
 7002dc0:	6a d1 00 00 	st.b	r11, 0[r10]
 7002dc4:	43 cd 00 00 	ld.w	0[sp],r10
 7002dc8:	0a d0 01 00 	st.b	r0, 1[r10]
 7002dcc:	43 cd 00 00 	ld.w	0[sp],r10
 7002dd0:	63 41       	mov	3, r11
 7002dd2:	6a d1 02 00 	st.b	r11, 2[r10]
 7002dd6:	1f 18       	jmp	[lp]

07002dd8 <_g3d_moveObject>:
 7002dd8:	63 a4 ec ff 	addi	-20, sp, sp
 7002ddc:	e3 df 10 00 	st.w	lp, 16[sp]
 7002de0:	c3 dc 14 00 	st.w	r6, 20[sp]
 7002de4:	43 cd 14 00 	ld.w	20[sp],r10
 7002de8:	4a cd 60 00 	ld.w	96[r10],r10
 7002dec:	40 0d       	cmp	r0, r10
 7002dee:	1c 84       	be	7002e0a <_g3d_moveObject+0x32>
 7002df0:	43 cd 14 00 	ld.w	20[sp],r10
 7002df4:	6a cd 4c 00 	ld.w	76[r10],r11
 7002df8:	43 cd 14 00 	ld.w	20[sp],r10
 7002dfc:	4a cd 60 00 	ld.w	96[r10],r10
 7002e00:	6a 05       	add	r10, r11
 7002e02:	43 cd 14 00 	ld.w	20[sp],r10
 7002e06:	6a dd 4c 00 	st.w	r11, 76[r10]
 7002e0a:	43 cd 14 00 	ld.w	20[sp],r10
 7002e0e:	4a cd 64 00 	ld.w	100[r10],r10
 7002e12:	40 0d       	cmp	r0, r10
 7002e14:	1c 84       	be	7002e30 <_g3d_moveObject+0x58>
 7002e16:	43 cd 14 00 	ld.w	20[sp],r10
 7002e1a:	6a cd 50 00 	ld.w	80[r10],r11
 7002e1e:	43 cd 14 00 	ld.w	20[sp],r10
 7002e22:	4a cd 64 00 	ld.w	100[r10],r10
 7002e26:	6a 05       	add	r10, r11
 7002e28:	43 cd 14 00 	ld.w	20[sp],r10
 7002e2c:	6a dd 50 00 	st.w	r11, 80[r10]
 7002e30:	43 cd 14 00 	ld.w	20[sp],r10
 7002e34:	4a cd 68 00 	ld.w	104[r10],r10
 7002e38:	40 0d       	cmp	r0, r10
 7002e3a:	1c 84       	be	7002e56 <_g3d_moveObject+0x7e>
 7002e3c:	43 cd 14 00 	ld.w	20[sp],r10
 7002e40:	6a cd 54 00 	ld.w	84[r10],r11
 7002e44:	43 cd 14 00 	ld.w	20[sp],r10
 7002e48:	4a cd 68 00 	ld.w	104[r10],r10
 7002e4c:	6a 05       	add	r10, r11
 7002e4e:	43 cd 14 00 	ld.w	20[sp],r10
 7002e52:	6a dd 54 00 	st.w	r11, 84[r10]
 7002e56:	43 cd 14 00 	ld.w	20[sp],r10
 7002e5a:	4a cd 88 00 	ld.w	136[r10],r10
 7002e5e:	40 0d       	cmp	r0, r10
 7002e60:	1c 84       	be	7002e7c <_g3d_moveObject+0xa4>
 7002e62:	43 cd 14 00 	ld.w	20[sp],r10
 7002e66:	6a cd 74 00 	ld.w	116[r10],r11
 7002e6a:	43 cd 14 00 	ld.w	20[sp],r10
 7002e6e:	4a cd 88 00 	ld.w	136[r10],r10
 7002e72:	6a 05       	add	r10, r11
 7002e74:	43 cd 14 00 	ld.w	20[sp],r10
 7002e78:	6a dd 74 00 	st.w	r11, 116[r10]
 7002e7c:	43 cd 14 00 	ld.w	20[sp],r10
 7002e80:	4a cd 8c 00 	ld.w	140[r10],r10
 7002e84:	40 0d       	cmp	r0, r10
 7002e86:	1c 84       	be	7002ea2 <_g3d_moveObject+0xca>
 7002e88:	43 cd 14 00 	ld.w	20[sp],r10
 7002e8c:	6a cd 78 00 	ld.w	120[r10],r11
 7002e90:	43 cd 14 00 	ld.w	20[sp],r10
 7002e94:	4a cd 8c 00 	ld.w	140[r10],r10
 7002e98:	6a 05       	add	r10, r11
 7002e9a:	43 cd 14 00 	ld.w	20[sp],r10
 7002e9e:	6a dd 78 00 	st.w	r11, 120[r10]
 7002ea2:	43 cd 14 00 	ld.w	20[sp],r10
 7002ea6:	4a cd 90 00 	ld.w	144[r10],r10
 7002eaa:	40 0d       	cmp	r0, r10
 7002eac:	1c 84       	be	7002ec8 <_g3d_moveObject+0xf0>
 7002eae:	43 cd 14 00 	ld.w	20[sp],r10
 7002eb2:	6a cd 7c 00 	ld.w	124[r10],r11
 7002eb6:	43 cd 14 00 	ld.w	20[sp],r10
 7002eba:	4a cd 90 00 	ld.w	144[r10],r10
 7002ebe:	6a 05       	add	r10, r11
 7002ec0:	43 cd 14 00 	ld.w	20[sp],r10
 7002ec4:	6a dd 7c 00 	st.w	r11, 124[r10]
 7002ec8:	43 cd 14 00 	ld.w	20[sp],r10
 7002ecc:	4a cd b0 00 	ld.w	176[r10],r10
 7002ed0:	40 0d       	cmp	r0, r10
 7002ed2:	1c 84       	be	7002eee <_g3d_moveObject+0x116>
 7002ed4:	43 cd 14 00 	ld.w	20[sp],r10
 7002ed8:	6a cd 9c 00 	ld.w	156[r10],r11
 7002edc:	43 cd 14 00 	ld.w	20[sp],r10
 7002ee0:	4a cd b0 00 	ld.w	176[r10],r10
 7002ee4:	6a 05       	add	r10, r11
 7002ee6:	43 cd 14 00 	ld.w	20[sp],r10
 7002eea:	6a dd 9c 00 	st.w	r11, 156[r10]
 7002eee:	43 cd 14 00 	ld.w	20[sp],r10
 7002ef2:	4a cd b4 00 	ld.w	180[r10],r10
 7002ef6:	40 0d       	cmp	r0, r10
 7002ef8:	1c 84       	be	7002f14 <_g3d_moveObject+0x13c>
 7002efa:	43 cd 14 00 	ld.w	20[sp],r10
 7002efe:	6a cd a0 00 	ld.w	160[r10],r11
 7002f02:	43 cd 14 00 	ld.w	20[sp],r10
 7002f06:	4a cd b4 00 	ld.w	180[r10],r10
 7002f0a:	6a 05       	add	r10, r11
 7002f0c:	43 cd 14 00 	ld.w	20[sp],r10
 7002f10:	6a dd a0 00 	st.w	r11, 160[r10]
 7002f14:	43 cd 14 00 	ld.w	20[sp],r10
 7002f18:	4a cd b8 00 	ld.w	184[r10],r10
 7002f1c:	40 0d       	cmp	r0, r10
 7002f1e:	34 84       	be	7002f52 <_g3d_moveObject+0x17a>
 7002f20:	43 cd 14 00 	ld.w	20[sp],r10
 7002f24:	6a cd a4 00 	ld.w	164[r10],r11
 7002f28:	43 cd 14 00 	ld.w	20[sp],r10
 7002f2c:	4a cd b8 00 	ld.w	184[r10],r10
 7002f30:	6a 05       	add	r10, r11
 7002f32:	43 cd 14 00 	ld.w	20[sp],r10
 7002f36:	6a dd a4 00 	st.w	r11, 164[r10]
 7002f3a:	1a 8a       	br	7002f54 <_g3d_moveObject+0x17c>
 7002f3c:	43 cd 14 00 	ld.w	20[sp],r10
 7002f40:	4a cd 4c 00 	ld.w	76[r10],r10
 7002f44:	6a a5 98 fe 	addi	-360, r10, r11
 7002f48:	43 cd 14 00 	ld.w	20[sp],r10
 7002f4c:	6a dd 4c 00 	st.w	r11, 76[r10]
 7002f50:	04 8a       	br	7002f54 <_g3d_moveObject+0x17c>
 7002f52:	00 9a       	nop	
 7002f54:	43 cd 14 00 	ld.w	20[sp],r10
 7002f58:	6a cd 4c 00 	ld.w	76[r10],r11
 7002f5c:	40 a1 67 01 	movea	359, r0, r10
 7002f60:	6a 0d       	cmp	r10, r11
 7002f62:	da 9f       	bgt	7002f3c <_g3d_moveObject+0x164>
 7002f64:	16 8a       	br	7002f7a <_g3d_moveObject+0x1a2>
 7002f66:	43 cd 14 00 	ld.w	20[sp],r10
 7002f6a:	4a cd 50 00 	ld.w	80[r10],r10
 7002f6e:	6a a5 98 fe 	addi	-360, r10, r11
 7002f72:	43 cd 14 00 	ld.w	20[sp],r10
 7002f76:	6a dd 50 00 	st.w	r11, 80[r10]
 7002f7a:	43 cd 14 00 	ld.w	20[sp],r10
 7002f7e:	6a cd 50 00 	ld.w	80[r10],r11
 7002f82:	40 a1 67 01 	movea	359, r0, r10
 7002f86:	6a 0d       	cmp	r10, r11
 7002f88:	de 9f       	bgt	7002f66 <_g3d_moveObject+0x18e>
 7002f8a:	16 8a       	br	7002fa0 <_g3d_moveObject+0x1c8>
 7002f8c:	43 cd 14 00 	ld.w	20[sp],r10
 7002f90:	4a cd 54 00 	ld.w	84[r10],r10
 7002f94:	6a a5 98 fe 	addi	-360, r10, r11
 7002f98:	43 cd 14 00 	ld.w	20[sp],r10
 7002f9c:	6a dd 54 00 	st.w	r11, 84[r10]
 7002fa0:	43 cd 14 00 	ld.w	20[sp],r10
 7002fa4:	6a cd 54 00 	ld.w	84[r10],r11
 7002fa8:	40 a1 67 01 	movea	359, r0, r10
 7002fac:	6a 0d       	cmp	r10, r11
 7002fae:	de 9f       	bgt	7002f8c <_g3d_moveObject+0x1b4>
 7002fb0:	16 8a       	br	7002fc6 <_g3d_moveObject+0x1ee>
 7002fb2:	43 cd 14 00 	ld.w	20[sp],r10
 7002fb6:	4a cd 4c 00 	ld.w	76[r10],r10
 7002fba:	6a a5 68 01 	addi	360, r10, r11
 7002fbe:	43 cd 14 00 	ld.w	20[sp],r10
 7002fc2:	6a dd 4c 00 	st.w	r11, 76[r10]
 7002fc6:	43 cd 14 00 	ld.w	20[sp],r10
 7002fca:	6a cd 4c 00 	ld.w	76[r10],r11
 7002fce:	40 a1 99 fe 	movea	-359, r0, r10
 7002fd2:	6a 0d       	cmp	r10, r11
 7002fd4:	de 8d       	blt	7002fb2 <_g3d_moveObject+0x1da>
 7002fd6:	16 8a       	br	7002fec <_g3d_moveObject+0x214>
 7002fd8:	43 cd 14 00 	ld.w	20[sp],r10
 7002fdc:	4a cd 50 00 	ld.w	80[r10],r10
 7002fe0:	6a a5 68 01 	addi	360, r10, r11
 7002fe4:	43 cd 14 00 	ld.w	20[sp],r10
 7002fe8:	6a dd 50 00 	st.w	r11, 80[r10]
 7002fec:	43 cd 14 00 	ld.w	20[sp],r10
 7002ff0:	6a cd 50 00 	ld.w	80[r10],r11
 7002ff4:	40 a1 99 fe 	movea	-359, r0, r10
 7002ff8:	6a 0d       	cmp	r10, r11
 7002ffa:	de 8d       	blt	7002fd8 <_g3d_moveObject+0x200>
 7002ffc:	16 8a       	br	7003012 <_g3d_moveObject+0x23a>
 7002ffe:	43 cd 14 00 	ld.w	20[sp],r10
 7003002:	4a cd 54 00 	ld.w	84[r10],r10
 7003006:	6a a5 68 01 	addi	360, r10, r11
 700300a:	43 cd 14 00 	ld.w	20[sp],r10
 700300e:	6a dd 54 00 	st.w	r11, 84[r10]
 7003012:	43 cd 14 00 	ld.w	20[sp],r10
 7003016:	6a cd 54 00 	ld.w	84[r10],r11
 700301a:	40 a1 99 fe 	movea	-359, r0, r10
 700301e:	6a 0d       	cmp	r10, r11
 7003020:	de 8d       	blt	7002ffe <_g3d_moveObject+0x226>
 7003022:	43 cd 14 00 	ld.w	20[sp],r10
 7003026:	6a cd 38 00 	ld.w	56[r10],r11
 700302a:	43 cd 14 00 	ld.w	20[sp],r10
 700302e:	4a cd 24 00 	ld.w	36[r10],r10
 7003032:	6a 0d       	cmp	r10, r11
 7003034:	b6 84       	be	70030ea <_g3d_moveObject+0x312>
 7003036:	c0 40       	mov	0, r6
 7003038:	e5 40       	mov	5, r7
 700303a:	01 41       	mov	1, r8
 700303c:	40 bd 00 07 	movhi	1792, r0, r10
 7003040:	2a a1 ac 75 	movea	30124, r10, r9
 7003044:	40 bd 00 07 	movhi	1792, r0, r10
 7003048:	4a a1 9c 0f 	movea	3996, r10, r10
 700304c:	00 ac 04 00 	jal	7003050 <_g3d_moveObject+0x278>
 7003050:	e4 47       	add	4, lp
 7003052:	0a 18       	jmp	[r10]
 7003054:	43 cd 14 00 	ld.w	20[sp],r10
 7003058:	6a cd 24 00 	ld.w	36[r10],r11
 700305c:	43 cd 14 00 	ld.w	20[sp],r10
 7003060:	4a cd 38 00 	ld.w	56[r10],r10
 7003064:	6a 0d       	cmp	r10, r11
 7003066:	42 9c       	bge	70030a8 <_g3d_moveObject+0x2d0>
 7003068:	43 cd 14 00 	ld.w	20[sp],r10
 700306c:	6a cd 24 00 	ld.w	36[r10],r11
 7003070:	43 cd 14 00 	ld.w	20[sp],r10
 7003074:	4a cd 74 00 	ld.w	116[r10],r10
 7003078:	6a 05       	add	r10, r11
 700307a:	43 cd 14 00 	ld.w	20[sp],r10
 700307e:	6a dd 24 00 	st.w	r11, 36[r10]
 7003082:	43 cd 14 00 	ld.w	20[sp],r10
 7003086:	6a cd 24 00 	ld.w	36[r10],r11
 700308a:	43 cd 14 00 	ld.w	20[sp],r10
 700308e:	4a cd 38 00 	ld.w	56[r10],r10
 7003092:	6a 0d       	cmp	r10, r11
 7003094:	54 8e       	ble	70030e8 <_g3d_moveObject+0x310>
 7003096:	43 cd 14 00 	ld.w	20[sp],r10
 700309a:	6a cd 38 00 	ld.w	56[r10],r11
 700309e:	43 cd 14 00 	ld.w	20[sp],r10
 70030a2:	6a dd 24 00 	st.w	r11, 36[r10]
 70030a6:	44 8a       	br	70030ea <_g3d_moveObject+0x312>
 70030a8:	43 cd 14 00 	ld.w	20[sp],r10
 70030ac:	6a cd 24 00 	ld.w	36[r10],r11
 70030b0:	43 cd 14 00 	ld.w	20[sp],r10
 70030b4:	4a cd 74 00 	ld.w	116[r10],r10
 70030b8:	6a 09       	sub	r10, r11
 70030ba:	43 cd 14 00 	ld.w	20[sp],r10
 70030be:	6a dd 24 00 	st.w	r11, 36[r10]
 70030c2:	43 cd 14 00 	ld.w	20[sp],r10
 70030c6:	6a cd 24 00 	ld.w	36[r10],r11
 70030ca:	43 cd 14 00 	ld.w	20[sp],r10
 70030ce:	4a cd 38 00 	ld.w	56[r10],r10
 70030d2:	6a 0d       	cmp	r10, r11
 70030d4:	16 9c       	bge	70030ea <_g3d_moveObject+0x312>
 70030d6:	43 cd 14 00 	ld.w	20[sp],r10
 70030da:	6a cd 38 00 	ld.w	56[r10],r11
 70030de:	43 cd 14 00 	ld.w	20[sp],r10
 70030e2:	6a dd 24 00 	st.w	r11, 36[r10]
 70030e6:	04 8a       	br	70030ea <_g3d_moveObject+0x312>
 70030e8:	00 9a       	nop	
 70030ea:	43 cd 14 00 	ld.w	20[sp],r10
 70030ee:	6a cd 3c 00 	ld.w	60[r10],r11
 70030f2:	43 cd 14 00 	ld.w	20[sp],r10
 70030f6:	4a cd 28 00 	ld.w	40[r10],r10
 70030fa:	6a 0d       	cmp	r10, r11
 70030fc:	b6 84       	be	70031b2 <_g3d_moveObject+0x3da>
 70030fe:	c0 40       	mov	0, r6
 7003100:	e5 40       	mov	5, r7
 7003102:	02 41       	mov	2, r8
 7003104:	40 bd 00 07 	movhi	1792, r0, r10
 7003108:	2a a1 b8 75 	movea	30136, r10, r9
 700310c:	40 bd 00 07 	movhi	1792, r0, r10
 7003110:	4a a1 9c 0f 	movea	3996, r10, r10
 7003114:	00 ac 04 00 	jal	7003118 <_g3d_moveObject+0x340>
 7003118:	e4 47       	add	4, lp
 700311a:	0a 18       	jmp	[r10]
 700311c:	43 cd 14 00 	ld.w	20[sp],r10
 7003120:	6a cd 28 00 	ld.w	40[r10],r11
 7003124:	43 cd 14 00 	ld.w	20[sp],r10
 7003128:	4a cd 3c 00 	ld.w	60[r10],r10
 700312c:	6a 0d       	cmp	r10, r11
 700312e:	42 9c       	bge	7003170 <_g3d_moveObject+0x398>
 7003130:	43 cd 14 00 	ld.w	20[sp],r10
 7003134:	6a cd 28 00 	ld.w	40[r10],r11
 7003138:	43 cd 14 00 	ld.w	20[sp],r10
 700313c:	4a cd 78 00 	ld.w	120[r10],r10
 7003140:	6a 05       	add	r10, r11
 7003142:	43 cd 14 00 	ld.w	20[sp],r10
 7003146:	6a dd 28 00 	st.w	r11, 40[r10]
 700314a:	43 cd 14 00 	ld.w	20[sp],r10
 700314e:	6a cd 28 00 	ld.w	40[r10],r11
 7003152:	43 cd 14 00 	ld.w	20[sp],r10
 7003156:	4a cd 3c 00 	ld.w	60[r10],r10
 700315a:	6a 0d       	cmp	r10, r11
 700315c:	54 8e       	ble	70031b0 <_g3d_moveObject+0x3d8>
 700315e:	43 cd 14 00 	ld.w	20[sp],r10
 7003162:	6a cd 3c 00 	ld.w	60[r10],r11
 7003166:	43 cd 14 00 	ld.w	20[sp],r10
 700316a:	6a dd 28 00 	st.w	r11, 40[r10]
 700316e:	44 8a       	br	70031b2 <_g3d_moveObject+0x3da>
 7003170:	43 cd 14 00 	ld.w	20[sp],r10
 7003174:	6a cd 28 00 	ld.w	40[r10],r11
 7003178:	43 cd 14 00 	ld.w	20[sp],r10
 700317c:	4a cd 78 00 	ld.w	120[r10],r10
 7003180:	6a 09       	sub	r10, r11
 7003182:	43 cd 14 00 	ld.w	20[sp],r10
 7003186:	6a dd 28 00 	st.w	r11, 40[r10]
 700318a:	43 cd 14 00 	ld.w	20[sp],r10
 700318e:	6a cd 28 00 	ld.w	40[r10],r11
 7003192:	43 cd 14 00 	ld.w	20[sp],r10
 7003196:	4a cd 3c 00 	ld.w	60[r10],r10
 700319a:	6a 0d       	cmp	r10, r11
 700319c:	16 9c       	bge	70031b2 <_g3d_moveObject+0x3da>
 700319e:	43 cd 14 00 	ld.w	20[sp],r10
 70031a2:	6a cd 3c 00 	ld.w	60[r10],r11
 70031a6:	43 cd 14 00 	ld.w	20[sp],r10
 70031aa:	6a dd 28 00 	st.w	r11, 40[r10]
 70031ae:	04 8a       	br	70031b2 <_g3d_moveObject+0x3da>
 70031b0:	00 9a       	nop	
 70031b2:	43 cd 14 00 	ld.w	20[sp],r10
 70031b6:	6a cd 40 00 	ld.w	64[r10],r11
 70031ba:	43 cd 14 00 	ld.w	20[sp],r10
 70031be:	4a cd 2c 00 	ld.w	44[r10],r10
 70031c2:	6a 0d       	cmp	r10, r11
 70031c4:	b6 84       	be	700327a <_g3d_moveObject+0x4a2>
 70031c6:	c0 40       	mov	0, r6
 70031c8:	e5 40       	mov	5, r7
 70031ca:	03 41       	mov	3, r8
 70031cc:	40 bd 00 07 	movhi	1792, r0, r10
 70031d0:	2a a1 c4 75 	movea	30148, r10, r9
 70031d4:	40 bd 00 07 	movhi	1792, r0, r10
 70031d8:	4a a1 9c 0f 	movea	3996, r10, r10
 70031dc:	00 ac 04 00 	jal	70031e0 <_g3d_moveObject+0x408>
 70031e0:	e4 47       	add	4, lp
 70031e2:	0a 18       	jmp	[r10]
 70031e4:	43 cd 14 00 	ld.w	20[sp],r10
 70031e8:	6a cd 2c 00 	ld.w	44[r10],r11
 70031ec:	43 cd 14 00 	ld.w	20[sp],r10
 70031f0:	4a cd 40 00 	ld.w	64[r10],r10
 70031f4:	6a 0d       	cmp	r10, r11
 70031f6:	42 9c       	bge	7003238 <_g3d_moveObject+0x460>
 70031f8:	43 cd 14 00 	ld.w	20[sp],r10
 70031fc:	6a cd 2c 00 	ld.w	44[r10],r11
 7003200:	43 cd 14 00 	ld.w	20[sp],r10
 7003204:	4a cd 7c 00 	ld.w	124[r10],r10
 7003208:	6a 05       	add	r10, r11
 700320a:	43 cd 14 00 	ld.w	20[sp],r10
 700320e:	6a dd 2c 00 	st.w	r11, 44[r10]
 7003212:	43 cd 14 00 	ld.w	20[sp],r10
 7003216:	6a cd 2c 00 	ld.w	44[r10],r11
 700321a:	43 cd 14 00 	ld.w	20[sp],r10
 700321e:	4a cd 40 00 	ld.w	64[r10],r10
 7003222:	6a 0d       	cmp	r10, r11
 7003224:	54 8e       	ble	7003278 <_g3d_moveObject+0x4a0>
 7003226:	43 cd 14 00 	ld.w	20[sp],r10
 700322a:	6a cd 40 00 	ld.w	64[r10],r11
 700322e:	43 cd 14 00 	ld.w	20[sp],r10
 7003232:	6a dd 2c 00 	st.w	r11, 44[r10]
 7003236:	44 8a       	br	700327a <_g3d_moveObject+0x4a2>
 7003238:	43 cd 14 00 	ld.w	20[sp],r10
 700323c:	6a cd 2c 00 	ld.w	44[r10],r11
 7003240:	43 cd 14 00 	ld.w	20[sp],r10
 7003244:	4a cd 7c 00 	ld.w	124[r10],r10
 7003248:	6a 09       	sub	r10, r11
 700324a:	43 cd 14 00 	ld.w	20[sp],r10
 700324e:	6a dd 2c 00 	st.w	r11, 44[r10]
 7003252:	43 cd 14 00 	ld.w	20[sp],r10
 7003256:	6a cd 2c 00 	ld.w	44[r10],r11
 700325a:	43 cd 14 00 	ld.w	20[sp],r10
 700325e:	4a cd 40 00 	ld.w	64[r10],r10
 7003262:	6a 0d       	cmp	r10, r11
 7003264:	16 9c       	bge	700327a <_g3d_moveObject+0x4a2>
 7003266:	43 cd 14 00 	ld.w	20[sp],r10
 700326a:	6a cd 40 00 	ld.w	64[r10],r11
 700326e:	43 cd 14 00 	ld.w	20[sp],r10
 7003272:	6a dd 2c 00 	st.w	r11, 44[r10]
 7003276:	04 8a       	br	700327a <_g3d_moveObject+0x4a2>
 7003278:	00 9a       	nop	
 700327a:	e3 cf 10 00 	ld.w	16[sp],lp
 700327e:	63 a4 14 00 	addi	20, sp, sp
 7003282:	1f 18       	jmp	[lp]

07003284 <_g3d_moveCamera>:
 7003284:	c3 dc 00 00 	st.w	r6, 0[sp]
 7003288:	43 cd 00 00 	ld.w	0[sp],r10
 700328c:	4a cd 78 00 	ld.w	120[r10],r10
 7003290:	40 0d       	cmp	r0, r10
 7003292:	1c 84       	be	70032ae <_g3d_moveCamera+0x2a>
 7003294:	43 cd 00 00 	ld.w	0[sp],r10
 7003298:	6a cd 64 00 	ld.w	100[r10],r11
 700329c:	43 cd 00 00 	ld.w	0[sp],r10
 70032a0:	4a cd 78 00 	ld.w	120[r10],r10
 70032a4:	6a 05       	add	r10, r11
 70032a6:	43 cd 00 00 	ld.w	0[sp],r10
 70032aa:	6a dd 64 00 	st.w	r11, 100[r10]
 70032ae:	43 cd 00 00 	ld.w	0[sp],r10
 70032b2:	4a cd 7c 00 	ld.w	124[r10],r10
 70032b6:	40 0d       	cmp	r0, r10
 70032b8:	1c 84       	be	70032d4 <_g3d_moveCamera+0x50>
 70032ba:	43 cd 00 00 	ld.w	0[sp],r10
 70032be:	6a cd 68 00 	ld.w	104[r10],r11
 70032c2:	43 cd 00 00 	ld.w	0[sp],r10
 70032c6:	4a cd 7c 00 	ld.w	124[r10],r10
 70032ca:	6a 05       	add	r10, r11
 70032cc:	43 cd 00 00 	ld.w	0[sp],r10
 70032d0:	6a dd 68 00 	st.w	r11, 104[r10]
 70032d4:	43 cd 00 00 	ld.w	0[sp],r10
 70032d8:	4a cd 80 00 	ld.w	128[r10],r10
 70032dc:	40 0d       	cmp	r0, r10
 70032de:	1c 84       	be	70032fa <_g3d_moveCamera+0x76>
 70032e0:	43 cd 00 00 	ld.w	0[sp],r10
 70032e4:	6a cd 6c 00 	ld.w	108[r10],r11
 70032e8:	43 cd 00 00 	ld.w	0[sp],r10
 70032ec:	4a cd 80 00 	ld.w	128[r10],r10
 70032f0:	6a 05       	add	r10, r11
 70032f2:	43 cd 00 00 	ld.w	0[sp],r10
 70032f6:	6a dd 6c 00 	st.w	r11, 108[r10]
 70032fa:	43 cd 00 00 	ld.w	0[sp],r10
 70032fe:	4a cd 28 00 	ld.w	40[r10],r10
 7003302:	40 0d       	cmp	r0, r10
 7003304:	1c 84       	be	7003320 <_g3d_moveCamera+0x9c>
 7003306:	43 cd 00 00 	ld.w	0[sp],r10
 700330a:	6a cd 14 00 	ld.w	20[r10],r11
 700330e:	43 cd 00 00 	ld.w	0[sp],r10
 7003312:	4a cd 28 00 	ld.w	40[r10],r10
 7003316:	6a 05       	add	r10, r11
 7003318:	43 cd 00 00 	ld.w	0[sp],r10
 700331c:	6a dd 14 00 	st.w	r11, 20[r10]
 7003320:	43 cd 00 00 	ld.w	0[sp],r10
 7003324:	4a cd 2c 00 	ld.w	44[r10],r10
 7003328:	40 0d       	cmp	r0, r10
 700332a:	1c 84       	be	7003346 <_g3d_moveCamera+0xc2>
 700332c:	43 cd 00 00 	ld.w	0[sp],r10
 7003330:	6a cd 18 00 	ld.w	24[r10],r11
 7003334:	43 cd 00 00 	ld.w	0[sp],r10
 7003338:	4a cd 2c 00 	ld.w	44[r10],r10
 700333c:	6a 05       	add	r10, r11
 700333e:	43 cd 00 00 	ld.w	0[sp],r10
 7003342:	6a dd 18 00 	st.w	r11, 24[r10]
 7003346:	43 cd 00 00 	ld.w	0[sp],r10
 700334a:	4a cd 30 00 	ld.w	48[r10],r10
 700334e:	40 0d       	cmp	r0, r10
 7003350:	34 84       	be	7003384 <_g3d_moveCamera+0x100>
 7003352:	43 cd 00 00 	ld.w	0[sp],r10
 7003356:	6a cd 1c 00 	ld.w	28[r10],r11
 700335a:	43 cd 00 00 	ld.w	0[sp],r10
 700335e:	4a cd 30 00 	ld.w	48[r10],r10
 7003362:	6a 05       	add	r10, r11
 7003364:	43 cd 00 00 	ld.w	0[sp],r10
 7003368:	6a dd 1c 00 	st.w	r11, 28[r10]
 700336c:	1a 8a       	br	7003386 <_g3d_moveCamera+0x102>
 700336e:	43 cd 00 00 	ld.w	0[sp],r10
 7003372:	4a cd 64 00 	ld.w	100[r10],r10
 7003376:	6a a5 98 fe 	addi	-360, r10, r11
 700337a:	43 cd 00 00 	ld.w	0[sp],r10
 700337e:	6a dd 64 00 	st.w	r11, 100[r10]
 7003382:	04 8a       	br	7003386 <_g3d_moveCamera+0x102>
 7003384:	00 9a       	nop	
 7003386:	43 cd 00 00 	ld.w	0[sp],r10
 700338a:	6a cd 64 00 	ld.w	100[r10],r11
 700338e:	40 a1 67 01 	movea	359, r0, r10
 7003392:	6a 0d       	cmp	r10, r11
 7003394:	da 9f       	bgt	700336e <_g3d_moveCamera+0xea>
 7003396:	16 8a       	br	70033ac <_g3d_moveCamera+0x128>
 7003398:	43 cd 00 00 	ld.w	0[sp],r10
 700339c:	4a cd 68 00 	ld.w	104[r10],r10
 70033a0:	6a a5 98 fe 	addi	-360, r10, r11
 70033a4:	43 cd 00 00 	ld.w	0[sp],r10
 70033a8:	6a dd 68 00 	st.w	r11, 104[r10]
 70033ac:	43 cd 00 00 	ld.w	0[sp],r10
 70033b0:	6a cd 68 00 	ld.w	104[r10],r11
 70033b4:	40 a1 67 01 	movea	359, r0, r10
 70033b8:	6a 0d       	cmp	r10, r11
 70033ba:	de 9f       	bgt	7003398 <_g3d_moveCamera+0x114>
 70033bc:	16 8a       	br	70033d2 <_g3d_moveCamera+0x14e>
 70033be:	43 cd 00 00 	ld.w	0[sp],r10
 70033c2:	4a cd 6c 00 	ld.w	108[r10],r10
 70033c6:	6a a5 98 fe 	addi	-360, r10, r11
 70033ca:	43 cd 00 00 	ld.w	0[sp],r10
 70033ce:	6a dd 6c 00 	st.w	r11, 108[r10]
 70033d2:	43 cd 00 00 	ld.w	0[sp],r10
 70033d6:	6a cd 6c 00 	ld.w	108[r10],r11
 70033da:	40 a1 67 01 	movea	359, r0, r10
 70033de:	6a 0d       	cmp	r10, r11
 70033e0:	de 9f       	bgt	70033be <_g3d_moveCamera+0x13a>
 70033e2:	16 8a       	br	70033f8 <_g3d_moveCamera+0x174>
 70033e4:	43 cd 00 00 	ld.w	0[sp],r10
 70033e8:	4a cd 64 00 	ld.w	100[r10],r10
 70033ec:	6a a5 68 01 	addi	360, r10, r11
 70033f0:	43 cd 00 00 	ld.w	0[sp],r10
 70033f4:	6a dd 64 00 	st.w	r11, 100[r10]
 70033f8:	43 cd 00 00 	ld.w	0[sp],r10
 70033fc:	6a cd 64 00 	ld.w	100[r10],r11
 7003400:	40 a1 99 fe 	movea	-359, r0, r10
 7003404:	6a 0d       	cmp	r10, r11
 7003406:	de 8d       	blt	70033e4 <_g3d_moveCamera+0x160>
 7003408:	16 8a       	br	700341e <_g3d_moveCamera+0x19a>
 700340a:	43 cd 00 00 	ld.w	0[sp],r10
 700340e:	4a cd 68 00 	ld.w	104[r10],r10
 7003412:	6a a5 68 01 	addi	360, r10, r11
 7003416:	43 cd 00 00 	ld.w	0[sp],r10
 700341a:	6a dd 68 00 	st.w	r11, 104[r10]
 700341e:	43 cd 00 00 	ld.w	0[sp],r10
 7003422:	6a cd 68 00 	ld.w	104[r10],r11
 7003426:	40 a1 99 fe 	movea	-359, r0, r10
 700342a:	6a 0d       	cmp	r10, r11
 700342c:	de 8d       	blt	700340a <_g3d_moveCamera+0x186>
 700342e:	16 8a       	br	7003444 <_g3d_moveCamera+0x1c0>
 7003430:	43 cd 00 00 	ld.w	0[sp],r10
 7003434:	4a cd 6c 00 	ld.w	108[r10],r10
 7003438:	6a a5 68 01 	addi	360, r10, r11
 700343c:	43 cd 00 00 	ld.w	0[sp],r10
 7003440:	6a dd 6c 00 	st.w	r11, 108[r10]
 7003444:	43 cd 00 00 	ld.w	0[sp],r10
 7003448:	6a cd 6c 00 	ld.w	108[r10],r11
 700344c:	40 a1 99 fe 	movea	-359, r0, r10
 7003450:	6a 0d       	cmp	r10, r11
 7003452:	de 8d       	blt	7003430 <_g3d_moveCamera+0x1ac>
 7003454:	43 cd 00 00 	ld.w	0[sp],r10
 7003458:	6a cd 3c 00 	ld.w	60[r10],r11
 700345c:	43 cd 00 00 	ld.w	0[sp],r10
 7003460:	4a cd 00 00 	ld.w	0[r10],r10
 7003464:	6a 0d       	cmp	r10, r11
 7003466:	98 84       	be	70034fe <_g3d_moveCamera+0x27a>
 7003468:	43 cd 00 00 	ld.w	0[sp],r10
 700346c:	6a cd 00 00 	ld.w	0[r10],r11
 7003470:	43 cd 00 00 	ld.w	0[sp],r10
 7003474:	4a cd 3c 00 	ld.w	60[r10],r10
 7003478:	6a 0d       	cmp	r10, r11
 700347a:	42 9c       	bge	70034bc <_g3d_moveCamera+0x238>
 700347c:	43 cd 00 00 	ld.w	0[sp],r10
 7003480:	6a cd 00 00 	ld.w	0[r10],r11
 7003484:	43 cd 00 00 	ld.w	0[sp],r10
 7003488:	4a cd 14 00 	ld.w	20[r10],r10
 700348c:	6a 05       	add	r10, r11
 700348e:	43 cd 00 00 	ld.w	0[sp],r10
 7003492:	6a dd 00 00 	st.w	r11, 0[r10]
 7003496:	43 cd 00 00 	ld.w	0[sp],r10
 700349a:	6a cd 00 00 	ld.w	0[r10],r11
 700349e:	43 cd 00 00 	ld.w	0[sp],r10
 70034a2:	4a cd 3c 00 	ld.w	60[r10],r10
 70034a6:	6a 0d       	cmp	r10, r11
 70034a8:	54 8e       	ble	70034fc <_g3d_moveCamera+0x278>
 70034aa:	43 cd 00 00 	ld.w	0[sp],r10
 70034ae:	6a cd 3c 00 	ld.w	60[r10],r11
 70034b2:	43 cd 00 00 	ld.w	0[sp],r10
 70034b6:	6a dd 00 00 	st.w	r11, 0[r10]
 70034ba:	44 8a       	br	70034fe <_g3d_moveCamera+0x27a>
 70034bc:	43 cd 00 00 	ld.w	0[sp],r10
 70034c0:	6a cd 00 00 	ld.w	0[r10],r11
 70034c4:	43 cd 00 00 	ld.w	0[sp],r10
 70034c8:	4a cd 14 00 	ld.w	20[r10],r10
 70034cc:	6a 09       	sub	r10, r11
 70034ce:	43 cd 00 00 	ld.w	0[sp],r10
 70034d2:	6a dd 00 00 	st.w	r11, 0[r10]
 70034d6:	43 cd 00 00 	ld.w	0[sp],r10
 70034da:	6a cd 00 00 	ld.w	0[r10],r11
 70034de:	43 cd 00 00 	ld.w	0[sp],r10
 70034e2:	4a cd 3c 00 	ld.w	60[r10],r10
 70034e6:	6a 0d       	cmp	r10, r11
 70034e8:	16 9c       	bge	70034fe <_g3d_moveCamera+0x27a>
 70034ea:	43 cd 00 00 	ld.w	0[sp],r10
 70034ee:	6a cd 3c 00 	ld.w	60[r10],r11
 70034f2:	43 cd 00 00 	ld.w	0[sp],r10
 70034f6:	6a dd 00 00 	st.w	r11, 0[r10]
 70034fa:	04 8a       	br	70034fe <_g3d_moveCamera+0x27a>
 70034fc:	00 9a       	nop	
 70034fe:	43 cd 00 00 	ld.w	0[sp],r10
 7003502:	6a cd 40 00 	ld.w	64[r10],r11
 7003506:	43 cd 00 00 	ld.w	0[sp],r10
 700350a:	4a cd 04 00 	ld.w	4[r10],r10
 700350e:	6a 0d       	cmp	r10, r11
 7003510:	98 84       	be	70035a8 <_g3d_moveCamera+0x324>
 7003512:	43 cd 00 00 	ld.w	0[sp],r10
 7003516:	6a cd 04 00 	ld.w	4[r10],r11
 700351a:	43 cd 00 00 	ld.w	0[sp],r10
 700351e:	4a cd 40 00 	ld.w	64[r10],r10
 7003522:	6a 0d       	cmp	r10, r11
 7003524:	42 9c       	bge	7003566 <_g3d_moveCamera+0x2e2>
 7003526:	43 cd 00 00 	ld.w	0[sp],r10
 700352a:	6a cd 04 00 	ld.w	4[r10],r11
 700352e:	43 cd 00 00 	ld.w	0[sp],r10
 7003532:	4a cd 18 00 	ld.w	24[r10],r10
 7003536:	6a 05       	add	r10, r11
 7003538:	43 cd 00 00 	ld.w	0[sp],r10
 700353c:	6a dd 04 00 	st.w	r11, 4[r10]
 7003540:	43 cd 00 00 	ld.w	0[sp],r10
 7003544:	6a cd 04 00 	ld.w	4[r10],r11
 7003548:	43 cd 00 00 	ld.w	0[sp],r10
 700354c:	4a cd 40 00 	ld.w	64[r10],r10
 7003550:	6a 0d       	cmp	r10, r11
 7003552:	54 8e       	ble	70035a6 <_g3d_moveCamera+0x322>
 7003554:	43 cd 00 00 	ld.w	0[sp],r10
 7003558:	6a cd 40 00 	ld.w	64[r10],r11
 700355c:	43 cd 00 00 	ld.w	0[sp],r10
 7003560:	6a dd 04 00 	st.w	r11, 4[r10]
 7003564:	44 8a       	br	70035a8 <_g3d_moveCamera+0x324>
 7003566:	43 cd 00 00 	ld.w	0[sp],r10
 700356a:	6a cd 04 00 	ld.w	4[r10],r11
 700356e:	43 cd 00 00 	ld.w	0[sp],r10
 7003572:	4a cd 18 00 	ld.w	24[r10],r10
 7003576:	6a 09       	sub	r10, r11
 7003578:	43 cd 00 00 	ld.w	0[sp],r10
 700357c:	6a dd 04 00 	st.w	r11, 4[r10]
 7003580:	43 cd 00 00 	ld.w	0[sp],r10
 7003584:	6a cd 04 00 	ld.w	4[r10],r11
 7003588:	43 cd 00 00 	ld.w	0[sp],r10
 700358c:	4a cd 40 00 	ld.w	64[r10],r10
 7003590:	6a 0d       	cmp	r10, r11
 7003592:	16 9c       	bge	70035a8 <_g3d_moveCamera+0x324>
 7003594:	43 cd 00 00 	ld.w	0[sp],r10
 7003598:	6a cd 40 00 	ld.w	64[r10],r11
 700359c:	43 cd 00 00 	ld.w	0[sp],r10
 70035a0:	6a dd 04 00 	st.w	r11, 4[r10]
 70035a4:	04 8a       	br	70035a8 <_g3d_moveCamera+0x324>
 70035a6:	00 9a       	nop	
 70035a8:	43 cd 00 00 	ld.w	0[sp],r10
 70035ac:	6a cd 44 00 	ld.w	68[r10],r11
 70035b0:	43 cd 00 00 	ld.w	0[sp],r10
 70035b4:	4a cd 08 00 	ld.w	8[r10],r10
 70035b8:	6a 0d       	cmp	r10, r11
 70035ba:	98 84       	be	7003652 <_g3d_moveCamera+0x3ce>
 70035bc:	43 cd 00 00 	ld.w	0[sp],r10
 70035c0:	6a cd 08 00 	ld.w	8[r10],r11
 70035c4:	43 cd 00 00 	ld.w	0[sp],r10
 70035c8:	4a cd 44 00 	ld.w	68[r10],r10
 70035cc:	6a 0d       	cmp	r10, r11
 70035ce:	42 9c       	bge	7003610 <_g3d_moveCamera+0x38c>
 70035d0:	43 cd 00 00 	ld.w	0[sp],r10
 70035d4:	6a cd 08 00 	ld.w	8[r10],r11
 70035d8:	43 cd 00 00 	ld.w	0[sp],r10
 70035dc:	4a cd 1c 00 	ld.w	28[r10],r10
 70035e0:	6a 05       	add	r10, r11
 70035e2:	43 cd 00 00 	ld.w	0[sp],r10
 70035e6:	6a dd 08 00 	st.w	r11, 8[r10]
 70035ea:	43 cd 00 00 	ld.w	0[sp],r10
 70035ee:	6a cd 08 00 	ld.w	8[r10],r11
 70035f2:	43 cd 00 00 	ld.w	0[sp],r10
 70035f6:	4a cd 44 00 	ld.w	68[r10],r10
 70035fa:	6a 0d       	cmp	r10, r11
 70035fc:	54 8e       	ble	7003650 <_g3d_moveCamera+0x3cc>
 70035fe:	43 cd 00 00 	ld.w	0[sp],r10
 7003602:	6a cd 44 00 	ld.w	68[r10],r11
 7003606:	43 cd 00 00 	ld.w	0[sp],r10
 700360a:	6a dd 08 00 	st.w	r11, 8[r10]
 700360e:	44 8a       	br	7003652 <_g3d_moveCamera+0x3ce>
 7003610:	43 cd 00 00 	ld.w	0[sp],r10
 7003614:	6a cd 08 00 	ld.w	8[r10],r11
 7003618:	43 cd 00 00 	ld.w	0[sp],r10
 700361c:	4a cd 1c 00 	ld.w	28[r10],r10
 7003620:	6a 09       	sub	r10, r11
 7003622:	43 cd 00 00 	ld.w	0[sp],r10
 7003626:	6a dd 08 00 	st.w	r11, 8[r10]
 700362a:	43 cd 00 00 	ld.w	0[sp],r10
 700362e:	6a cd 08 00 	ld.w	8[r10],r11
 7003632:	43 cd 00 00 	ld.w	0[sp],r10
 7003636:	4a cd 44 00 	ld.w	68[r10],r10
 700363a:	6a 0d       	cmp	r10, r11
 700363c:	16 9c       	bge	7003652 <_g3d_moveCamera+0x3ce>
 700363e:	43 cd 00 00 	ld.w	0[sp],r10
 7003642:	6a cd 44 00 	ld.w	68[r10],r11
 7003646:	43 cd 00 00 	ld.w	0[sp],r10
 700364a:	6a dd 08 00 	st.w	r11, 8[r10]
 700364e:	04 8a       	br	7003652 <_g3d_moveCamera+0x3ce>
 7003650:	00 9a       	nop	
 7003652:	1f 18       	jmp	[lp]

07003654 <_main>:
 7003654:	63 a4 e8 ff 	addi	-24, sp, sp
 7003658:	e3 df 14 00 	st.w	lp, 20[sp]
 700365c:	40 bd 00 07 	movhi	1792, r0, r10
 7003660:	4a a1 3c 3e 	movea	15932, r10, r10
 7003664:	00 ac 04 00 	jal	7003668 <_main+0x14>
 7003668:	e4 47       	add	4, lp
 700366a:	0a 18       	jmp	[r10]
 700366c:	40 bd 00 07 	movhi	1792, r0, r10
 7003670:	4a a1 8c 3d 	movea	15756, r10, r10
 7003674:	00 ac 04 00 	jal	7003678 <_main+0x24>
 7003678:	e4 47       	add	4, lp
 700367a:	0a 18       	jmp	[r10]
 700367c:	40 bd 00 05 	movhi	1280, r0, r10
 7003680:	ca a0 4c 00 	movea	76, r10, r6
 7003684:	40 bd 00 07 	movhi	1792, r0, r10
 7003688:	4a a1 e8 2c 	movea	11496, r10, r10
 700368c:	00 ac 04 00 	jal	7003690 <_main+0x3c>
 7003690:	e4 47       	add	4, lp
 7003692:	0a 18       	jmp	[r10]
 7003694:	03 d0 13 00 	st.b	r0, 19[sp]
 7003698:	00 a8 4a 01 	jr	70037e2 <_main+0x18e>
 700369c:	43 c1 13 00 	ld.b	19[sp],r10
 70036a0:	4a b5 ff 00 	andi	255, r10, r10
 70036a4:	60 a1 c8 00 	movea	200, r0, r11
 70036a8:	4b 21       	mul	r11, r10
 70036aa:	80 bd 00 05 	movhi	1280, r0, r12
 70036ae:	8c a1 14 01 	movea	276, r12, r12
 70036b2:	4c 05       	add	r12, r10
 70036b4:	ca 00       	mov	r10, r6
 70036b6:	40 bd 00 07 	movhi	1792, r0, r10
 70036ba:	4a a1 e8 2c 	movea	11496, r10, r10
 70036be:	00 ac 04 00 	jal	70036c2 <_main+0x6e>
 70036c2:	e4 47       	add	4, lp
 70036c4:	0a 18       	jmp	[r10]
 70036c6:	43 c1 13 00 	ld.b	19[sp],r10
 70036ca:	4a b5 ff 00 	andi	255, r10, r10
 70036ce:	60 bd 00 07 	movhi	1792, r0, r11
 70036d2:	6b a1 14 4e 	movea	19988, r11, r11
 70036d6:	80 bd 00 05 	movhi	1280, r0, r12
 70036da:	8c a1 14 01 	movea	276, r12, r12
 70036de:	a0 a1 c8 00 	movea	200, r0, r13
 70036e2:	4d 21       	mul	r13, r10
 70036e4:	4c 05       	add	r12, r10
 70036e6:	4a a5 c4 00 	addi	196, r10, r10
 70036ea:	6a dd 00 00 	st.w	r11, 0[r10]
 70036ee:	43 c1 13 00 	ld.b	19[sp],r10
 70036f2:	4a b5 ff 00 	andi	255, r10, r10
 70036f6:	63 c1 13 00 	ld.b	19[sp],r11
 70036fa:	6b b5 ff 00 	andi	255, r11, r11
 70036fe:	80 a1 40 1f 	movea	8000, r0, r12
 7003702:	6c 21       	mul	r12, r11
 7003704:	80 bd 00 05 	movhi	1280, r0, r12
 7003708:	8c a1 14 01 	movea	276, r12, r12
 700370c:	a0 a1 c8 00 	movea	200, r0, r13
 7003710:	4d 21       	mul	r13, r10
 7003712:	4c 05       	add	r12, r10
 7003714:	4a a5 24 00 	addi	36, r10, r10
 7003718:	6a dd 00 00 	st.w	r11, 0[r10]
 700371c:	43 c1 13 00 	ld.b	19[sp],r10
 7003720:	aa b5 ff 00 	andi	255, r10, r13
 7003724:	43 c1 13 00 	ld.b	19[sp],r10
 7003728:	4a b5 ff 00 	andi	255, r10, r10
 700372c:	41 45       	add	1, r10
 700372e:	60 a1 40 1f 	movea	8000, r0, r11
 7003732:	6a 21       	mul	r10, r11
 7003734:	40 bd 00 05 	movhi	1280, r0, r10
 7003738:	8a a1 14 01 	movea	276, r10, r12
 700373c:	40 a1 c8 00 	movea	200, r0, r10
 7003740:	4d 21       	mul	r13, r10
 7003742:	4c 05       	add	r12, r10
 7003744:	4a a5 2c 00 	addi	44, r10, r10
 7003748:	6a dd 00 00 	st.w	r11, 0[r10]
 700374c:	43 c1 13 00 	ld.b	19[sp],r10
 7003750:	4a b5 ff 00 	andi	255, r10, r10
 7003754:	60 bd 00 05 	movhi	1280, r0, r11
 7003758:	6b a1 14 01 	movea	276, r11, r11
 700375c:	80 a1 c8 00 	movea	200, r0, r12
 7003760:	4c 21       	mul	r12, r10
 7003762:	4b 05       	add	r11, r10
 7003764:	4a a5 28 00 	addi	40, r10, r10
 7003768:	0a dc 00 00 	st.w	r0, 0[r10]
 700376c:	43 c1 13 00 	ld.b	19[sp],r10
 7003770:	4a b5 ff 00 	andi	255, r10, r10
 7003774:	60 bd 00 05 	movhi	1280, r0, r11
 7003778:	6b a1 14 01 	movea	276, r11, r11
 700377c:	a0 a1 c8 00 	movea	200, r0, r13
 7003780:	4d 21       	mul	r13, r10
 7003782:	4b 05       	add	r11, r10
 7003784:	4a a5 9c 00 	addi	156, r10, r10
 7003788:	60 a1 10 00 	movea	16, r0, r11
 700378c:	6a dd 00 00 	st.w	r11, 0[r10]
 7003790:	43 c1 13 00 	ld.b	19[sp],r10
 7003794:	4a b5 ff 00 	andi	255, r10, r10
 7003798:	60 bd 00 05 	movhi	1280, r0, r11
 700379c:	6b a1 14 01 	movea	276, r11, r11
 70037a0:	80 a1 c8 00 	movea	200, r0, r12
 70037a4:	4c 21       	mul	r12, r10
 70037a6:	4b 05       	add	r11, r10
 70037a8:	4a a5 a0 00 	addi	160, r10, r10
 70037ac:	60 a1 10 00 	movea	16, r0, r11
 70037b0:	6a dd 00 00 	st.w	r11, 0[r10]
 70037b4:	43 c1 13 00 	ld.b	19[sp],r10
 70037b8:	4a b5 ff 00 	andi	255, r10, r10
 70037bc:	60 bd 00 05 	movhi	1280, r0, r11
 70037c0:	6b a1 14 01 	movea	276, r11, r11
 70037c4:	a0 a1 c8 00 	movea	200, r0, r13
 70037c8:	4d 21       	mul	r13, r10
 70037ca:	4b 05       	add	r11, r10
 70037cc:	4a a5 a4 00 	addi	164, r10, r10
 70037d0:	60 a1 10 00 	movea	16, r0, r11
 70037d4:	6a dd 00 00 	st.w	r11, 0[r10]
 70037d8:	43 c1 13 00 	ld.b	19[sp],r10
 70037dc:	41 45       	add	1, r10
 70037de:	43 d1 13 00 	st.b	r10, 19[sp]
 70037e2:	43 c1 13 00 	ld.b	19[sp],r10
 70037e6:	4a b5 ff 00 	andi	255, r10, r10
 70037ea:	44 4d       	cmp	4, r10
 70037ec:	06 96       	bh	70037f2 <_main+0x19e>
 70037ee:	ff ab ae fe 	jr	700369c <_main+0x48>
 70037f2:	40 bd 00 07 	movhi	1792, r0, r10
 70037f6:	6a a1 90 4c 	movea	19600, r10, r11
 70037fa:	40 bd 00 05 	movhi	1280, r0, r10
 70037fe:	4a a1 4c 00 	movea	76, r10, r10
 7003802:	6a dd c4 00 	st.w	r11, 196[r10]
 7003806:	40 bd 00 05 	movhi	1280, r0, r10
 700380a:	4a a1 4c 00 	movea	76, r10, r10
 700380e:	60 bd 01 00 	movhi	1, r0, r11
 7003812:	6b a1 40 9c 	movea	-25536, r11, r11
 7003816:	6a dd 2c 00 	st.w	r11, 44[r10]
 700381a:	40 bd 00 05 	movhi	1280, r0, r10
 700381e:	4a a1 4c 00 	movea	76, r10, r10
 7003822:	60 a1 c0 5d 	movea	24000, r0, r11
 7003826:	6a dd 28 00 	st.w	r11, 40[r10]
 700382a:	40 bd 00 05 	movhi	1280, r0, r10
 700382e:	4a a1 4c 00 	movea	76, r10, r10
 7003832:	60 a1 90 01 	movea	400, r0, r11
 7003836:	6a dd 74 00 	st.w	r11, 116[r10]
 700383a:	40 bd 00 05 	movhi	1280, r0, r10
 700383e:	4a a1 4c 00 	movea	76, r10, r10
 7003842:	60 a1 90 01 	movea	400, r0, r11
 7003846:	6a dd 78 00 	st.w	r11, 120[r10]
 700384a:	40 bd 00 05 	movhi	1280, r0, r10
 700384e:	4a a1 4c 00 	movea	76, r10, r10
 7003852:	60 a1 90 01 	movea	400, r0, r11
 7003856:	6a dd 7c 00 	st.w	r11, 124[r10]
 700385a:	40 bd 00 05 	movhi	1280, r0, r10
 700385e:	4a a1 20 53 	movea	21280, r10, r10
 7003862:	60 a1 b0 ff 	movea	-80, r0, r11
 7003866:	6a dd 08 00 	st.w	r11, 8[r10]
 700386a:	40 bd 00 05 	movhi	1280, r0, r10
 700386e:	4a a1 20 53 	movea	21280, r10, r10
 7003872:	60 a1 40 1f 	movea	8000, r0, r11
 7003876:	6a dd 04 00 	st.w	r11, 4[r10]
 700387a:	40 bd 00 05 	movhi	1280, r0, r10
 700387e:	4a a1 20 53 	movea	21280, r10, r10
 7003882:	6a cd 08 00 	ld.w	8[r10],r11
 7003886:	40 bd 00 05 	movhi	1280, r0, r10
 700388a:	4a a1 20 53 	movea	21280, r10, r10
 700388e:	6a dd 44 00 	st.w	r11, 68[r10]
 7003892:	40 bd 00 05 	movhi	1280, r0, r10
 7003896:	4a a1 20 53 	movea	21280, r10, r10
 700389a:	6a cd 04 00 	ld.w	4[r10],r11
 700389e:	40 bd 00 05 	movhi	1280, r0, r10
 70038a2:	4a a1 20 53 	movea	21280, r10, r10
 70038a6:	6a dd 40 00 	st.w	r11, 64[r10]
 70038aa:	40 bd 00 05 	movhi	1280, r0, r10
 70038ae:	4a a1 20 53 	movea	21280, r10, r10
 70038b2:	6a cd 00 00 	ld.w	0[r10],r11
 70038b6:	40 bd 00 05 	movhi	1280, r0, r10
 70038ba:	4a a1 20 53 	movea	21280, r10, r10
 70038be:	6a dd 3c 00 	st.w	r11, 60[r10]
 70038c2:	40 bd 00 05 	movhi	1280, r0, r10
 70038c6:	4a a1 20 00 	movea	32, r10, r10
 70038ca:	0a dc 00 00 	st.w	r0, 0[r10]
 70038ce:	40 bd 00 05 	movhi	1280, r0, r10
 70038d2:	4a a1 2c 00 	movea	44, r10, r10
 70038d6:	0a dc 00 00 	st.w	r0, 0[r10]
 70038da:	40 bd 00 05 	movhi	1280, r0, r10
 70038de:	4a a1 30 00 	movea	48, r10, r10
 70038e2:	0a dc 00 00 	st.w	r0, 0[r10]
 70038e6:	40 bd 00 05 	movhi	1280, r0, r10
 70038ea:	4a a1 34 00 	movea	52, r10, r10
 70038ee:	0a dc 00 00 	st.w	r0, 0[r10]
 70038f2:	40 bd 00 05 	movhi	1280, r0, r10
 70038f6:	ca a0 4c 00 	movea	76, r10, r6
 70038fa:	40 bd 00 07 	movhi	1792, r0, r10
 70038fe:	4a a1 b0 3a 	movea	15024, r10, r10
 7003902:	00 ac 04 00 	jal	7003906 <_main+0x2b2>
 7003906:	e4 47       	add	4, lp
 7003908:	0a 18       	jmp	[r10]
 700390a:	40 bd 00 05 	movhi	1280, r0, r10
 700390e:	ca a0 20 53 	movea	21280, r10, r6
 7003912:	40 bd 00 07 	movhi	1792, r0, r10
 7003916:	4a a1 84 32 	movea	12932, r10, r10
 700391a:	00 ac 04 00 	jal	700391e <_main+0x2ca>
 700391e:	e4 47       	add	4, lp
 7003920:	0a 18       	jmp	[r10]
 7003922:	40 bd 00 05 	movhi	1280, r0, r10
 7003926:	4a a1 20 53 	movea	21280, r10, r10
 700392a:	6a cd 00 00 	ld.w	0[r10],r11
 700392e:	40 bd 00 05 	movhi	1280, r0, r10
 7003932:	4a a1 4c 00 	movea	76, r10, r10
 7003936:	6a dd 38 00 	st.w	r11, 56[r10]
 700393a:	40 bd 00 05 	movhi	1280, r0, r10
 700393e:	4a a1 20 53 	movea	21280, r10, r10
 7003942:	6a cd 04 00 	ld.w	4[r10],r11
 7003946:	40 bd 00 05 	movhi	1280, r0, r10
 700394a:	4a a1 4c 00 	movea	76, r10, r10
 700394e:	6a dd 3c 00 	st.w	r11, 60[r10]
 7003952:	40 bd 00 05 	movhi	1280, r0, r10
 7003956:	4a a1 20 53 	movea	21280, r10, r10
 700395a:	6a cd 08 00 	ld.w	8[r10],r11
 700395e:	40 bd 00 05 	movhi	1280, r0, r10
 7003962:	4a a1 20 53 	movea	21280, r10, r10
 7003966:	4a cd 8c 00 	ld.w	140[r10],r10
 700396a:	4b 05       	add	r11, r10
 700396c:	6a a5 a0 0f 	addi	4000, r10, r11
 7003970:	40 bd 00 05 	movhi	1280, r0, r10
 7003974:	4a a1 4c 00 	movea	76, r10, r10
 7003978:	6a dd 40 00 	st.w	r11, 64[r10]
 700397c:	40 bd 00 05 	movhi	1280, r0, r10
 7003980:	ca a0 4c 00 	movea	76, r10, r6
 7003984:	40 bd 00 07 	movhi	1792, r0, r10
 7003988:	4a a1 d8 2d 	movea	11736, r10, r10
 700398c:	00 ac 04 00 	jal	7003990 <_main+0x33c>
 7003990:	e4 47       	add	4, lp
 7003992:	0a 18       	jmp	[r10]
 7003994:	40 bd 00 05 	movhi	1280, r0, r10
 7003998:	ca a0 4c 00 	movea	76, r10, r6
 700399c:	40 bd 00 07 	movhi	1792, r0, r10
 70039a0:	4a a1 d4 20 	movea	8404, r10, r10
 70039a4:	00 ac 04 00 	jal	70039a8 <_main+0x354>
 70039a8:	e4 47       	add	4, lp
 70039aa:	0a 18       	jmp	[r10]
 70039ac:	03 d0 13 00 	st.b	r0, 19[sp]
 70039b0:	36 8a       	br	70039e6 <_main+0x392>
 70039b2:	43 c1 13 00 	ld.b	19[sp],r10
 70039b6:	4a b5 ff 00 	andi	255, r10, r10
 70039ba:	60 a1 c8 00 	movea	200, r0, r11
 70039be:	4b 21       	mul	r11, r10
 70039c0:	80 bd 00 05 	movhi	1280, r0, r12
 70039c4:	8c a1 14 01 	movea	276, r12, r12
 70039c8:	4c 05       	add	r12, r10
 70039ca:	ca 00       	mov	r10, r6
 70039cc:	40 bd 00 07 	movhi	1792, r0, r10
 70039d0:	4a a1 d4 20 	movea	8404, r10, r10
 70039d4:	00 ac 04 00 	jal	70039d8 <_main+0x384>
 70039d8:	e4 47       	add	4, lp
 70039da:	0a 18       	jmp	[r10]
 70039dc:	43 c1 13 00 	ld.b	19[sp],r10
 70039e0:	41 45       	add	1, r10
 70039e2:	43 d1 13 00 	st.b	r10, 19[sp]
 70039e6:	43 c1 13 00 	ld.b	19[sp],r10
 70039ea:	4a b5 ff 00 	andi	255, r10, r10
 70039ee:	44 4d       	cmp	4, r10
 70039f0:	c2 87       	bnh	70039b2 <_main+0x35e>
 70039f2:	40 bd 00 07 	movhi	1792, r0, r10
 70039f6:	4a a1 60 3f 	movea	16224, r10, r10
 70039fa:	00 ac 04 00 	jal	70039fe <_main+0x3aa>
 70039fe:	e4 47       	add	4, lp
 7003a00:	0a 18       	jmp	[r10]
 7003a02:	40 bd 00 05 	movhi	1280, r0, r10
 7003a06:	4a a1 20 00 	movea	32, r10, r10
 7003a0a:	6a cd 00 00 	ld.w	0[r10],r11
 7003a0e:	40 a1 09 01 	movea	265, r0, r10
 7003a12:	6a 0d       	cmp	r10, r11
 7003a14:	ee 87       	bnh	7003a02 <_main+0x3ae>
 7003a16:	ff ab ac fe 	jr	70038c2 <_main+0x26e>
	...

07003a1c <_timeHnd>:
 7003a1c:	63 a4 ec ff 	addi	-20, sp, sp
 7003a20:	e3 df 10 00 	st.w	lp, 16[sp]
 7003a24:	c0 40       	mov	0, r6
 7003a26:	40 bd 00 07 	movhi	1792, r0, r10
 7003a2a:	4a a1 a4 16 	movea	5796, r10, r10
 7003a2e:	00 ac 04 00 	jal	7003a32 <_timeHnd+0x16>
 7003a32:	e4 47       	add	4, lp
 7003a34:	0a 18       	jmp	[r10]
 7003a36:	c0 40       	mov	0, r6
 7003a38:	40 bd 00 07 	movhi	1792, r0, r10
 7003a3c:	4a a1 38 15 	movea	5432, r10, r10
 7003a40:	00 ac 04 00 	jal	7003a44 <_timeHnd+0x28>
 7003a44:	e4 47       	add	4, lp
 7003a46:	0a 18       	jmp	[r10]
 7003a48:	40 bd 00 07 	movhi	1792, r0, r10
 7003a4c:	4a a1 3c 17 	movea	5948, r10, r10
 7003a50:	00 ac 04 00 	jal	7003a54 <_timeHnd+0x38>
 7003a54:	e4 47       	add	4, lp
 7003a56:	0a 18       	jmp	[r10]
 7003a58:	40 bd 00 05 	movhi	1280, r0, r10
 7003a5c:	4a a1 1c 00 	movea	28, r10, r10
 7003a60:	0a d0 00 00 	st.b	r0, 0[r10]
 7003a64:	40 bd 00 05 	movhi	1280, r0, r10
 7003a68:	4a a1 20 00 	movea	32, r10, r10
 7003a6c:	4a cd 00 00 	ld.w	0[r10],r10
 7003a70:	6a a5 01 00 	addi	1, r10, r11
 7003a74:	40 bd 00 05 	movhi	1280, r0, r10
 7003a78:	4a a1 20 00 	movea	32, r10, r10
 7003a7c:	6a dd 00 00 	st.w	r11, 0[r10]
 7003a80:	c1 40       	mov	1, r6
 7003a82:	40 bd 00 07 	movhi	1792, r0, r10
 7003a86:	4a a1 a4 16 	movea	5796, r10, r10
 7003a8a:	00 ac 04 00 	jal	7003a8e <_timeHnd+0x72>
 7003a8e:	e4 47       	add	4, lp
 7003a90:	0a 18       	jmp	[r10]
 7003a92:	c1 40       	mov	1, r6
 7003a94:	40 bd 00 07 	movhi	1792, r0, r10
 7003a98:	4a a1 38 15 	movea	5432, r10, r10
 7003a9c:	00 ac 04 00 	jal	7003aa0 <_timeHnd+0x84>
 7003aa0:	e4 47       	add	4, lp
 7003aa2:	0a 18       	jmp	[r10]
 7003aa4:	e3 cf 10 00 	ld.w	16[sp],lp
 7003aa8:	63 a4 14 00 	addi	20, sp, sp
 7003aac:	1f 18       	jmp	[lp]
	...

07003ab0 <_handleInput>:
 7003ab0:	63 a4 ec ff 	addi	-20, sp, sp
 7003ab4:	e3 df 10 00 	st.w	lp, 16[sp]
 7003ab8:	c3 dc 14 00 	st.w	r6, 20[sp]
 7003abc:	40 bd 00 07 	movhi	1792, r0, r10
 7003ac0:	4a a1 28 0c 	movea	3112, r10, r10
 7003ac4:	00 ac 04 00 	jal	7003ac8 <_handleInput+0x18>
 7003ac8:	e4 47       	add	4, lp
 7003aca:	0a 18       	jmp	[r10]
 7003acc:	6a b5 ff ff 	andi	65535, r10, r11
 7003ad0:	40 bd 00 05 	movhi	1280, r0, r10
 7003ad4:	4a a1 fc 04 	movea	1276, r10, r10
 7003ad8:	6a d5 00 00 	st.h	r11, 0[r10]
 7003adc:	43 cd 14 00 	ld.w	20[sp],r10
 7003ae0:	0a dc 54 00 	st.w	r0, 84[r10]
 7003ae4:	43 cd 14 00 	ld.w	20[sp],r10
 7003ae8:	0a dc 4c 00 	st.w	r0, 76[r10]
 7003aec:	40 bd 00 05 	movhi	1280, r0, r10
 7003af0:	4a a1 fc 04 	movea	1276, r10, r10
 7003af4:	4a c5 00 00 	ld.h	0[r10],r10
 7003af8:	4a b5 ff ff 	andi	65535, r10, r10
 7003afc:	4a b5 00 02 	andi	512, r10, r10
 7003b00:	40 0d       	cmp	r0, r10
 7003b02:	50 84       	be	7003b52 <_handleInput+0xa2>
 7003b04:	43 cd 14 00 	ld.w	20[sp],r10
 7003b08:	60 a1 e8 ff 	movea	-24, r0, r11
 7003b0c:	6a dd 54 00 	st.w	r11, 84[r10]
 7003b10:	40 bd 00 05 	movhi	1280, r0, r10
 7003b14:	4a a1 20 53 	movea	21280, r10, r10
 7003b18:	6a cd 00 00 	ld.w	0[r10],r11
 7003b1c:	40 bd 00 05 	movhi	1280, r0, r10
 7003b20:	4a a1 20 53 	movea	21280, r10, r10
 7003b24:	4a cd 3c 00 	ld.w	60[r10],r10
 7003b28:	6a 0d       	cmp	r10, r11
 7003b2a:	28 94       	bne	7003b52 <_handleInput+0xa2>
 7003b2c:	40 bd 00 05 	movhi	1280, r0, r10
 7003b30:	4a a1 20 53 	movea	21280, r10, r10
 7003b34:	6a cd 3c 00 	ld.w	60[r10],r11
 7003b38:	40 bd 00 05 	movhi	1280, r0, r10
 7003b3c:	4a a1 20 53 	movea	21280, r10, r10
 7003b40:	4a cd 14 00 	ld.w	20[r10],r10
 7003b44:	6a 09       	sub	r10, r11
 7003b46:	40 bd 00 05 	movhi	1280, r0, r10
 7003b4a:	4a a1 20 53 	movea	21280, r10, r10
 7003b4e:	6a dd 3c 00 	st.w	r11, 60[r10]
 7003b52:	40 bd 00 05 	movhi	1280, r0, r10
 7003b56:	4a a1 fc 04 	movea	1276, r10, r10
 7003b5a:	4a c5 00 00 	ld.h	0[r10],r10
 7003b5e:	4a b5 ff ff 	andi	65535, r10, r10
 7003b62:	4a b5 00 01 	andi	256, r10, r10
 7003b66:	40 0d       	cmp	r0, r10
 7003b68:	50 84       	be	7003bb8 <_handleInput+0x108>
 7003b6a:	43 cd 14 00 	ld.w	20[sp],r10
 7003b6e:	60 a1 18 00 	movea	24, r0, r11
 7003b72:	6a dd 54 00 	st.w	r11, 84[r10]
 7003b76:	40 bd 00 05 	movhi	1280, r0, r10
 7003b7a:	4a a1 20 53 	movea	21280, r10, r10
 7003b7e:	6a cd 00 00 	ld.w	0[r10],r11
 7003b82:	40 bd 00 05 	movhi	1280, r0, r10
 7003b86:	4a a1 20 53 	movea	21280, r10, r10
 7003b8a:	4a cd 3c 00 	ld.w	60[r10],r10
 7003b8e:	6a 0d       	cmp	r10, r11
 7003b90:	28 94       	bne	7003bb8 <_handleInput+0x108>
 7003b92:	40 bd 00 05 	movhi	1280, r0, r10
 7003b96:	4a a1 20 53 	movea	21280, r10, r10
 7003b9a:	6a cd 3c 00 	ld.w	60[r10],r11
 7003b9e:	40 bd 00 05 	movhi	1280, r0, r10
 7003ba2:	4a a1 20 53 	movea	21280, r10, r10
 7003ba6:	4a cd 14 00 	ld.w	20[r10],r10
 7003baa:	6a 05       	add	r10, r11
 7003bac:	40 bd 00 05 	movhi	1280, r0, r10
 7003bb0:	4a a1 20 53 	movea	21280, r10, r10
 7003bb4:	6a dd 3c 00 	st.w	r11, 60[r10]
 7003bb8:	40 bd 00 05 	movhi	1280, r0, r10
 7003bbc:	4a a1 fc 04 	movea	1276, r10, r10
 7003bc0:	4a c5 00 00 	ld.h	0[r10],r10
 7003bc4:	4a b5 ff ff 	andi	65535, r10, r10
 7003bc8:	4a b5 00 04 	andi	1024, r10, r10
 7003bcc:	40 0d       	cmp	r0, r10
 7003bce:	50 84       	be	7003c1e <_handleInput+0x16e>
 7003bd0:	43 cd 14 00 	ld.w	20[sp],r10
 7003bd4:	60 a1 e8 ff 	movea	-24, r0, r11
 7003bd8:	6a dd 4c 00 	st.w	r11, 76[r10]
 7003bdc:	40 bd 00 05 	movhi	1280, r0, r10
 7003be0:	4a a1 20 53 	movea	21280, r10, r10
 7003be4:	6a cd 04 00 	ld.w	4[r10],r11
 7003be8:	40 bd 00 05 	movhi	1280, r0, r10
 7003bec:	4a a1 20 53 	movea	21280, r10, r10
 7003bf0:	4a cd 40 00 	ld.w	64[r10],r10
 7003bf4:	6a 0d       	cmp	r10, r11
 7003bf6:	28 94       	bne	7003c1e <_handleInput+0x16e>
 7003bf8:	40 bd 00 05 	movhi	1280, r0, r10
 7003bfc:	4a a1 20 53 	movea	21280, r10, r10
 7003c00:	6a cd 40 00 	ld.w	64[r10],r11
 7003c04:	40 bd 00 05 	movhi	1280, r0, r10
 7003c08:	4a a1 20 53 	movea	21280, r10, r10
 7003c0c:	4a cd 18 00 	ld.w	24[r10],r10
 7003c10:	6a 05       	add	r10, r11
 7003c12:	40 bd 00 05 	movhi	1280, r0, r10
 7003c16:	4a a1 20 53 	movea	21280, r10, r10
 7003c1a:	6a dd 40 00 	st.w	r11, 64[r10]
 7003c1e:	40 bd 00 05 	movhi	1280, r0, r10
 7003c22:	4a a1 fc 04 	movea	1276, r10, r10
 7003c26:	4a c5 00 00 	ld.h	0[r10],r10
 7003c2a:	4a b5 ff ff 	andi	65535, r10, r10
 7003c2e:	4a b5 00 08 	andi	2048, r10, r10
 7003c32:	40 0d       	cmp	r0, r10
 7003c34:	50 84       	be	7003c84 <_handleInput+0x1d4>
 7003c36:	43 cd 14 00 	ld.w	20[sp],r10
 7003c3a:	60 a1 18 00 	movea	24, r0, r11
 7003c3e:	6a dd 4c 00 	st.w	r11, 76[r10]
 7003c42:	40 bd 00 05 	movhi	1280, r0, r10
 7003c46:	4a a1 20 53 	movea	21280, r10, r10
 7003c4a:	6a cd 04 00 	ld.w	4[r10],r11
 7003c4e:	40 bd 00 05 	movhi	1280, r0, r10
 7003c52:	4a a1 20 53 	movea	21280, r10, r10
 7003c56:	4a cd 40 00 	ld.w	64[r10],r10
 7003c5a:	6a 0d       	cmp	r10, r11
 7003c5c:	28 94       	bne	7003c84 <_handleInput+0x1d4>
 7003c5e:	40 bd 00 05 	movhi	1280, r0, r10
 7003c62:	4a a1 20 53 	movea	21280, r10, r10
 7003c66:	6a cd 40 00 	ld.w	64[r10],r11
 7003c6a:	40 bd 00 05 	movhi	1280, r0, r10
 7003c6e:	4a a1 20 53 	movea	21280, r10, r10
 7003c72:	4a cd 18 00 	ld.w	24[r10],r10
 7003c76:	6a 09       	sub	r10, r11
 7003c78:	40 bd 00 05 	movhi	1280, r0, r10
 7003c7c:	4a a1 20 53 	movea	21280, r10, r10
 7003c80:	6a dd 40 00 	st.w	r11, 64[r10]
 7003c84:	40 bd 00 05 	movhi	1280, r0, r10
 7003c88:	4a a1 fc 04 	movea	1276, r10, r10
 7003c8c:	4a c5 00 00 	ld.h	0[r10],r10
 7003c90:	4a b5 ff ff 	andi	65535, r10, r10
 7003c94:	4a b5 40 00 	andi	64, r10, r10
 7003c98:	40 0d       	cmp	r0, r10
 7003c9a:	44 84       	be	7003cde <_handleInput+0x22e>
 7003c9c:	40 bd 00 05 	movhi	1280, r0, r10
 7003ca0:	4a a1 20 53 	movea	21280, r10, r10
 7003ca4:	6a cd 08 00 	ld.w	8[r10],r11
 7003ca8:	40 bd 00 05 	movhi	1280, r0, r10
 7003cac:	4a a1 20 53 	movea	21280, r10, r10
 7003cb0:	4a cd 44 00 	ld.w	68[r10],r10
 7003cb4:	6a 0d       	cmp	r10, r11
 7003cb6:	28 94       	bne	7003cde <_handleInput+0x22e>
 7003cb8:	40 bd 00 05 	movhi	1280, r0, r10
 7003cbc:	4a a1 20 53 	movea	21280, r10, r10
 7003cc0:	6a cd 44 00 	ld.w	68[r10],r11
 7003cc4:	40 bd 00 05 	movhi	1280, r0, r10
 7003cc8:	4a a1 20 53 	movea	21280, r10, r10
 7003ccc:	4a cd 1c 00 	ld.w	28[r10],r10
 7003cd0:	6a 05       	add	r10, r11
 7003cd2:	40 bd 00 05 	movhi	1280, r0, r10
 7003cd6:	4a a1 20 53 	movea	21280, r10, r10
 7003cda:	6a dd 44 00 	st.w	r11, 68[r10]
 7003cde:	40 bd 00 05 	movhi	1280, r0, r10
 7003ce2:	4a a1 fc 04 	movea	1276, r10, r10
 7003ce6:	4a c5 00 00 	ld.h	0[r10],r10
 7003cea:	4a b5 ff ff 	andi	65535, r10, r10
 7003cee:	50 51       	shl	16, r10
 7003cf0:	50 5d       	sar	16, r10
 7003cf2:	40 0d       	cmp	r0, r10
 7003cf4:	44 9c       	bge	7003d38 <_handleInput+0x288>
 7003cf6:	40 bd 00 05 	movhi	1280, r0, r10
 7003cfa:	4a a1 20 53 	movea	21280, r10, r10
 7003cfe:	6a cd 08 00 	ld.w	8[r10],r11
 7003d02:	40 bd 00 05 	movhi	1280, r0, r10
 7003d06:	4a a1 20 53 	movea	21280, r10, r10
 7003d0a:	4a cd 44 00 	ld.w	68[r10],r10
 7003d0e:	6a 0d       	cmp	r10, r11
 7003d10:	28 94       	bne	7003d38 <_handleInput+0x288>
 7003d12:	40 bd 00 05 	movhi	1280, r0, r10
 7003d16:	4a a1 20 53 	movea	21280, r10, r10
 7003d1a:	6a cd 44 00 	ld.w	68[r10],r11
 7003d1e:	40 bd 00 05 	movhi	1280, r0, r10
 7003d22:	4a a1 20 53 	movea	21280, r10, r10
 7003d26:	4a cd 1c 00 	ld.w	28[r10],r10
 7003d2a:	6a 09       	sub	r10, r11
 7003d2c:	40 bd 00 05 	movhi	1280, r0, r10
 7003d30:	4a a1 20 53 	movea	21280, r10, r10
 7003d34:	6a dd 44 00 	st.w	r11, 68[r10]
 7003d38:	40 bd 00 05 	movhi	1280, r0, r10
 7003d3c:	4a a1 fc 04 	movea	1276, r10, r10
 7003d40:	4a c5 00 00 	ld.h	0[r10],r10
 7003d44:	4a b5 ff ff 	andi	65535, r10, r10
 7003d48:	4a b5 10 00 	andi	16, r10, r10
 7003d4c:	40 0d       	cmp	r0, r10
 7003d4e:	0e 84       	be	7003d5c <_handleInput+0x2ac>
 7003d50:	43 cd 14 00 	ld.w	20[sp],r10
 7003d54:	60 a1 5a 00 	movea	90, r0, r11
 7003d58:	6a dd 54 00 	st.w	r11, 84[r10]
 7003d5c:	40 bd 00 05 	movhi	1280, r0, r10
 7003d60:	4a a1 fc 04 	movea	1276, r10, r10
 7003d64:	4a c5 00 00 	ld.h	0[r10],r10
 7003d68:	4a b5 ff ff 	andi	65535, r10, r10
 7003d6c:	4a b5 20 00 	andi	32, r10, r10
 7003d70:	40 0d       	cmp	r0, r10
 7003d72:	0e 84       	be	7003d80 <_handleInput+0x2d0>
 7003d74:	43 cd 14 00 	ld.w	20[sp],r10
 7003d78:	60 a1 a6 ff 	movea	-90, r0, r11
 7003d7c:	6a dd 54 00 	st.w	r11, 84[r10]
 7003d80:	e3 cf 10 00 	ld.w	16[sp],lp
 7003d84:	63 a4 14 00 	addi	20, sp, sp
 7003d88:	1f 18       	jmp	[lp]
	...

07003d8c <_initObjects>:
 7003d8c:	40 bd 00 05 	movhi	1280, r0, r10
 7003d90:	4a a1 20 53 	movea	21280, r10, r10
 7003d94:	0a dc 00 00 	st.w	r0, 0[r10]
 7003d98:	40 bd 00 05 	movhi	1280, r0, r10
 7003d9c:	4a a1 20 53 	movea	21280, r10, r10
 7003da0:	0a dc 04 00 	st.w	r0, 4[r10]
 7003da4:	40 bd 00 05 	movhi	1280, r0, r10
 7003da8:	4a a1 20 53 	movea	21280, r10, r10
 7003dac:	0a dc 08 00 	st.w	r0, 8[r10]
 7003db0:	40 bd 00 05 	movhi	1280, r0, r10
 7003db4:	4a a1 20 53 	movea	21280, r10, r10
 7003db8:	0a dc 3c 00 	st.w	r0, 60[r10]
 7003dbc:	40 bd 00 05 	movhi	1280, r0, r10
 7003dc0:	4a a1 20 53 	movea	21280, r10, r10
 7003dc4:	0a dc 40 00 	st.w	r0, 64[r10]
 7003dc8:	40 bd 00 05 	movhi	1280, r0, r10
 7003dcc:	4a a1 20 53 	movea	21280, r10, r10
 7003dd0:	0a dc 44 00 	st.w	r0, 68[r10]
 7003dd4:	40 bd 00 05 	movhi	1280, r0, r10
 7003dd8:	4a a1 20 53 	movea	21280, r10, r10
 7003ddc:	0a dc 64 00 	st.w	r0, 100[r10]
 7003de0:	40 bd 00 05 	movhi	1280, r0, r10
 7003de4:	4a a1 20 53 	movea	21280, r10, r10
 7003de8:	0a dc 68 00 	st.w	r0, 104[r10]
 7003dec:	40 bd 00 05 	movhi	1280, r0, r10
 7003df0:	4a a1 20 53 	movea	21280, r10, r10
 7003df4:	0a dc 6c 00 	st.w	r0, 108[r10]
 7003df8:	40 bd 00 05 	movhi	1280, r0, r10
 7003dfc:	4a a1 20 53 	movea	21280, r10, r10
 7003e00:	60 a1 90 01 	movea	400, r0, r11
 7003e04:	6a dd 14 00 	st.w	r11, 20[r10]
 7003e08:	40 bd 00 05 	movhi	1280, r0, r10
 7003e0c:	4a a1 20 53 	movea	21280, r10, r10
 7003e10:	60 a1 90 01 	movea	400, r0, r11
 7003e14:	6a dd 18 00 	st.w	r11, 24[r10]
 7003e18:	40 bd 00 05 	movhi	1280, r0, r10
 7003e1c:	4a a1 20 53 	movea	21280, r10, r10
 7003e20:	60 a1 90 01 	movea	400, r0, r11
 7003e24:	6a dd 1c 00 	st.w	r11, 28[r10]
 7003e28:	40 bd 00 05 	movhi	1280, r0, r10
 7003e2c:	4a a1 20 53 	movea	21280, r10, r10
 7003e30:	60 a1 00 08 	movea	2048, r0, r11
 7003e34:	6a dd 8c 00 	st.w	r11, 140[r10]
 7003e38:	1f 18       	jmp	[lp]
	...

07003e3c <_vbInit>:
 7003e3c:	63 a4 e8 ff 	addi	-24, sp, sp
 7003e40:	e3 df 14 00 	st.w	lp, 20[sp]
 7003e44:	40 bd 00 07 	movhi	1792, r0, r10
 7003e48:	4a a1 00 03 	movea	768, r10, r10
 7003e4c:	00 ac 04 00 	jal	7003e50 <_vbInit+0x14>
 7003e50:	e4 47       	add	4, lp
 7003e52:	0a 18       	jmp	[r10]
 7003e54:	40 bd 00 07 	movhi	1792, r0, r10
 7003e58:	4a a1 2c 07 	movea	1836, r10, r10
 7003e5c:	00 ac 04 00 	jal	7003e60 <_vbInit+0x24>
 7003e60:	e4 47       	add	4, lp
 7003e62:	0a 18       	jmp	[r10]
 7003e64:	40 bd 00 05 	movhi	1280, r0, r10
 7003e68:	4a a1 00 00 	movea	0, r10, r10
 7003e6c:	4a cd 00 00 	ld.w	0[r10],r10
 7003e70:	4a a5 24 00 	addi	36, r10, r10
 7003e74:	60 a1 20 00 	movea	32, r0, r11
 7003e78:	6a d5 00 00 	st.h	r11, 0[r10]
 7003e7c:	40 bd 00 05 	movhi	1280, r0, r10
 7003e80:	4a a1 00 00 	movea	0, r10, r10
 7003e84:	4a cd 00 00 	ld.w	0[r10],r10
 7003e88:	4a a5 26 00 	addi	38, r10, r10
 7003e8c:	60 a1 40 00 	movea	64, r0, r11
 7003e90:	6a d5 00 00 	st.h	r11, 0[r10]
 7003e94:	40 bd 00 05 	movhi	1280, r0, r10
 7003e98:	4a a1 00 00 	movea	0, r10, r10
 7003e9c:	4a cd 00 00 	ld.w	0[r10],r10
 7003ea0:	4a a5 28 00 	addi	40, r10, r10
 7003ea4:	60 a1 20 00 	movea	32, r0, r11
 7003ea8:	6a d5 00 00 	st.h	r11, 0[r10]
 7003eac:	40 bd 00 07 	movhi	1792, r0, r10
 7003eb0:	4a a1 2c 41 	movea	16684, r10, r10
 7003eb4:	4a cd 00 00 	ld.w	0[r10],r10
 7003eb8:	4a a5 24 00 	addi	36, r10, r10
 7003ebc:	61 41       	mov	1, r11
 7003ebe:	6a d1 00 00 	st.b	r11, 0[r10]
 7003ec2:	40 bd 00 05 	movhi	1280, r0, r10
 7003ec6:	4a a1 00 00 	movea	0, r10, r10
 7003eca:	4a cd 00 00 	ld.w	0[r10],r10
 7003ece:	4a a5 2e 00 	addi	46, r10, r10
 7003ed2:	0a d4 00 00 	st.h	r0, 0[r10]
 7003ed6:	40 bd 00 07 	movhi	1792, r0, r10
 7003eda:	6a a1 1c 3a 	movea	14876, r10, r11
 7003ede:	40 bd 01 05 	movhi	1281, r0, r10
 7003ee2:	4a a1 c4 ff 	movea	-60, r10, r10
 7003ee6:	6a dd 00 00 	st.w	r11, 0[r10]
 7003eea:	c1 40       	mov	1, r6
 7003eec:	40 bd 00 07 	movhi	1792, r0, r10
 7003ef0:	4a a1 2c 16 	movea	5676, r10, r10
 7003ef4:	00 ac 04 00 	jal	7003ef8 <_vbInit+0xbc>
 7003ef8:	e4 47       	add	4, lp
 7003efa:	0a 18       	jmp	[r10]
 7003efc:	c6 40       	mov	6, r6
 7003efe:	40 bd 00 07 	movhi	1792, r0, r10
 7003f02:	4a a1 e4 15 	movea	5604, r10, r10
 7003f06:	00 ac 04 00 	jal	7003f0a <_vbInit+0xce>
 7003f0a:	e4 47       	add	4, lp
 7003f0c:	0a 18       	jmp	[r10]
 7003f0e:	c1 40       	mov	1, r6
 7003f10:	40 bd 00 07 	movhi	1792, r0, r10
 7003f14:	4a a1 38 15 	movea	5432, r10, r10
 7003f18:	00 ac 04 00 	jal	7003f1c <_vbInit+0xe0>
 7003f1c:	e4 47       	add	4, lp
 7003f1e:	0a 18       	jmp	[r10]
 7003f20:	c1 40       	mov	1, r6
 7003f22:	40 bd 00 07 	movhi	1792, r0, r10
 7003f26:	4a a1 a4 16 	movea	5796, r10, r10
 7003f2a:	00 ac 04 00 	jal	7003f2e <_vbInit+0xf2>
 7003f2e:	e4 47       	add	4, lp
 7003f30:	0a 18       	jmp	[r10]
 7003f32:	40 bd 02 00 	movhi	2, r0, r10
 7003f36:	ca a0 00 e0 	movea	-8192, r10, r6
 7003f3a:	40 bd 00 07 	movhi	1792, r0, r10
 7003f3e:	ea a0 3c 4f 	movea	20284, r10, r7
 7003f42:	00 a1 00 20 	movea	8192, r0, r8
 7003f46:	40 bd 00 07 	movhi	1792, r0, r10
 7003f4a:	4a a1 5c 0d 	movea	3420, r10, r10
 7003f4e:	00 ac 04 00 	jal	7003f52 <_vbInit+0x116>
 7003f52:	e4 47       	add	4, lp
 7003f54:	0a 18       	jmp	[r10]
 7003f56:	e3 cf 14 00 	ld.w	20[sp],lp
 7003f5a:	63 a4 18 00 	addi	24, sp, sp
 7003f5e:	1f 18       	jmp	[lp]

07003f60 <_screenControl>:
 7003f60:	7c 44       	add	-4, sp
 7003f62:	40 bd 00 05 	movhi	1280, r0, r10
 7003f66:	4a a1 08 00 	movea	8, r10, r10
 7003f6a:	4a c5 00 00 	ld.h	0[r10],r10
 7003f6e:	4a b5 ff ff 	andi	65535, r10, r10
 7003f72:	4a 3d       	not	r10, r10
 7003f74:	4a b5 ff ff 	andi	65535, r10, r10
 7003f78:	4a b5 0c 00 	andi	12, r10, r10
 7003f7c:	60 bd 00 05 	movhi	1280, r0, r11
 7003f80:	6b a1 08 00 	movea	8, r11, r11
 7003f84:	4b d5 00 00 	st.h	r10, 0[r11]
 7003f88:	40 bd 00 05 	movhi	1280, r0, r10
 7003f8c:	4a a1 00 00 	movea	0, r10, r10
 7003f90:	4a cd 00 00 	ld.w	0[r10],r10
 7003f94:	4a a5 42 00 	addi	66, r10, r10
 7003f98:	60 bd 00 05 	movhi	1280, r0, r11
 7003f9c:	6b a1 00 00 	movea	0, r11, r11
 7003fa0:	6b cd 00 00 	ld.w	0[r11],r11
 7003fa4:	6b a5 40 00 	addi	64, r11, r11
 7003fa8:	6b c5 00 00 	ld.h	0[r11],r11
 7003fac:	6b b5 ff ff 	andi	65535, r11, r11
 7003fb0:	6b b1 02 00 	ori	2, r11, r11
 7003fb4:	6b b5 ff ff 	andi	65535, r11, r11
 7003fb8:	6a d5 00 00 	st.h	r11, 0[r10]
 7003fbc:	40 bd 00 05 	movhi	1280, r0, r10
 7003fc0:	4a a1 00 00 	movea	0, r10, r10
 7003fc4:	4a cd 00 00 	ld.w	0[r10],r10
 7003fc8:	4a a5 40 00 	addi	64, r10, r10
 7003fcc:	4a c5 00 00 	ld.h	0[r10],r10
 7003fd0:	6a b5 ff ff 	andi	65535, r10, r11
 7003fd4:	40 bd 00 05 	movhi	1280, r0, r10
 7003fd8:	4a a1 08 00 	movea	8, r10, r10
 7003fdc:	4a c5 00 00 	ld.h	0[r10],r10
 7003fe0:	4a b5 ff ff 	andi	65535, r10, r10
 7003fe4:	4b 35       	and	r11, r10
 7003fe6:	4a b5 ff ff 	andi	65535, r10, r10
 7003fea:	40 0d       	cmp	r0, r10
 7003fec:	d0 85       	be	7003fbc <_screenControl+0x5c>
 7003fee:	40 bd 00 05 	movhi	1280, r0, r10
 7003ff2:	4a a1 00 00 	movea	0, r10, r10
 7003ff6:	4a cd 00 00 	ld.w	0[r10],r10
 7003ffa:	6a a5 42 00 	addi	66, r10, r11
 7003ffe:	40 bd 00 05 	movhi	1280, r0, r10
 7004002:	4a a1 00 00 	movea	0, r10, r10
 7004006:	4a cd 00 00 	ld.w	0[r10],r10
 700400a:	4a a5 40 00 	addi	64, r10, r10
 700400e:	4a c5 00 00 	ld.h	0[r10],r10
 7004012:	4a b5 ff ff 	andi	65535, r10, r10
 7004016:	4a b5 fd ff 	andi	65533, r10, r10
 700401a:	4b d5 00 00 	st.h	r10, 0[r11]
 700401e:	40 bd 00 05 	movhi	1280, r0, r10
 7004022:	4a a1 04 00 	movea	4, r10, r10
 7004026:	4a cd 00 00 	ld.w	0[r10],r10
 700402a:	43 dd 00 00 	st.w	r10, 0[sp]
 700402e:	40 bd 00 05 	movhi	1280, r0, r10
 7004032:	4a a1 18 00 	movea	24, r10, r10
 7004036:	6a cd 00 00 	ld.w	0[r10],r11
 700403a:	40 bd 00 05 	movhi	1280, r0, r10
 700403e:	4a a1 04 00 	movea	4, r10, r10
 7004042:	6a dd 00 00 	st.w	r11, 0[r10]
 7004046:	40 bd 00 05 	movhi	1280, r0, r10
 700404a:	4a a1 18 00 	movea	24, r10, r10
 700404e:	63 cd 00 00 	ld.w	0[sp],r11
 7004052:	6a dd 00 00 	st.w	r11, 0[r10]
 7004056:	64 44       	add	4, sp
 7004058:	1f 18       	jmp	[lp]
	...

Disassembly of section .vectors:

07007de0 <_rom_header>:
 7007de0:	20 20       	mul	r0, r1
 7007de2:	20 20       	mul	r0, r1
 7007de4:	20 20       	mul	r0, r1
 7007de6:	20 20       	mul	r0, r1
 7007de8:	20 20       	mul	r0, r1
 7007dea:	20 20       	mul	r0, r1
 7007dec:	20 20       	mul	r0, r1
 7007dee:	20 20       	mul	r0, r1
 7007df0:	20 20       	mul	r0, r1
 7007df2:	20 20       	mul	r0, r1
 7007df4:	00 00       	mov	r0, r0
 7007df6:	00 00       	mov	r0, r0
 7007df8:	00 20       	mul	r0, r0
 7007dfa:	20 56       	shr	0, r17
 7007dfc:	20 20       	mul	r0, r1
 7007dfe:	45 00       	mov	r5, r2

07007e00 <_int_table>:
 7007e00:	7c 44       	add	-4, sp
 7007e02:	23 dc 00 00 	st.w	r1, 0[sp]
 7007e06:	20 bc 00 07 	movhi	1792, r0, r1
 7007e0a:	21 a0 80 01 	movea	384, r1, r1
 7007e0e:	01 18       	jmp	[r1]
 7007e10:	7c 44       	add	-4, sp
 7007e12:	23 dc 00 00 	st.w	r1, 0[sp]
 7007e16:	20 bc 00 07 	movhi	1792, r0, r1
 7007e1a:	21 a0 80 01 	movea	384, r1, r1
 7007e1e:	01 18       	jmp	[r1]
 7007e20:	7c 44       	add	-4, sp
 7007e22:	23 dc 00 00 	st.w	r1, 0[sp]
 7007e26:	20 bc 00 07 	movhi	1792, r0, r1
 7007e2a:	21 a0 80 01 	movea	384, r1, r1
 7007e2e:	01 18       	jmp	[r1]
 7007e30:	7c 44       	add	-4, sp
 7007e32:	23 dc 00 00 	st.w	r1, 0[sp]
 7007e36:	20 bc 00 07 	movhi	1792, r0, r1
 7007e3a:	21 a0 80 01 	movea	384, r1, r1
 7007e3e:	01 18       	jmp	[r1]
 7007e40:	7c 44       	add	-4, sp
 7007e42:	23 dc 00 00 	st.w	r1, 0[sp]
 7007e46:	20 bc 00 07 	movhi	1792, r0, r1
 7007e4a:	21 a0 80 01 	movea	384, r1, r1
 7007e4e:	01 18       	jmp	[r1]
	...
 7007f60:	64 00       	mov	gp, sp
	...
 7007f7e:	00 00       	mov	r0, r0
 7007f80:	64 00       	mov	gp, sp
	...
 7007f8e:	00 00       	mov	r0, r0
 7007f90:	64 00       	mov	gp, sp
	...
 7007f9e:	00 00       	mov	r0, r0
 7007fa0:	64 00       	mov	gp, sp
	...
 7007fae:	00 00       	mov	r0, r0
 7007fb0:	64 00       	mov	gp, sp
	...
 7007fbe:	00 00       	mov	r0, r0
 7007fc0:	64 00       	mov	gp, sp
	...
 7007fce:	00 00       	mov	r0, r0
 7007fd0:	64 00       	mov	gp, sp
	...
 7007fee:	00 00       	mov	r0, r0
 7007ff0:	20 bc 00 07 	movhi	1792, r0, r1
 7007ff4:	21 a0 00 00 	movea	0, r1, r1
 7007ff8:	01 18       	jmp	[r1]
 7007ffa:	00 00       	mov	r0, r0
 7007ffc:	00 00       	mov	r0, r0
	...
